Component: ARM Compiler 5.06 update 6 (build 750) Tool: armlink [4d35ed]

==============================================================================

Section Cross References

    system_stm32f4xx.o(i.SystemCoreClockUpdate) refers to system_stm32f4xx.o(.data) for .data
    system_stm32f4xx.o(i.SystemInit) refers to system_stm32f4xx.o(i._Z11SetSysClockv) for SetSysClock()
    system_stm32f4xx.o(.ARM.exidx) refers to system_stm32f4xx.o(i._Z11SetSysClockv) for i._Z11SetSysClockv
    system_stm32f4xx.o(.ARM.exidx) refers to system_stm32f4xx.o(i.SystemInit) for i.SystemInit
    system_stm32f4xx.o(.ARM.exidx) refers to system_stm32f4xx.o(i.SystemCoreClockUpdate) for i.SystemCoreClockUpdate
    main.o(i._Z10drawStringR7SSD1306Pcjj) refers to main.o(i._Z8drawCharR7SSD1306cjj) for drawChar(SSD1306&, char, unsigned, unsigned)
    main.o(i._Z12clb_imuCalibv) refers to main.o(i._ZN3IMU9calibrateEj) for IMU::calibrate(unsigned)
    main.o(i._Z12clb_imuCalibv) refers to main.o(.bss) for .bss
    main.o(i._Z12clb_imuSetupv) refers to main.o(i._ZN3IMU12setZeroAngleEv) for IMU::setZeroAngle()
    main.o(i._Z12clb_imuSetupv) refers to main.o(.bss) for .bss
    main.o(i._Z12setupScreensv) refers to new.o(i._Znwj) for operator new(unsigned)
    main.o(i._Z12setupScreensv) refers to main.o(i._ZN7Display6addEscE7Command) for Display::addEsc(Command)
    main.o(i._Z12setupScreensv) refers to main.o(i._ZN7Display11addToScreenE7Command) for Display::addToScreen(Command)
    main.o(i._Z12setupScreensv) refers to main.o(.bss) for .bss
    main.o(i._Z12setupScreensv) refers to main.o(i._Z16clb_screenToMainv) for clb_screenToMain()
    main.o(i._Z12setupScreensv) refers to main.o(i._Z16clb_screenToGamev) for clb_screenToGame()
    main.o(i._Z12setupScreensv) refers to main.o(i._Z24clb_screenToCalibrationsv) for clb_screenToCalibrations()
    main.o(i._Z12setupScreensv) refers to main.o(i._Z21clb_screenToDebugDatav) for clb_screenToDebugData()
    main.o(i._Z12setupScreensv) refers to main.o(i._Z20clb_screenToDribblerv) for clb_screenToDribbler()
    main.o(i._Z12setupScreensv) refers to main.o(i._Z18clb_screenToKickerv) for clb_screenToKicker()
    main.o(i._Z12setupScreensv) refers to main.o(i._Z19clb_toBatteryScreenv) for clb_toBatteryScreen()
    main.o(i._Z12setupScreensv) refers to main.o(i._Z13clb_doNothingv) for clb_doNothing()
    main.o(i._Z12setupScreensv) refers to main.o(i._Z12clb_imuSetupv) for clb_imuSetup()
    main.o(i._Z12setupScreensv) refers to main.o(i._Z12clb_imuCalibv) for clb_imuCalib()
    main.o(i._Z12setupScreensv) refers to main.o(i._Z35clb_screenToLightSensorsCalibrationv) for clb_screenToLightSensorsCalibration()
    main.o(i._Z12setupScreensv) refers to main.o(i._Z19clb_turnOnBackLightv) for clb_turnOnBackLight()
    main.o(i._Z12setupScreensv) refers to main.o(i._Z20clb_turnOffBackLightv) for clb_turnOffBackLight()
    main.o(i._Z12setupScreensv) refers to main.o(i._Z20clb_beginLightsCalibv) for clb_beginLightsCalib()
    main.o(i._Z12setupScreensv) refers to main.o(i._Z18clb_endLightsCalibv) for clb_endLightsCalib()
    main.o(i._Z12setupScreensv) refers to main.o(i._Z16clb_dribblerInOnv) for clb_dribblerInOn()
    main.o(i._Z12setupScreensv) refers to main.o(i._Z17clb_dribblerOutOnv) for clb_dribblerOutOn()
    main.o(i._Z12setupScreensv) refers to main.o(i._Z15clb_dribblerOffv) for clb_dribblerOff()
    main.o(i._Z12setupScreensv) refers to main.o(i._Z16clb_kickStraightv) for clb_kickStraight()
    main.o(i._Z12setupScreensv) refers to main.o(i._Z9clb_kick2v) for clb_kick2()
    main.o(i._Z12setupScreensv) refers to main.o(i._Z9clb_kick1v) for clb_kick1()
    main.o(i._Z12updateKalmanR12CameraObjectdSt4pairIddES2_d) refers to ddiv.o(x$fpl$ddiv) for __aeabi_ddiv
    main.o(i._Z12updateKalmanR12CameraObjectdSt4pairIddES2_d) refers to daddsub_clz.o(x$fpl$dsub) for __aeabi_dsub
    main.o(i._Z12updateKalmanR12CameraObjectdSt4pairIddES2_d) refers to dmul.o(x$fpl$dmul) for __aeabi_dmul
    main.o(i._Z12updateKalmanR12CameraObjectdSt4pairIddES2_d) refers to daddsub_clz.o(x$fpl$dadd) for __aeabi_dadd
    main.o(i._Z13clb_doNothingv) refers to main.o(.data) for .data
    main.o(i._Z15clb_dribblerOffv) refers to main.o(i._ZN12MotorDrivers11setDribblerEi) for MotorDrivers::setDribbler(int)
    main.o(i._Z15clb_dribblerOffv) refers to main.o(.bss) for .bss
    main.o(i._Z16clb_dribblerInOnv) refers to main.o(i._ZN12MotorDrivers11setDribblerEi) for MotorDrivers::setDribbler(int)
    main.o(i._Z16clb_dribblerInOnv) refers to main.o(.bss) for .bss
    main.o(i._Z16clb_kickStraightv) refers to main.o(i._ZN12KickerModule4kickEbb) for KickerModule::kick(bool, bool)
    main.o(i._Z16clb_kickStraightv) refers to main.o(.bss) for .bss
    main.o(i._Z16clb_screenToGamev) refers to main.o(i._ZN12MotorDrivers12enableMotorsEv) for MotorDrivers::enableMotors()
    main.o(i._Z16clb_screenToGamev) refers to main.o(i._ZN5Robot10switch5vOnEv) for Robot::switch5vOn()
    main.o(i._Z16clb_screenToGamev) refers to main.o(i._ZN11LineSensors13turnOnSensorsEv) for LineSensors::turnOnSensors()
    main.o(i._Z16clb_screenToGamev) refers to main.o(i._ZN7Buttons10setChangedEib) for Buttons::setChanged(int, bool)
    main.o(i._Z16clb_screenToGamev) refers to main.o(.data) for .data
    main.o(i._Z16clb_screenToGamev) refers to main.o(.bss) for .bss
    main.o(i._Z16clb_screenToMainv) refers to main.o(i._ZN5Robot11switch5vOffEv) for Robot::switch5vOff()
    main.o(i._Z16clb_screenToMainv) refers to main.o(i._ZN11LineSensors14turnOffSensorsEv) for LineSensors::turnOffSensors()
    main.o(i._Z16clb_screenToMainv) refers to main.o(i._ZN12MotorDrivers13disableMotorsEv) for MotorDrivers::disableMotors()
    main.o(i._Z16clb_screenToMainv) refers to main.o(.data) for .data
    main.o(i._Z16clb_screenToMainv) refers to main.o(.bss) for .bss
    main.o(i._Z16updatePredictionR12CameraObjectSt4pairIddES2_d) refers to ddiv.o(x$fpl$ddiv) for __aeabi_ddiv
    main.o(i._Z16updatePredictionR12CameraObjectSt4pairIddES2_d) refers to daddsub_clz.o(x$fpl$dsub) for __aeabi_dsub
    main.o(i._Z16updatePredictionR12CameraObjectSt4pairIddES2_d) refers to dmul.o(x$fpl$dmul) for __aeabi_dmul
    main.o(i._Z16updatePredictionR12CameraObjectSt4pairIddES2_d) refers to daddsub_clz.o(x$fpl$dadd) for __aeabi_dadd
    main.o(i._Z17clb_dribblerOutOnv) refers to main.o(i._ZN12MotorDrivers11setDribblerEi) for MotorDrivers::setDribbler(int)
    main.o(i._Z17clb_dribblerOutOnv) refers to main.o(.bss) for .bss
    main.o(i._Z17clb_screenToEmptyv) refers to main.o(.bss) for .bss
    main.o(i._Z18clb_endLightsCalibv) refers to main.o(i._ZN11LineSensors18endLineCalibrationEv) for LineSensors::endLineCalibration()
    main.o(i._Z18clb_endLightsCalibv) refers to main.o(.bss) for .bss
    main.o(i._Z18clb_screenToKickerv) refers to main.o(.bss) for .bss
    main.o(i._Z18clb_screenToKickerv) refers to main.o(.data) for .data
    main.o(i._Z19clb_toBatteryScreenv) refers to main.o(i._Z17clb_screenToEmptyv) for clb_screenToEmpty()
    main.o(i._Z19clb_toBatteryScreenv) refers to main.o(.data) for .data
    main.o(i._Z19clb_turnOnBackLightv) refers to main.o(i._ZN11LineSensors13turnOnSensorsEv) for LineSensors::turnOnSensors()
    main.o(i._Z19clb_turnOnBackLightv) refers to main.o(.bss) for .bss
    main.o(i._Z20clb_beginLightsCalibv) refers to main.o(i._ZN11LineSensors20beginLineCalibrationEv) for LineSensors::beginLineCalibration()
    main.o(i._Z20clb_beginLightsCalibv) refers to main.o(.bss) for .bss
    main.o(i._Z20clb_screenToDribblerv) refers to main.o(.bss) for .bss
    main.o(i._Z20clb_screenToDribblerv) refers to main.o(.data) for .data
    main.o(i._Z20clb_turnOffBackLightv) refers to main.o(i._ZN11LineSensors14turnOffSensorsEv) for LineSensors::turnOffSensors()
    main.o(i._Z20clb_turnOffBackLightv) refers to main.o(.bss) for .bss
    main.o(i._Z21clb_screenToDebugDatav) refers to main.o(i._Z17clb_screenToEmptyv) for clb_screenToEmpty()
    main.o(i._Z21clb_screenToDebugDatav) refers to main.o(i._ZN5Robot10switch5vOnEv) for Robot::switch5vOn()
    main.o(i._Z21clb_screenToDebugDatav) refers to main.o(i._ZN11LineSensors13turnOnSensorsEv) for LineSensors::turnOnSensors()
    main.o(i._Z21clb_screenToDebugDatav) refers to main.o(.data) for .data
    main.o(i._Z21clb_screenToDebugDatav) refers to main.o(.bss) for .bss
    main.o(i._Z24clb_screenToCalibrationsv) refers to main.o(.bss) for .bss
    main.o(i._Z24clb_screenToCalibrationsv) refers to main.o(.data) for .data
    main.o(i._Z35clb_screenToLightSensorsCalibrationv) refers to main.o(.bss) for .bss
    main.o(i._Z35clb_screenToLightSensorsCalibrationv) refers to main.o(.data) for .data
    main.o(i._Z6rotateSt4pairIddEd) refers to dmul.o(x$fpl$dmul) for __aeabi_dmul
    main.o(i._Z6rotateSt4pairIddEd) refers to main.o(t._ZNSt4pairIddEC1Ev) for std::pair<double, double>::pair()
    main.o(i._Z6rotateSt4pairIddEd) refers to sin.o(i.__hardfp_sin) for __hardfp_sin
    main.o(i._Z6rotateSt4pairIddEd) refers to cos.o(i.__hardfp_cos) for __hardfp_cos
    main.o(i._Z6rotateSt4pairIddEd) refers to daddsub_clz.o(x$fpl$dsub) for __aeabi_dsub
    main.o(i._Z6rotateSt4pairIddEd) refers to daddsub_clz.o(x$fpl$dadd) for __aeabi_dadd
    main.o(i._Z8drawCharR7SSD1306cjj) refers to main.o(i._Z13symbolToIndexc) for symbolToIndex(char)
    main.o(i._Z8drawCharR7SSD1306cjj) refers to ssd1306.o(i._ZN7SSD13069drawPixelEsst) for SSD1306::drawPixel(short, short, unsigned short)
    main.o(i._Z8drawCharR7SSD1306cjj) refers to main.o(.constdata) for .constdata
    main.o(i._Z9clb_kick1v) refers to main.o(i._ZN12KickerModule4kickEbb) for KickerModule::kick(bool, bool)
    main.o(i._Z9clb_kick1v) refers to main.o(.bss) for .bss
    main.o(i._Z9clb_kick2v) refers to main.o(i._ZN12KickerModule4kickEbb) for KickerModule::kick(bool, bool)
    main.o(i._Z9clb_kick2v) refers to main.o(.bss) for .bss
    main.o(i._ZN10BallSensor4initEP6PL_ADCtt) refers to stm32f407_adc.o(i._ZN6PL_ADC3addEa) for PL_ADC::add(signed char)
    main.o(i._ZN10BallSensor4initEP6PL_ADCtt) refers to stm32f407_adc.o(i._ZN6PL_ADC5startEv) for PL_ADC::start()
    main.o(i._ZN10BallSensor4initEP6PL_ADCtt) refers to main.o(i._Z7initPinthhh) for initPin(unsigned short, unsigned char, unsigned char, unsigned char)
    main.o(i._ZN10BallSensor4initEP6PL_ADCtt) refers to main.o(i._Z6setPintb) for setPin(unsigned short, bool)
    main.o(i._ZN10BallSensor4initEP6PL_ADCtt) refers to main.o(i._ZN10BallSensor6turnOnEv) for BallSensor::turnOn()
    main.o(i._ZN10BallSensor4initEP6PL_ADCtt) refers to main.o(i._ZN10BallSensor6updateEv) for BallSensor::update()
    main.o(i._ZN10BallSensor4initEP6PL_ADCtt) refers to main.o(.data) for .data
    main.o(i._ZN10BallSensor6turnOnEv) refers to main.o(i._Z6setPintb) for setPin(unsigned short, bool)
    main.o(i._ZN10BallSensor6updateEv) refers to stm32f407_adc.o(i._ZN6PL_ADC4readEab) for PL_ADC::read(signed char, bool)
    main.o(i._ZN10BallSensor7turnOffEv) refers to main.o(i._Z6setPintb) for setPin(unsigned short, bool)
    main.o(i._ZN11LineSensors4initEjt) refers to main.o(i._Z7initPinthhh) for initPin(unsigned short, unsigned char, unsigned char, unsigned char)
    main.o(i._ZN11LineSensors4initEjt) refers to main.o(i._Z6setPintb) for setPin(unsigned short, bool)
    main.o(i._ZN11LineSensors6updateEv) refers to main.o(i._Z6setPintb) for setPin(unsigned short, bool)
    main.o(i._ZN11LineSensors6updateEv) refers to stm32f407_spi.o(i._Z8writeSPIjt) for writeSPI(unsigned, unsigned short)
    main.o(i._ZN12KickerModule15switchOnBoosterEv) refers to main.o(i._Z6setPintb) for setPin(unsigned short, bool)
    main.o(i._ZN12KickerModule16switchOffBoosterEv) refers to main.o(i._Z6setPintb) for setPin(unsigned short, bool)
    main.o(i._ZN12KickerModule4initEtttt) refers to main.o(i._Z7initPinthhh) for initPin(unsigned short, unsigned char, unsigned char, unsigned char)
    main.o(i._ZN12KickerModule4initEtttt) refers to main.o(i._Z6setPintb) for setPin(unsigned short, bool)
    main.o(i._ZN12KickerModule4initEtttt) refers to stm32f407_sysfunc.o(i._Z6millisv) for millis()
    main.o(i._ZN12KickerModule4kickEbb) refers to stm32f407_sysfunc.o(i._Z6millisv) for millis()
    main.o(i._ZN12KickerModule4kickEbb) refers to main.o(i._Z6setPintb) for setPin(unsigned short, bool)
    main.o(i._ZN12KickerModule4kickEbb) refers to stm32f407_sysfunc.o(i._Z5delayj) for delay(unsigned)
    main.o(i._ZN12MotorDrivers11setDribblerEi) refers to main.o(i._ZN12MotorDrivers8setMotorEii) for MotorDrivers::setMotor(int, int)
    main.o(i._ZN12MotorDrivers12enableMotorsEv) refers to main.o(i._ZN6Driver15disableFloatingEv) for Driver::disableFloating()
    main.o(i._ZN12MotorDrivers13disableMotorsEv) refers to main.o(i._ZN6Driver14enableFloatingEv) for Driver::enableFloating()
    main.o(i._ZN12MotorDrivers14attemptCurrentEv) refers to main.o(i._ZN6Driver14attemptCurrentEv) for Driver::attemptCurrent()
    main.o(i._ZN12MotorDrivers4initEjhjhjhjhjh) refers to stm32f407_uart.o(i._Z8initUARTjjhfhj) for initUART(unsigned, unsigned, unsigned char, float, unsigned char, unsigned)
    main.o(i._ZN12MotorDrivers4initEjhjhjhjhjh) refers to stm32f407_sysfunc.o(i._Z5delayj) for delay(unsigned)
    main.o(i._ZN12MotorDrivers4initEjhjhjhjhjh) refers to main.o(i._ZN6Driver4initEcc) for Driver::init(char, char)
    main.o(i._ZN12MotorDrivers4initEjhjhjhjhjh) refers to main.o(i._ZN12MotorDrivers8setMotorEii) for MotorDrivers::setMotor(int, int)
    main.o(i._ZN12MotorDrivers6updateEv) refers to rt_memcpy_w.o(.text) for __aeabi_memcpy4
    main.o(i._ZN12MotorDrivers6updateEv) refers to stm32f407_uart.o(i._Z8readUARTj) for readUART(unsigned)
    main.o(i._ZN12MotorDrivers6updateEv) refers to main.o(t._Z4crc8IiET_PS0_i) for T1 crc8<int>(T1*, int)
    main.o(i._ZN12MotorDrivers6updateEv) refers to main.o(i._ZN6Driver13updateFromRegEv) for Driver::updateFromReg()
    main.o(i._ZN12MotorDrivers6updateEv) refers to stm32f407_uart.o(i._Z13UARTAvailablej) for UARTAvailable(unsigned)
    main.o(i._ZN12MotorDrivers6updateEv) refers to main.o(.bss) for .bss
    main.o(i._ZN12MotorDrivers6updateEv) refers to main.o(.data) for .data
    main.o(i._ZN12MotorDrivers8setMotorEii) refers to main.o(i._ZN6Driver11setVelocityEi) for Driver::setVelocity(int)
    main.o(i._ZN12MotorDrivers9setMotorsEiiii) refers to main.o(i._ZN12MotorDrivers8setMotorEii) for MotorDrivers::setMotor(int, int)
    main.o(i._ZN12MotorDrivers9setMotorsEiiiii) refers to main.o(i._ZN12MotorDrivers9setMotorsEiiii) for MotorDrivers::setMotors(int, int, int, int)
    main.o(i._ZN12MotorDrivers9setMotorsEiiiii) refers to main.o(i._ZN12MotorDrivers8setMotorEii) for MotorDrivers::setMotor(int, int)
    main.o(i._ZN14BaseFunctional11genATMPointEssa) refers to dflt_clz.o(x$fpl$dflt) for __aeabi_i2d
    main.o(i._ZN14BaseFunctional11genATMPointEssa) refers to atan2.o(i.__hardfp_atan2) for __hardfp_atan2
    main.o(i._ZN14BaseFunctional11genATMPointEssa) refers to dmul.o(x$fpl$dmul) for __aeabi_dmul
    main.o(i._ZN14BaseFunctional11genATMPointEssa) refers to dfix.o(x$fpl$dfix) for __aeabi_d2iz
    main.o(i._ZN14BaseFunctional14genATMVecFieldEss) refers to main.o(.data) for .data
    main.o(i._ZN14BaseFunctional5move2E12VectorToMoved) refers to dflt_clz.o(x$fpl$dflt) for __aeabi_i2d
    main.o(i._ZN14BaseFunctional5move2E12VectorToMoved) refers to dmul.o(x$fpl$dmul) for __aeabi_dmul
    main.o(i._ZN14BaseFunctional5move2E12VectorToMoved) refers to main.o(i._ZN5Robot4moveEddddd) for Robot::move(double, double, double, double, double)
    main.o(i._ZN14BaseFunctional6turnRCE14RobotParametrsaaa) refers to dflt_clz.o(x$fpl$dflt) for __aeabi_i2d
    main.o(i._ZN14BaseFunctional6turnRCE14RobotParametrsaaa) refers to ddiv.o(x$fpl$ddiv) for __aeabi_ddiv
    main.o(i._ZN14BaseFunctional6turnRCE14RobotParametrsaaa) refers to sin.o(i.__hardfp_sin) for __hardfp_sin
    main.o(i._ZN14BaseFunctional6turnRCE14RobotParametrsaaa) refers to dmul.o(x$fpl$dmul) for __aeabi_dmul
    main.o(i._ZN14BaseFunctional6turnRCE14RobotParametrsaaa) refers to cos.o(i.__hardfp_cos) for __hardfp_cos
    main.o(i._ZN14BaseFunctional6turnRCE14RobotParametrsaaa) refers to daddsub_clz.o(x$fpl$dsub) for __aeabi_dsub
    main.o(i._ZN14BaseFunctional6turnRCE14RobotParametrsaaa) refers to dfix.o(x$fpl$dfix) for __aeabi_d2iz
    main.o(i._ZN14BaseFunctional6turnRCE14RobotParametrsaaa) refers to daddsub_clz.o(x$fpl$dadd) for __aeabi_dadd
    main.o(i._ZN14BaseFunctional9checkBallEv) refers to main.o(i._ZN10BallSensor8getValueEv) for BallSensor::getValue()
    main.o(i._ZN14BaseFunctional9turnCoordEdssRsS0_) refers to ddiv.o(x$fpl$ddiv) for __aeabi_ddiv
    main.o(i._ZN14BaseFunctional9turnCoordEdssRsS0_) refers to sin.o(i.__hardfp_sin) for __hardfp_sin
    main.o(i._ZN14BaseFunctional9turnCoordEdssRsS0_) refers to dflt_clz.o(x$fpl$dflt) for __aeabi_i2d
    main.o(i._ZN14BaseFunctional9turnCoordEdssRsS0_) refers to dmul.o(x$fpl$dmul) for __aeabi_dmul
    main.o(i._ZN14BaseFunctional9turnCoordEdssRsS0_) refers to cos.o(i.__hardfp_cos) for __hardfp_cos
    main.o(i._ZN14BaseFunctional9turnCoordEdssRsS0_) refers to daddsub_clz.o(x$fpl$dsub) for __aeabi_dsub
    main.o(i._ZN14BaseFunctional9turnCoordEdssRsS0_) refers to dfix.o(x$fpl$dfix) for __aeabi_d2iz
    main.o(i._ZN14BaseFunctional9turnCoordEdssRsS0_) refers to daddsub_clz.o(x$fpl$dadd) for __aeabi_dadd
    main.o(i._ZN3IMU12setZeroAngleEv) refers to main.o(i._ZN3IMU6updateEv) for IMU::update()
    main.o(i._ZN3IMU20updateAnglesFromFIFOEv) refers to mpu9250.o(i._ZN7mpu925020updateAnglesFromFIFOEv) for mpu9250::updateAnglesFromFIFO()
    main.o(i._ZN3IMU4initEjtt) refers to main.o(i._ZN3IMU6turnOnEv) for IMU::turnOn()
    main.o(i._ZN3IMU4initEjtt) refers to stm32f407_sysfunc.o(i._Z5delayj) for delay(unsigned)
    main.o(i._ZN3IMU4initEjtt) refers to mpu9250.o(i._ZN7mpu92507initIMUEji) for mpu9250::initIMU(unsigned, int)
    main.o(i._ZN3IMU4initEjtt) refers to main.o(i._ZN3IMU12setZeroAngleEv) for IMU::setZeroAngle()
    main.o(i._ZN3IMU4initEjtt) refers to stm32f407_sysfunc.o(i._Z6millisv) for millis()
    main.o(i._ZN3IMU6turnOnEv) refers to main.o(i._Z7initPinthhh) for initPin(unsigned short, unsigned char, unsigned char, unsigned char)
    main.o(i._ZN3IMU6turnOnEv) refers to main.o(i._Z6setPintb) for setPin(unsigned short, bool)
    main.o(i._ZN3IMU6updateEv) refers to main.o(i._ZN3IMU20updateAnglesFromFIFOEv) for IMU::updateAnglesFromFIFO()
    main.o(i._ZN3IMU6updateEv) refers to daddsub_clz.o(x$fpl$dsub) for __aeabi_dsub
    main.o(i._ZN3IMU6updateEv) refers to drleqf.o(x$fpl$drleqf) for __aeabi_cdrcmple
    main.o(i._ZN3IMU6updateEv) refers to daddsub_clz.o(x$fpl$dadd) for __aeabi_dadd
    main.o(i._ZN3IMU6updateEv) refers to dleqf.o(x$fpl$dleqf) for __aeabi_cdcmple
    main.o(i._ZN3IMU7turnOffEv) refers to main.o(i._Z7initPinthhh) for initPin(unsigned short, unsigned char, unsigned char, unsigned char)
    main.o(i._ZN3IMU7turnOffEv) refers to main.o(i._Z6setPintb) for setPin(unsigned short, bool)
    main.o(i._ZN3IMU8getAngleEv) refers to daddsub_clz.o(x$fpl$dsub) for __aeabi_dsub
    main.o(i._ZN3IMU8getAngleEv) refers to drleqf.o(x$fpl$drleqf) for __aeabi_cdrcmple
    main.o(i._ZN3IMU8getAngleEv) refers to daddsub_clz.o(x$fpl$dadd) for __aeabi_dadd
    main.o(i._ZN3IMU8getAngleEv) refers to dleqf.o(x$fpl$dleqf) for __aeabi_cdcmple
    main.o(i._ZN3IMU9calibrateEj) refers to mpu9250.o(i._ZN7mpu92509calibrateEi) for mpu9250::calibrate(int)
    main.o(i._ZN5Robot10switch5vOnEv) refers to main.o(i._Z6setPintb) for setPin(unsigned short, bool)
    main.o(i._ZN5Robot10updateMenuEv) refers to cxa_guard_acquire.o(i.__cxa_guard_acquire) for __cxa_guard_acquire
    main.o(i._ZN5Robot10updateMenuEv) refers to stm32f407_sysfunc.o(i._Z6millisv) for millis()
    main.o(i._ZN5Robot10updateMenuEv) refers to main.o(i._ZN7Buttons9isPressedEi) for Buttons::isPressed(int)
    main.o(i._ZN5Robot10updateMenuEv) refers to main.o(.data) for .data
    main.o(i._ZN5Robot11switch5vOffEv) refers to main.o(i._Z6setPintb) for setPin(unsigned short, bool)
    main.o(i._ZN5Robot12handleErrorsEv) refers to main.o(i._ZN5Robot9logErrorsEv) for Robot::logErrors()
    main.o(i._ZN5Robot12handleErrorsEv) refers to main.o(i._Z6setPintb) for setPin(unsigned short, bool)
    main.o(i._ZN5Robot12handleErrorsEv) refers to stm32f407_sysfunc.o(i._Z6millisv) for millis()
    main.o(i._ZN5Robot12handleErrorsEv) refers to main.o(i._ZN12MotorDrivers9setMotorsEiiiii) for MotorDrivers::setMotors(int, int, int, int, int)
    main.o(i._ZN5Robot12handleErrorsEv) refers to ssd1306.o(i._ZN7SSD13065clearEv) for SSD1306::clear()
    main.o(i._ZN5Robot12handleErrorsEv) refers to main.o(i._ZN7Display5printEPcii) for Display::print(char*, int, int)
    main.o(i._ZN5Robot12handleErrorsEv) refers to ssd1306.o(i._ZN7SSD13067displayEv) for SSD1306::display()
    main.o(i._ZN5Robot12handleErrorsEv) refers to main.o(i._ZN5Robot13swithPowerOffEv) for Robot::swithPowerOff()
    main.o(i._ZN5Robot12handleErrorsEv) refers to main.o(.data) for .data
    main.o(i._ZN5Robot12setPlayStateEb) refers to stm32f407_sysfunc.o(i._Z6millisv) for millis()
    main.o(i._ZN5Robot12swithPowerOnEv) refers to main.o(i._Z6setPintb) for setPin(unsigned short, bool)
    main.o(i._ZN5Robot13swithPowerOffEv) refers to main.o(i._Z6setPintb) for setPin(unsigned short, bool)
    main.o(i._ZN5Robot13updateSelfPosESt4pairIddES1_) refers to dmul.o(x$fpl$dmul) for __aeabi_dmul
    main.o(i._ZN5Robot13updateSelfPosESt4pairIddES1_) refers to daddsub_clz.o(x$fpl$dadd) for __aeabi_dadd
    main.o(i._ZN5Robot13updateSelfPosESt4pairIddES1_) refers to sqrt.o(i.__hardfp_sqrt) for __hardfp_sqrt
    main.o(i._ZN5Robot13updateSelfPosESt4pairIddES1_) refers to daddsub_clz.o(x$fpl$dsub) for __aeabi_dsub
    main.o(i._ZN5Robot13updateSelfPosESt4pairIddES1_) refers to ddiv.o(x$fpl$ddiv) for __aeabi_ddiv
    main.o(i._ZN5Robot13updateSelfPosESt4pairIddES1_) refers to daddsub_clz.o(x$fpl$drsb) for __aeabi_drsub
    main.o(i._ZN5Robot13updateSelfPosESt4pairIddES1_) refers to drleqf.o(x$fpl$drleqf) for __aeabi_cdrcmple
    main.o(i._ZN5Robot13updateSelfPosESt4pairIddES1_) refers to dleqf.o(x$fpl$dleqf) for __aeabi_cdcmple
    main.o(i._ZN5Robot13updateSelfPosESt4pairIddES1_) refers to basic.o(x$fpl$basic) for __aeabi_dneg
    main.o(i._ZN5Robot15changePlayStateEv) refers to main.o(i._ZN5Robot12setPlayStateEb) for Robot::setPlayState(bool)
    main.o(i._ZN5Robot4getVEv) refers to main.o(t._ZNSt4pairIddEC1ERKS0_) for std::pair<double, double>::pair(const std::pair<double, double>&)
    main.o(i._ZN5Robot4initEv) refers to main.o(i._Z7initPinthhh) for initPin(unsigned short, unsigned char, unsigned char, unsigned char)
    main.o(i._ZN5Robot4initEv) refers to main.o(i._ZN5Robot12swithPowerOnEv) for Robot::swithPowerOn()
    main.o(i._ZN5Robot4initEv) refers to main.o(i._ZN5Robot11switch5vOffEv) for Robot::switch5vOff()
    main.o(i._ZN5Robot4initEv) refers to ssd1306.o(i._ZN7SSD1306C1Ejtttttt) for SSD1306::SSD1306(unsigned, unsigned short, unsigned short, unsigned short, unsigned short, unsigned short, unsigned short)
    main.o(i._ZN5Robot4initEv) refers to ssd1306.o(i._ZN7SSD13068switchOnEv) for SSD1306::switchOn()
    main.o(i._ZN5Robot4initEv) refers to ssd1306.o(i._ZN7SSD13065beginEhb) for SSD1306::begin(unsigned char, bool)
    main.o(i._ZN5Robot4initEv) refers to ssd1306.o(i._ZN7SSD13065clearEv) for SSD1306::clear()
    main.o(i._ZN5Robot4initEv) refers to ssd1306.o(i._ZN7SSD13067displayEPh) for SSD1306::display(unsigned char*)
    main.o(i._ZN5Robot4initEv) refers to ssd1306.o(i._ZN7SSD13066invertEh) for SSD1306::invert(unsigned char)
    main.o(i._ZN5Robot4initEv) refers to stm32f407_sysfunc.o(i._Z6millisv) for millis()
    main.o(i._ZN5Robot4initEv) refers to main.o(i._ZN5Robot8initLEDsEv) for Robot::initLEDs()
    main.o(i._ZN5Robot4initEv) refers to main.o(i._ZN7Buttons4initEtttt) for Buttons::init(unsigned short, unsigned short, unsigned short, unsigned short)
    main.o(i._ZN5Robot4initEv) refers to main.o(i._ZN3IMU4initEjtt) for IMU::init(unsigned, unsigned short, unsigned short)
    main.o(i._ZN5Robot4initEv) refers to main.o(i._ZN12MotorDrivers4initEjhjhjhjhjh) for MotorDrivers::init(unsigned, unsigned char, unsigned, unsigned char, unsigned, unsigned char, unsigned, unsigned char, unsigned, unsigned char)
    main.o(i._ZN5Robot4initEv) refers to stm32f407_uart.o(i._Z8initUARTjjhfhj) for initUART(unsigned, unsigned, unsigned char, float, unsigned char, unsigned)
    main.o(i._ZN5Robot4initEv) refers to stm32f407_sysfunc.o(i._Z5delayj) for delay(unsigned)
    main.o(i._ZN5Robot4initEv) refers to stm32f407_spi.o(i._Z7initSPIjbhtiiii) for initSPI(unsigned, bool, unsigned char, unsigned short, int, int, int, int)
    main.o(i._ZN5Robot4initEv) refers to main.o(i._ZN11LineSensors4initEjt) for LineSensors::init(unsigned, unsigned short)
    main.o(i._ZN5Robot4initEv) refers to main.o(i._ZN6Camera4initEjt) for Camera::init(unsigned, unsigned short)
    main.o(i._ZN5Robot4initEv) refers to main.o(i._ZN12KickerModule4initEtttt) for KickerModule::init(unsigned short, unsigned short, unsigned short, unsigned short)
    main.o(i._ZN5Robot4initEv) refers to new.o(i._Znwj) for operator new(unsigned)
    main.o(i._ZN5Robot4initEv) refers to stm32f407_adc.o(i._ZN6PL_ADCC1EP11ADC_TypeDef) for PL_ADC::PL_ADC(ADC_TypeDef*)
    main.o(i._ZN5Robot4initEv) refers to stm32f407_adc.o(i._ZN6PL_ADC4initEv) for PL_ADC::init()
    main.o(i._ZN5Robot4initEv) refers to main.o(i._ZN7Battery4initEP6PL_ADCtttt) for Battery::init(PL_ADC*, unsigned short, unsigned short, unsigned short, unsigned short)
    main.o(i._ZN5Robot4initEv) refers to stm32f407_adc.o(i._ZN6PL_ADC5startEv) for PL_ADC::start()
    main.o(i._ZN5Robot4initEv) refers to main.o(i._ZN10BallSensor4initEP6PL_ADCtt) for BallSensor::init(PL_ADC*, unsigned short, unsigned short)
    main.o(i._ZN5Robot4initEv) refers to ssd1306.o(i._ZN7SSD13067displayEv) for SSD1306::display()
    main.o(i._ZN5Robot4initEv) refers to main.o(.data) for .data
    main.o(i._ZN5Robot4moveEddddd) refers to main.o(i._ZSt3absd) for std::abs(double)
    main.o(i._ZN5Robot4moveEddddd) refers to daddsub_clz.o(x$fpl$dsub) for __aeabi_dsub
    main.o(i._ZN5Robot4moveEddddd) refers to drleqf.o(x$fpl$drleqf) for __aeabi_cdrcmple
    main.o(i._ZN5Robot4moveEddddd) refers to main.o(t._Z4min2IdET_S0_S0_) for T1 min2<double>(T1, T1)
    main.o(i._ZN5Robot4moveEddddd) refers to dmul.o(x$fpl$dmul) for __aeabi_dmul
    main.o(i._ZN5Robot4moveEddddd) refers to cos.o(i.__hardfp_cos) for __hardfp_cos
    main.o(i._ZN5Robot4moveEddddd) refers to ddiv.o(x$fpl$ddiv) for __aeabi_ddiv
    main.o(i._ZN5Robot4moveEddddd) refers to main.o(i._ZN3IMU8getAngleEv) for IMU::getAngle()
    main.o(i._ZN5Robot4moveEddddd) refers to daddsub_clz.o(x$fpl$dadd) for __aeabi_dadd
    main.o(i._ZN5Robot4moveEddddd) refers to dleqf.o(x$fpl$dleqf) for __aeabi_cdcmple
    main.o(i._ZN5Robot4moveEddddd) refers to cxa_guard_acquire.o(i.__cxa_guard_acquire) for __cxa_guard_acquire
    main.o(i._ZN5Robot4moveEddddd) refers to stm32f407_sysfunc.o(i._Z6millisv) for millis()
    main.o(i._ZN5Robot4moveEddddd) refers to dflt_clz.o(x$fpl$dfltu) for __aeabi_ui2d
    main.o(i._ZN5Robot4moveEddddd) refers to main.o(t._Z3sgnIdET_S0_) for T1 sgn<double>(T1)
    main.o(i._ZN5Robot4moveEddddd) refers to basic.o(x$fpl$basic) for __aeabi_dneg
    main.o(i._ZN5Robot4moveEddddd) refers to sin.o(i.__hardfp_sin) for __hardfp_sin
    main.o(i._ZN5Robot4moveEddddd) refers to atan2.o(i.__hardfp_atan2) for __hardfp_atan2
    main.o(i._ZN5Robot4moveEddddd) refers to main.o(.data) for .data
    main.o(i._ZN5Robot4moveEddddd) refers to sqrt.o(i.__hardfp_sqrt) for __hardfp_sqrt
    main.o(i._ZN5Robot4moveEddddd) refers to dfix.o(x$fpl$dfix) for __aeabi_d2iz
    main.o(i._ZN5Robot4moveEddddd) refers to dflt_clz.o(x$fpl$dflt) for __aeabi_i2d
    main.o(i._ZN5Robot4moveEddddd) refers to main.o(i._ZN12MotorDrivers9setMotorsEiiii) for MotorDrivers::setMotors(int, int, int, int)
    main.o(i._ZN5Robot4waitEj) refers to stm32f407_sysfunc.o(i._Z6millisv) for millis()
    main.o(i._ZN5Robot4waitEj) refers to main.o(i._ZN7Battery6updateEv) for Battery::update()
    main.o(i._ZN5Robot4waitEj) refers to main.o(i._ZN6Camera6updateEv) for Camera::update()
    main.o(i._ZN5Robot4waitEj) refers to main.o(i._ZN12MotorDrivers14attemptCurrentEv) for MotorDrivers::attemptCurrent()
    main.o(i._ZN5Robot4waitEj) refers to main.o(i._ZN12MotorDrivers6updateEv) for MotorDrivers::update()
    main.o(i._ZN5Robot4waitEj) refers to main.o(i._ZN3IMU6updateEv) for IMU::update()
    main.o(i._ZN5Robot4waitEj) refers to main.o(i._ZN11LineSensors6updateEv) for LineSensors::update()
    main.o(i._ZN5Robot4waitEj) refers to main.o(i._ZN10BallSensor6updateEv) for BallSensor::update()
    main.o(i._ZN5Robot4waitEj) refers to main.o(i._ZN7Buttons6updateEv) for Buttons::update()
    main.o(i._ZN5Robot4waitEj) refers to main.o(i._ZN5Robot10updateMenuEv) for Robot::updateMenu()
    main.o(i._ZN5Robot4waitEj) refers to main.o(i._ZN5Robot12handleErrorsEv) for Robot::handleErrors()
    main.o(i._ZN5Robot4waitEj) refers to main.o(.data) for .data
    main.o(i._ZN5Robot6getPosEv) refers to main.o(t._ZNSt4pairIddEC1ERKS0_) for std::pair<double, double>::pair(const std::pair<double, double>&)
    main.o(i._ZN5Robot8initLEDsEv) refers to main.o(i._Z7initPinthhh) for initPin(unsigned short, unsigned char, unsigned char, unsigned char)
    main.o(i._ZN5Robot8initLEDsEv) refers to main.o(i._Z6setPintb) for setPin(unsigned short, bool)
    main.o(i._ZN5Robot9logErrorsEv) refers to main.o(i._ZN7Display5printEjiii) for Display::print(unsigned, int, int, int)
    main.o(i._ZN5Robot9logErrorsEv) refers to main.o(.data) for .data
    main.o(i._ZN6Camera4initEjt) refers to main.o(i._Z7initPinthhh) for initPin(unsigned short, unsigned char, unsigned char, unsigned char)
    main.o(i._ZN6Camera4initEjt) refers to main.o(i._Z6setPintb) for setPin(unsigned short, bool)
    main.o(i._ZN6Camera6updateEv) refers to stm32f407_sysfunc.o(i._Z6millisv) for millis()
    main.o(i._ZN6Camera6updateEv) refers to main.o(i._Z6setPintb) for setPin(unsigned short, bool)
    main.o(i._ZN6Camera6updateEv) refers to stm32f407_spi.o(i._Z8writeSPIjt) for writeSPI(unsigned, unsigned short)
    main.o(i._ZN6Camera6updateEv) refers to main.o(t._Z4crc8IhET_PS0_i) for T1 crc8<unsigned char>(T1*, int)
    main.o(i._ZN6CameraC1Ev) refers to main.o(t._ZNSt4pairIiiEC1Ev) for std::pair<int, int>::pair()
    main.o(i._ZN6Driver11attemptTempEv) refers to main.o(i._ZN6Driver5writeEPccc) for Driver::write(char*, char, char)
    main.o(i._ZN6Driver11attemptTempEv) refers to main.o(.data) for .data
    main.o(i._ZN6Driver11setVelocityEi) refers to ceilf.o(i.__hardfp_ceilf) for __hardfp_ceilf
    main.o(i._ZN6Driver11setVelocityEi) refers to main.o(i._ZN6Driver5writeEPccc) for Driver::write(char*, char, char)
    main.o(i._ZN6Driver13updateFromRegEv) refers to stm32f407_sysfunc.o(i._Z6millisv) for millis()
    main.o(i._ZN6Driver14attemptCurrentEv) refers to main.o(i._ZN6Driver5writeEPccc) for Driver::write(char*, char, char)
    main.o(i._ZN6Driver14attemptCurrentEv) refers to main.o(.data) for .data
    main.o(i._ZN6Driver14attemptVoltageEv) refers to main.o(i._ZN6Driver5writeEPccc) for Driver::write(char*, char, char)
    main.o(i._ZN6Driver14attemptVoltageEv) refers to main.o(.data) for .data
    main.o(i._ZN6Driver14enableFloatingEv) refers to main.o(i._ZN6Driver5writeEPccc) for Driver::write(char*, char, char)
    main.o(i._ZN6Driver14enableFloatingEv) refers to main.o(.data) for .data
    main.o(i._ZN6Driver15attemptVelocityEv) refers to main.o(i._ZN6Driver5writeEPccc) for Driver::write(char*, char, char)
    main.o(i._ZN6Driver15attemptVelocityEv) refers to main.o(.data) for .data
    main.o(i._ZN6Driver15disableFloatingEv) refers to main.o(i._ZN6Driver5writeEPccc) for Driver::write(char*, char, char)
    main.o(i._ZN6Driver15disableFloatingEv) refers to main.o(.data) for .data
    main.o(i._ZN6Driver5writeEPccc) refers to main.o(t._Z4crc8IcET_PS0_i) for T1 crc8<char>(T1*, int)
    main.o(i._ZN6Driver5writeEPccc) refers to stm32f407_uart.o(i._Z9writeUARTjc) for writeUART(unsigned, char)
    main.o(i._ZN6Driver5writeEPccc) refers to main.o(.bss) for .bss
    main.o(i._ZN6Driver7isWorksEv) refers to stm32f407_sysfunc.o(i._Z6millisv) for millis()
    main.o(i._ZN7Battery4initEP6PL_ADCtttt) refers to stm32f407_adc.o(i._ZN6PL_ADC3addEa) for PL_ADC::add(signed char)
    main.o(i._ZN7Battery4initEP6PL_ADCtttt) refers to stm32f407_adc.o(i._ZN6PL_ADC5startEv) for PL_ADC::start()
    main.o(i._ZN7Battery4initEP6PL_ADCtttt) refers to main.o(i._ZN7Battery6updateEv) for Battery::update()
    main.o(i._ZN7Battery4initEP6PL_ADCtttt) refers to main.o(.data) for .data
    main.o(i._ZN7Battery6updateEv) refers to stm32f407_sysfunc.o(i._Z11delayMicrosj) for delayMicros(unsigned)
    main.o(i._ZN7Battery6updateEv) refers to main.o(i._ZN7Battery8readCellEi) for Battery::readCell(int)
    main.o(i._ZN7Battery6updateEv) refers to daddsub_clz.o(x$fpl$dsub) for __aeabi_dsub
    main.o(i._ZN7Battery6updateEv) refers to dleqf.o(x$fpl$dleqf) for __aeabi_cdcmple
    main.o(i._ZN7Battery6updateEv) refers to ddiv.o(x$fpl$ddiv) for __aeabi_ddiv
    main.o(i._ZN7Battery6updateEv) refers to dmul.o(x$fpl$dmul) for __aeabi_dmul
    main.o(i._ZN7Battery6updateEv) refers to drleqf.o(x$fpl$drleqf) for __aeabi_cdrcmple
    main.o(i._ZN7Battery6updateEv) refers to stm32f407_sysfunc.o(i._Z6millisv) for millis()
    main.o(i._ZN7Battery8readCellEi) refers to stm32f407_adc.o(i._ZN6PL_ADC4readEab) for PL_ADC::read(signed char, bool)
    main.o(i._ZN7Battery8readCellEi) refers to dflt_clz.o(x$fpl$dfltu) for __aeabi_ui2d
    main.o(i._ZN7Battery8readCellEi) refers to dmul.o(x$fpl$dmul) for __aeabi_dmul
    main.o(i._ZN7Buttons4initEtttt) refers to main.o(i._Z7initPinthhh) for initPin(unsigned short, unsigned char, unsigned char, unsigned char)
    main.o(i._ZN7Buttons4initEtttt) refers to main.o(i._ZN7Buttons6enableEv) for Buttons::enable()
    main.o(i._ZN7Buttons4initEtttt) refers to main.o(i._ZN7Buttons6updateEv) for Buttons::update()
    main.o(i._ZN7Buttons6updateEv) refers to main.o(i._Z7readPinP12GPIO_TypeDeft) for readPin(GPIO_TypeDef*, unsigned short)
    main.o(i._ZN7Display5printEPcii) refers to main.o(i._Z10drawStringR7SSD1306Pcjj) for drawString(SSD1306&, char*, unsigned, unsigned)
    main.o(i._ZN7Display5printEdiii) refers to main.o(t._Z8printTmlIdEvR7SSD1306T_iii) for void printTml<double>(SSD1306&, T1, int, int, int)
    main.o(i._ZN7Display5printEfiii) refers to main.o(t._Z8printTmlIfEvR7SSD1306T_iii) for void printTml<float>(SSD1306&, T1, int, int, int)
    main.o(i._ZN7Display5printEiiii) refers to main.o(t._Z8printTmlIiEvR7SSD1306T_iii) for void printTml<int>(SSD1306&, T1, int, int, int)
    main.o(i._ZN7Display5printEjiii) refers to main.o(t._Z8printTmlIjEvR7SSD1306T_iii) for void printTml<unsigned>(SSD1306&, T1, int, int, int)
    main.o(i._ZN7Display5printExiii) refers to main.o(t._Z8printTmlIxEvR7SSD1306T_iii) for void printTml<long long>(SSD1306&, T1, int, int, int)
    main.o(i._ZN7Display5printEyiii) refers to main.o(t._Z8printTmlIyEvR7SSD1306T_iii) for void printTml<unsigned long long>(SSD1306&, T1, int, int, int)
    main.o(i._ZN9PairSaver3addESt4pairIddEj) refers to main.o(t._ZNSt4pairIddEC1ERKS0_) for std::pair<double, double>::pair(const std::pair<double, double>&)
    main.o(i._ZN9PairSaver3addESt4pairIddEj) refers to main.o(t._ZNSt5dequeISt4pairIS0_IddEjESaIS2_EE9push_backERKS2_) for std::deque<std::pair<std::pair<double, double>, unsigned>, std::allocator<std::pair<std::pair<double, double>, unsigned>>>::push_back(const std::pair<std::pair<double, double>, unsigned>&)
    main.o(i._ZN9PairSaver3popEj) refers to main.o(t._ZNSt5dequeISt4pairIS0_IddEjESaIS2_EE9pop_frontEv) for std::deque<std::pair<std::pair<double, double>, unsigned>, std::allocator<std::pair<std::pair<double, double>, unsigned>>>::pop_front()
    main.o(i._ZN9PairSaver3popEj) refers to main.o(t._ZNSt5queueISt4pairIS0_IddEjESt5dequeIS2_SaIS2_EEE5frontEv) for std::queue<std::pair<std::pair<double, double>, unsigned>, std::deque<std::pair<std::pair<double, double>, unsigned>, std::allocator<std::pair<std::pair<double, double>, unsigned>>>>::front()
    main.o(i._ZN9PairSaver3popEj) refers to main.o(t._ZNSt4pairIddEC1ERKS0_) for std::pair<double, double>::pair(const std::pair<double, double>&)
    main.o(i.__sti___8_main_cpp_48fb3d7c) refers to main.o(i._ZN6CameraC1Ev) for Camera::Camera()
    main.o(i.__sti___8_main_cpp_48fb3d7c) refers to aeabi_vec_ctor_nocookie_nodtor.o(i.__aeabi_vec_ctor_nocookie_nodtor) for __aeabi_vec_ctor_nocookie_nodtor
    main.o(i.__sti___8_main_cpp_48fb3d7c) refers to ssd1306.o(i._ZN7SSD1306C1Ev) for SSD1306::SSD1306()
    main.o(i.__sti___8_main_cpp_48fb3d7c) refers to stm32f407_adc.o(i._ZN6PL_ADCC1EP11ADC_TypeDef) for PL_ADC::PL_ADC(ADC_TypeDef*)
    main.o(i.__sti___8_main_cpp_48fb3d7c) refers to main.o(t._ZNSt4pairIddEC1Ev) for std::pair<double, double>::pair()
    main.o(i.__sti___8_main_cpp_48fb3d7c) refers to main.o(.bss) for .bss
    main.o(i.__sti___8_main_cpp_48fb3d7c) refers to main.o(i._ZN6DriverC1Ev) for Driver::Driver()
    main.o(i.__sti___8_main_cpp_48fb3d7c) refers to main.o(i._ZN6ScreenC1Ev) for Screen::Screen()
    main.o(i.__sti___8_main_cpp_48fb3d7c) refers to main.o(i._ZN7Buttons12ButtonStructC1Ev) for Buttons::ButtonStruct::ButtonStruct()
    main.o(i.__sti___8_main_cpp_48fb3d7c) refers to main.o(.data) for .data
    main.o(i.main) refers to stm32f407_sysfunc.o(i._Z8sysStartv) for sysStart()
    main.o(i.main) refers to main.o(i._ZN5Robot4initEv) for Robot::init()
    main.o(i.main) refers to main.o(i._Z12setupScreensv) for setupScreens()
    main.o(i.main) refers to stm32f407_uart.o(i._Z12writeStrUARTjPc) for writeStrUART(unsigned, char*)
    main.o(i.main) refers to stm32f407_sysfunc.o(i._Z6millisv) for millis()
    main.o(i.main) refers to main.o(t._ZNSt4pairIiiEC1Ev) for std::pair<int, int>::pair()
    main.o(i.main) refers to main.o(i._ZN9PairSaverC1Ev) for PairSaver::PairSaver()
    main.o(i.main) refers to main.o(t._ZNSt4pairIddEC1Ev) for std::pair<double, double>::pair()
    main.o(i.main) refers to main.o(i._ZN12CameraObjectC1Ev) for CameraObject::CameraObject()
    main.o(i.main) refers to main.o(i._ZN12MotorDrivers13disableMotorsEv) for MotorDrivers::disableMotors()
    main.o(i.main) refers to main.o(t._Z4min2IiET_S0_S0_) for T1 min2<int>(T1, T1)
    main.o(i.main) refers to main.o(i._Z10drawStringR7SSD1306Pcjj) for drawString(SSD1306&, char*, unsigned, unsigned)
    main.o(i.main) refers to main.o(i._ZN5Robot12setPlayStateEb) for Robot::setPlayState(bool)
    main.o(i.main) refers to main.o(i._ZN7Buttons9isChangedEib) for Buttons::isChanged(int, bool)
    main.o(i.main) refers to main.o(i._ZN5Robot15changePlayStateEv) for Robot::changePlayState()
    main.o(i.main) refers to main.o(i._ZN3IMU12setZeroAngleEv) for IMU::setZeroAngle()
    main.o(i.main) refers to main.o(i._ZN5Robot9playStateEv) for Robot::playState()
    main.o(i.main) refers to main.o(i._Z16clb_screenToMainv) for clb_screenToMain()
    main.o(i.main) refers to main.o(i._ZN7Display5printEPcii) for Display::print(char*, int, int)
    main.o(i.main) refers to main.o(i._ZN3IMU8getAngleEv) for IMU::getAngle()
    main.o(i.main) refers to main.o(i._ZN7Display5printEdiii) for Display::print(double, int, int, int)
    main.o(i.main) refers to main.o(i._ZN11LineSensors7getLineEv) for LineSensors::getLine()
    main.o(i.main) refers to main.o(i._ZN7Display5printEiiii) for Display::print(int, int, int, int)
    main.o(i.main) refers to stm32f407_adc.o(i._ZN6PL_ADC4readEab) for PL_ADC::read(signed char, bool)
    main.o(i.main) refers to main.o(i._ZN7Display5printEjiii) for Display::print(unsigned, int, int, int)
    main.o(i.main) refers to main.o(i._ZN10BallSensor8getValueEv) for BallSensor::getValue()
    main.o(i.main) refers to main.o(i._ZN7Battery14getCellVoltageEi) for Battery::getCellVoltage(int)
    main.o(i.main) refers to main.o(i._ZN7Buttons6enableEv) for Buttons::enable()
    main.o(i.main) refers to main.o(i._ZN7Battery13getPercentageEv) for Battery::getPercentage()
    main.o(i.main) refers to dfix.o(x$fpl$dfix) for __aeabi_d2iz
    main.o(i.main) refers to main.o(i._ZN7Battery10getVoltageEv) for Battery::getVoltage()
    main.o(i.main) refers to dleqf.o(x$fpl$dleqf) for __aeabi_cdcmple
    main.o(i.main) refers to ssd1306.o(i._ZN7SSD13067displayEv) for SSD1306::display()
    main.o(i.main) refers to ssd1306.o(i._ZN7SSD13065clearEv) for SSD1306::clear()
    main.o(i.main) refers to main.o(i._ZN7Buttons7disableEv) for Buttons::disable()
    main.o(i.main) refers to main.o(.bss) for .bss
    main.o(i.main) refers to main.o(.data) for .data
    main.o(i.main) refers to main.o(.constdata__ZZN7Display6updateEvEs) for Display::update()::string
    main.o(.ARM.exidx) refers to main.o(i._Z6rotateSt4pairIddEd) for i._Z6rotateSt4pairIddEd
    main.o(.ARM.exidx) refers to main.o(i._Z13symbolToIndexc) for i._Z13symbolToIndexc
    main.o(.ARM.exidx) refers to main.o(i._Z8drawCharR7SSD1306cjj) for i._Z8drawCharR7SSD1306cjj
    main.o(.ARM.exidx) refers to main.o(i._Z10drawStringR7SSD1306Pcjj) for i._Z10drawStringR7SSD1306Pcjj
    main.o(.ARM.exidx) refers to main.o(i._Z15defaultCallbackv) for i._Z15defaultCallbackv
    main.o(.ARM.exidx) refers to main.o(i._Z13clb_doNothingv) for i._Z13clb_doNothingv
    main.o(.ARM.exidx) refers to main.o(i._Z17clb_screenToEmptyv) for i._Z17clb_screenToEmptyv
    main.o(.ARM.exidx) refers to main.o(i._ZN6Driver5writeEPccc) for i._ZN6Driver5writeEPccc
    main.o(.ARM.exidx) refers to main.o(i._ZN6Driver14enableFloatingEv) for i._ZN6Driver14enableFloatingEv
    main.o(.ARM.exidx) refers to main.o(i._ZN12MotorDrivers13disableMotorsEv) for i._ZN12MotorDrivers13disableMotorsEv
    main.o(.ARM.exidx) refers to main.o(i._ZN11LineSensors14turnOffSensorsEv) for i._ZN11LineSensors14turnOffSensorsEv
    main.o(.ARM.exidx) refers to main.o(i._ZN5Robot11switch5vOffEv) for i._ZN5Robot11switch5vOffEv
    main.o(.ARM.exidx) refers to main.o(i._Z16clb_screenToMainv) for i._Z16clb_screenToMainv
    main.o(.ARM.exidx) refers to main.o(i._ZN7Buttons10setChangedEib) for i._ZN7Buttons10setChangedEib
    main.o(.ARM.exidx) refers to main.o(i._ZN11LineSensors13turnOnSensorsEv) for i._ZN11LineSensors13turnOnSensorsEv
    main.o(.ARM.exidx) refers to main.o(i._ZN5Robot10switch5vOnEv) for i._ZN5Robot10switch5vOnEv
    main.o(.ARM.exidx) refers to main.o(i._ZN6Driver15disableFloatingEv) for i._ZN6Driver15disableFloatingEv
    main.o(.ARM.exidx) refers to main.o(i._ZN12MotorDrivers12enableMotorsEv) for i._ZN12MotorDrivers12enableMotorsEv
    main.o(.ARM.exidx) refers to main.o(i._Z16clb_screenToGamev) for i._Z16clb_screenToGamev
    main.o(.ARM.exidx) refers to main.o(i._Z24clb_screenToCalibrationsv) for i._Z24clb_screenToCalibrationsv
    main.o(.ARM.exidx) refers to main.o(i._ZN3IMU9calibrateEj) for i._ZN3IMU9calibrateEj
    main.o(.ARM.exidx) refers to main.o(i._Z12clb_imuCalibv) for i._Z12clb_imuCalibv
    main.o(.ARM.exidx) refers to main.o(i._ZN3IMU20updateAnglesFromFIFOEv) for i._ZN3IMU20updateAnglesFromFIFOEv
    main.o(.ARM.exidx) refers to main.o(i._ZN3IMU6updateEv) for i._ZN3IMU6updateEv
    main.o(.ARM.exidx) refers to main.o(i._ZN3IMU12setZeroAngleEv) for i._ZN3IMU12setZeroAngleEv
    main.o(.ARM.exidx) refers to main.o(i._Z12clb_imuSetupv) for i._Z12clb_imuSetupv
    main.o(.ARM.exidx) refers to main.o(i._Z17clb_imu_pnc_clearv) for i._Z17clb_imu_pnc_clearv
    main.o(.ARM.exidx) refers to main.o(i._Z17clb_imu_pnc_startv) for i._Z17clb_imu_pnc_startv
    main.o(.ARM.exidx) refers to main.o(i._Z35clb_screenToLightSensorsCalibrationv) for i._Z35clb_screenToLightSensorsCalibrationv
    main.o(.ARM.exidx) refers to main.o(i._ZN11LineSensors20beginLineCalibrationEv) for i._ZN11LineSensors20beginLineCalibrationEv
    main.o(.ARM.exidx) refers to main.o(i._Z20clb_beginLightsCalibv) for i._Z20clb_beginLightsCalibv
    main.o(.ARM.exidx) refers to main.o(i._ZN11LineSensors18endLineCalibrationEv) for i._ZN11LineSensors18endLineCalibrationEv
    main.o(.ARM.exidx) refers to main.o(i._Z18clb_endLightsCalibv) for i._Z18clb_endLightsCalibv
    main.o(.ARM.exidx) refers to main.o(i._Z19clb_turnOnBackLightv) for i._Z19clb_turnOnBackLightv
    main.o(.ARM.exidx) refers to main.o(i._Z20clb_turnOffBackLightv) for i._Z20clb_turnOffBackLightv
    main.o(.ARM.exidx) refers to main.o(i._Z21clb_screenToDebugDatav) for i._Z21clb_screenToDebugDatav
    main.o(.ARM.exidx) refers to main.o(i._Z20clb_screenToDribblerv) for i._Z20clb_screenToDribblerv
    main.o(.ARM.exidx) refers to main.o(i._ZN6Driver11setVelocityEi) for i._ZN6Driver11setVelocityEi
    main.o(.ARM.exidx) refers to main.o(i._ZN12MotorDrivers8setMotorEii) for i._ZN12MotorDrivers8setMotorEii
    main.o(.ARM.exidx) refers to main.o(i._ZN12MotorDrivers11setDribblerEi) for i._ZN12MotorDrivers11setDribblerEi
    main.o(.ARM.exidx) refers to main.o(i._Z16clb_dribblerInOnv) for i._Z16clb_dribblerInOnv
    main.o(.ARM.exidx) refers to main.o(i._Z17clb_dribblerOutOnv) for i._Z17clb_dribblerOutOnv
    main.o(.ARM.exidx) refers to main.o(i._Z15clb_dribblerOffv) for i._Z15clb_dribblerOffv
    main.o(.ARM.exidx) refers to main.o(i._Z18clb_screenToKickerv) for i._Z18clb_screenToKickerv
    main.o(.ARM.exidx) refers to main.o(i._ZN12KickerModule4kickEbb) for i._ZN12KickerModule4kickEbb
    main.o(.ARM.exidx) refers to main.o(i._Z16clb_kickStraightv) for i._Z16clb_kickStraightv
    main.o(.ARM.exidx) refers to main.o(i._Z9clb_kick1v) for i._Z9clb_kick1v
    main.o(.ARM.exidx) refers to main.o(i._Z9clb_kick2v) for i._Z9clb_kick2v
    main.o(.ARM.exidx) refers to main.o(i._Z19clb_toBatteryScreenv) for i._Z19clb_toBatteryScreenv
    main.o(.ARM.exidx) refers to main.o(i._Z12updateKalmanR12CameraObjectdSt4pairIddES2_d) for i._Z12updateKalmanR12CameraObjectdSt4pairIddES2_d
    main.o(.ARM.exidx) refers to main.o(i._Z16updatePredictionR12CameraObjectSt4pairIddES2_d) for i._Z16updatePredictionR12CameraObjectSt4pairIddES2_d
    main.o(.ARM.exidx) refers to main.o(i._ZN7Display5printEPcii) for i._ZN7Display5printEPcii
    main.o(.ARM.exidx) refers to main.o(i._ZN7Battery10getVoltageEv) for i._ZN7Battery10getVoltageEv
    main.o(.ARM.exidx) refers to main.o(i._ZN7Battery13getPercentageEv) for i._ZN7Battery13getPercentageEv
    main.o(.ARM.exidx) refers to main.o(i._ZN7Display5printEiiii) for i._ZN7Display5printEiiii
    main.o(.ARM.exidx) refers to main.o(i._ZN7Buttons6enableEv) for i._ZN7Buttons6enableEv
    main.o(.ARM.exidx) refers to main.o(i._ZN7Buttons7disableEv) for i._ZN7Buttons7disableEv
    main.o(.ARM.exidx) refers to main.o(i._ZN7Battery14getCellVoltageEi) for i._ZN7Battery14getCellVoltageEi
    main.o(.ARM.exidx) refers to main.o(i._ZN7Display5printEdiii) for i._ZN7Display5printEdiii
    main.o(.ARM.exidx) refers to main.o(i._ZN10BallSensor8getValueEv) for i._ZN10BallSensor8getValueEv
    main.o(.ARM.exidx) refers to main.o(i._ZN7Display5printEjiii) for i._ZN7Display5printEjiii
    main.o(.ARM.exidx) refers to main.o(i._ZN3IMU8getAngleEv) for i._ZN3IMU8getAngleEv
    main.o(.ARM.exidx) refers to main.o(i._ZN11LineSensors7getLineEv) for i._ZN11LineSensors7getLineEv
    main.o(.ARM.exidx) refers to main.o(i._ZN5Robot9playStateEv) for i._ZN5Robot9playStateEv
    main.o(.ARM.exidx) refers to main.o(i._ZN5Robot12setPlayStateEb) for i._ZN5Robot12setPlayStateEb
    main.o(.ARM.exidx) refers to main.o(i._ZN5Robot15changePlayStateEv) for i._ZN5Robot15changePlayStateEv
    main.o(.ARM.exidx) refers to main.o(i._ZN7Buttons9isChangedEib) for i._ZN7Buttons9isChangedEib
    main.o(.ARM.exidx) refers to main.o(i._Z12setupScreensv) for i._Z12setupScreensv
    main.o(.ARM.exidx) refers to main.o(i._ZN10BallSensor6updateEv) for i._ZN10BallSensor6updateEv
    main.o(.ARM.exidx) refers to main.o(i._ZN10BallSensor6turnOnEv) for i._ZN10BallSensor6turnOnEv
    main.o(.ARM.exidx) refers to main.o(i._ZN10BallSensor4initEP6PL_ADCtt) for i._ZN10BallSensor4initEP6PL_ADCtt
    main.o(.ARM.exidx) refers to main.o(i._ZN7Battery8readCellEi) for i._ZN7Battery8readCellEi
    main.o(.ARM.exidx) refers to main.o(i._ZN7Battery6updateEv) for i._ZN7Battery6updateEv
    main.o(.ARM.exidx) refers to main.o(i._ZN7Battery4initEP6PL_ADCtttt) for i._ZN7Battery4initEP6PL_ADCtttt
    main.o(.ARM.exidx) refers to main.o(i._ZN12KickerModule4initEtttt) for i._ZN12KickerModule4initEtttt
    main.o(.ARM.exidx) refers to main.o(i._ZN6Camera4initEjt) for i._ZN6Camera4initEjt
    main.o(.ARM.exidx) refers to main.o(i._ZN11LineSensors4initEjt) for i._ZN11LineSensors4initEjt
    main.o(.ARM.exidx) refers to main.o(i._ZN6Driver4initEcc) for i._ZN6Driver4initEcc
    main.o(.ARM.exidx) refers to main.o(i._ZN12MotorDrivers4initEjhjhjhjhjh) for i._ZN12MotorDrivers4initEjhjhjhjhjh
    main.o(.ARM.exidx) refers to main.o(i._ZN3IMU6turnOnEv) for i._ZN3IMU6turnOnEv
    main.o(.ARM.exidx) refers to main.o(i._ZN3IMU4initEjtt) for i._ZN3IMU4initEjtt
    main.o(.ARM.exidx) refers to main.o(i._ZN7Buttons6updateEv) for i._ZN7Buttons6updateEv
    main.o(.ARM.exidx) refers to main.o(i._ZN7Buttons4initEtttt) for i._ZN7Buttons4initEtttt
    main.o(.ARM.exidx) refers to main.o(i._ZN5Robot8initLEDsEv) for i._ZN5Robot8initLEDsEv
    main.o(.ARM.exidx) refers to main.o(i._ZN5Robot12swithPowerOnEv) for i._ZN5Robot12swithPowerOnEv
    main.o(.ARM.exidx) refers to main.o(i._ZN5Robot4initEv) for i._ZN5Robot4initEv
    main.o(.ARM.exidx) refers to main.o(i.main) for i.main
    main.o(.ARM.exidx) refers to main.o(i._ZN12KickerModule15switchOnBoosterEv) for i._ZN12KickerModule15switchOnBoosterEv
    main.o(.ARM.exidx) refers to main.o(i._ZN12KickerModule16switchOffBoosterEv) for i._ZN12KickerModule16switchOffBoosterEv
    main.o(.ARM.exidx) refers to main.o(i._ZN11LineSensors6updateEv) for i._ZN11LineSensors6updateEv
    main.o(.ARM.exidx) refers to main.o(i._ZN6CameraC1Ev) for i._ZN6CameraC1Ev
    main.o(.ARM.exidx) refers to main.o(i._ZN6Camera6updateEv) for i._ZN6Camera6updateEv
    main.o(.ARM.exidx) refers to main.o(i._ZN10BallSensor7turnOffEv) for i._ZN10BallSensor7turnOffEv
    main.o(.ARM.exidx) refers to main.o(i._ZN6DriverC1Ev) for i._ZN6DriverC1Ev
    main.o(.ARM.exidx) refers to main.o(i._ZN6Driver13updateFromRegEv) for i._ZN6Driver13updateFromRegEv
    main.o(.ARM.exidx) refers to main.o(i._ZN6Driver11attemptTempEv) for i._ZN6Driver11attemptTempEv
    main.o(.ARM.exidx) refers to main.o(i._ZN6Driver15attemptVelocityEv) for i._ZN6Driver15attemptVelocityEv
    main.o(.ARM.exidx) refers to main.o(i._ZN6Driver14attemptVoltageEv) for i._ZN6Driver14attemptVoltageEv
    main.o(.ARM.exidx) refers to main.o(i._ZN6Driver14attemptCurrentEv) for i._ZN6Driver14attemptCurrentEv
    main.o(.ARM.exidx) refers to main.o(i._ZN6Driver7isWorksEv) for i._ZN6Driver7isWorksEv
    main.o(.ARM.exidx) refers to main.o(i._ZN12MotorDrivers9setMotorsEiiii) for i._ZN12MotorDrivers9setMotorsEiiii
    main.o(.ARM.exidx) refers to main.o(i._ZN12MotorDrivers9setMotorsEiiiii) for i._ZN12MotorDrivers9setMotorsEiiiii
    main.o(.ARM.exidx) refers to main.o(i._ZN12MotorDrivers6updateEv) for i._ZN12MotorDrivers6updateEv
    main.o(.ARM.exidx) refers to main.o(i._ZN12MotorDrivers14attemptCurrentEv) for i._ZN12MotorDrivers14attemptCurrentEv
    main.o(.ARM.exidx) refers to main.o(i._ZN7Display5printExiii) for i._ZN7Display5printExiii
    main.o(.ARM.exidx) refers to main.o(i._ZN7Display5printEyiii) for i._ZN7Display5printEyiii
    main.o(.ARM.exidx) refers to main.o(i._ZN7Display5printEfiii) for i._ZN7Display5printEfiii
    main.o(.ARM.exidx) refers to main.o(i._ZN3IMU7turnOffEv) for i._ZN3IMU7turnOffEv
    main.o(.ARM.exidx) refers to main.o(i._ZN7Buttons9isPressedEi) for i._ZN7Buttons9isPressedEi
    main.o(.ARM.exidx) refers to main.o(i._ZN5Robot13swithPowerOffEv) for i._ZN5Robot13swithPowerOffEv
    main.o(.ARM.exidx) refers to main.o(i._ZN5Robot4moveEddddd) for i._ZN5Robot4moveEddddd
    main.o(.ARM.exidx) refers to main.o(i._ZN5Robot10updateMenuEv) for i._ZN5Robot10updateMenuEv
    main.o(.ARM.exidx) refers to main.o(i._ZN5Robot13updateSelfPosESt4pairIddES1_) for i._ZN5Robot13updateSelfPosESt4pairIddES1_
    main.o(.ARM.exidx) refers to main.o(i._ZN5Robot6getPosEv) for i._ZN5Robot6getPosEv
    main.o(.ARM.exidx) refers to main.o(i._ZN5Robot4getVEv) for i._ZN5Robot4getVEv
    main.o(.ARM.exidx) refers to main.o(i._ZN5Robot9logErrorsEv) for i._ZN5Robot9logErrorsEv
    main.o(.ARM.exidx) refers to main.o(i._ZN5Robot12handleErrorsEv) for i._ZN5Robot12handleErrorsEv
    main.o(.ARM.exidx) refers to main.o(i._ZN5Robot4waitEj) for i._ZN5Robot4waitEj
    main.o(.ARM.exidx) refers to main.o(i._ZN9PairSaver3addESt4pairIddEj) for i._ZN9PairSaver3addESt4pairIddEj
    main.o(.ARM.exidx) refers to main.o(i._ZN9PairSaver3popEj) for i._ZN9PairSaver3popEj
    main.o(.ARM.exidx) refers to main.o(i._ZN14BaseFunctional13dribblerSpeedEa) for i._ZN14BaseFunctional13dribblerSpeedEa
    main.o(.ARM.exidx) refers to main.o(i._ZN14BaseFunctional6turnRCE14RobotParametrsaaa) for i._ZN14BaseFunctional6turnRCE14RobotParametrsaaa
    main.o(.ARM.exidx) refers to main.o(i._ZN14BaseFunctional9turnCoordEdssRsS0_) for i._ZN14BaseFunctional9turnCoordEdssRsS0_
    main.o(.ARM.exidx) refers to main.o(i._ZN14BaseFunctional8setAngleE14RobotParametrsa) for i._ZN14BaseFunctional8setAngleE14RobotParametrsa
    main.o(.ARM.exidx) refers to main.o(i._ZN14BaseFunctional9checkBallEv) for i._ZN14BaseFunctional9checkBallEv
    main.o(.ARM.exidx) refers to main.o(i._ZN14BaseFunctional5move2E12VectorToMoved) for i._ZN14BaseFunctional5move2E12VectorToMoved
    main.o(.ARM.exidx) refers to main.o(i._ZN14BaseFunctional11genATMPointEssa) for i._ZN14BaseFunctional11genATMPointEssa
    main.o(.ARM.exidx) refers to main.o(i._ZN14BaseFunctional14genATMVecFieldEss) for i._ZN14BaseFunctional14genATMVecFieldEss
    main.o(.ARM.exidx) refers to main.o(i.__sti___8_main_cpp_48fb3d7c) for i.__sti___8_main_cpp_48fb3d7c
    main.o(.init_array) refers to main.o(i.__sti___8_main_cpp_48fb3d7c) for __sti___8_main_cpp_48fb3d7c
    main.o(.init_array) refers to init_aeabi.o(.text) for __cpp_initialize__aeabi_
    startup_stm32f40xx.o(STACK) refers (Special) to heapauxi.o(.text) for __use_two_region_memory
    startup_stm32f40xx.o(HEAP) refers (Special) to heapauxi.o(.text) for __use_two_region_memory
    startup_stm32f40xx.o(RESET) refers (Special) to heapauxi.o(.text) for __use_two_region_memory
    startup_stm32f40xx.o(RESET) refers to startup_stm32f40xx.o(STACK) for __initial_sp
    startup_stm32f40xx.o(RESET) refers to startup_stm32f40xx.o(.text) for Reset_Handler
    startup_stm32f40xx.o(RESET) refers to stm32f407_spi.o(i.SPI1_IRQHandler) for SPI1_IRQHandler
    startup_stm32f40xx.o(RESET) refers to stm32f407_spi.o(i.SPI2_IRQHandler) for SPI2_IRQHandler
    startup_stm32f40xx.o(RESET) refers to stm32f407_uart.o(i.USART1_IRQHandler) for USART1_IRQHandler
    startup_stm32f40xx.o(RESET) refers to stm32f407_uart.o(i.USART2_IRQHandler) for USART2_IRQHandler
    startup_stm32f40xx.o(RESET) refers to stm32f407_uart.o(i.USART3_IRQHandler) for USART3_IRQHandler
    startup_stm32f40xx.o(RESET) refers to stm32f407_spi.o(i.SPI3_IRQHandler) for SPI3_IRQHandler
    startup_stm32f40xx.o(RESET) refers to stm32f407_uart.o(i.UART4_IRQHandler) for UART4_IRQHandler
    startup_stm32f40xx.o(RESET) refers to stm32f407_uart.o(i.UART5_IRQHandler) for UART5_IRQHandler
    startup_stm32f40xx.o(RESET) refers to stm32f407_sysfunc.o(i.TIM7_IRQHandler) for TIM7_IRQHandler
    startup_stm32f40xx.o(RESET) refers to stm32f407_uart.o(i.USART6_IRQHandler) for USART6_IRQHandler
    startup_stm32f40xx.o(.text) refers (Special) to heapauxi.o(.text) for __use_two_region_memory
    startup_stm32f40xx.o(.text) refers to system_stm32f4xx.o(i.SystemInit) for SystemInit
    startup_stm32f40xx.o(.text) refers to __main.o(!!!main) for __main
    startup_stm32f40xx.o(.text) refers to startup_stm32f40xx.o(HEAP) for Heap_Mem
    startup_stm32f40xx.o(.text) refers to startup_stm32f40xx.o(STACK) for Stack_Mem
    stm32f407_pin.o(i._Z7initPinP12GPIO_TypeDefthhh) refers to dflt_clz.o(x$fpl$dfltu) for __aeabi_ui2d
    stm32f407_pin.o(i._Z7initPinP12GPIO_TypeDefthhh) refers to pow.o(i.__hardfp_pow) for __hardfp_pow
    stm32f407_pin.o(i._Z7initPinP12GPIO_TypeDefthhh) refers to dfixu.o(x$fpl$dfixu) for __aeabi_d2uiz
    stm32f407_pin.o(.ARM.exidx) refers to stm32f407_pin.o(i._Z7initPinP12GPIO_TypeDefthhh) for i._Z7initPinP12GPIO_TypeDefthhh
    stm32f407_adc.o(i._ZN6PL_ADC3addEa) refers to stm32f407_pin.o(i._Z7initPinP12GPIO_TypeDefthhh) for initPin(GPIO_TypeDef*, unsigned short, unsigned char, unsigned char, unsigned char)
    stm32f407_adc.o(i._ZN6PL_ADC3addEa) refers to stm32f407_adc.o(.constdata) for .constdata
    stm32f407_adc.o(i._ZN6PL_ADC4readEab) refers to stm32f407_adc.o(i._ZN6PL_ADC10waitUpdateEv) for PL_ADC::waitUpdate()
    stm32f407_adc.o(.ARM.exidx) refers to stm32f407_adc.o(i._ZN6PL_ADCC1EP11ADC_TypeDef) for i._ZN6PL_ADCC1EP11ADC_TypeDef
    stm32f407_adc.o(.ARM.exidx) refers to stm32f407_adc.o(i._ZN6PL_ADC10waitUpdateEv) for i._ZN6PL_ADC10waitUpdateEv
    stm32f407_adc.o(.ARM.exidx) refers to stm32f407_adc.o(i._ZN6PL_ADC4readEab) for i._ZN6PL_ADC4readEab
    stm32f407_adc.o(.ARM.exidx) refers to stm32f407_adc.o(i._ZN6PL_ADC3addEa) for i._ZN6PL_ADC3addEa
    stm32f407_adc.o(.ARM.exidx) refers to stm32f407_adc.o(i._ZN6PL_ADC4initEv) for i._ZN6PL_ADC4initEv
    stm32f407_adc.o(.ARM.exidx) refers to stm32f407_adc.o(i._ZN6PL_ADC5startEv) for i._ZN6PL_ADC5startEv
    stm32f407_adc.o(.ARM.exidx) refers to stm32f407_adc.o(i._ZN6PL_ADC4stopEv) for i._ZN6PL_ADC4stopEv
    stm32f407_pwm.o(i._Z6setPWMjhj) refers to stm32f407_pwm.o(.bss) for .bss
    stm32f407_pwm.o(i._Z7initPWMjhti) refers to stm32f407_pin.o(i._Z7initPinP12GPIO_TypeDefthhh) for initPin(GPIO_TypeDef*, unsigned short, unsigned char, unsigned char, unsigned char)
    stm32f407_pwm.o(i._Z7initPWMjhti) refers to stm32f407_pwm.o(.bss) for .bss
    stm32f407_pwm.o(.ARM.exidx) refers to stm32f407_pwm.o(i._Z7initPWMjhti) for i._Z7initPWMjhti
    stm32f407_pwm.o(.ARM.exidx) refers to stm32f407_pwm.o(i._Z6setPWMjhj) for i._Z6setPWMjhj
    stm32f407_spi.o(i.SPI1_IRQHandler) refers to stm32f407_spi.o(i._Z19SPIInterruptHandlerj) for SPIInterruptHandler(unsigned)
    stm32f407_spi.o(i.SPI2_IRQHandler) refers to stm32f407_spi.o(i._Z19SPIInterruptHandlerj) for SPIInterruptHandler(unsigned)
    stm32f407_spi.o(i.SPI3_IRQHandler) refers to stm32f407_spi.o(i._Z19SPIInterruptHandlerj) for SPIInterruptHandler(unsigned)
    stm32f407_spi.o(i._Z12SPIAvailablej) refers to stm32f407_spi.o(.data) for .data
    stm32f407_spi.o(i._Z12readRxBufSPIj) refers to stm32f407_spi.o(.data) for .data
    stm32f407_spi.o(i._Z19SPIInterruptHandlerj) refers to stm32f407_spi.o(.data) for .data
    stm32f407_spi.o(i._Z7initSPIjbhtiiii) refers to stm32f407_spi.o(i._Z14NVIC_EnableIRQ4IRQn) for NVIC_EnableIRQ(IRQn)
    stm32f407_spi.o(i._Z7initSPIjbhtiiii) refers to main.o(i._Z7initPinthhh) for initPin(unsigned short, unsigned char, unsigned char, unsigned char)
    stm32f407_spi.o(i._Z7initSPIjbhtiiii) refers to stm32f407_spi.o(.data) for .data
    stm32f407_spi.o(.ARM.exidx) refers to stm32f407_spi.o(i._Z7initSPIjbhtiiii) for i._Z7initSPIjbhtiiii
    stm32f407_spi.o(.ARM.exidx) refers to stm32f407_spi.o(i._Z8writeSPIjt) for i._Z8writeSPIjt
    stm32f407_spi.o(.ARM.exidx) refers to stm32f407_spi.o(i._Z13writeTxBufSPIjt) for i._Z13writeTxBufSPIjt
    stm32f407_spi.o(.ARM.exidx) refers to stm32f407_spi.o(i._Z12readRxBufSPIj) for i._Z12readRxBufSPIj
    stm32f407_spi.o(.ARM.exidx) refers to stm32f407_spi.o(i._Z12SPIAvailablej) for i._Z12SPIAvailablej
    stm32f407_spi.o(.ARM.exidx) refers to stm32f407_spi.o(i._Z19SPIInterruptHandlerj) for i._Z19SPIInterruptHandlerj
    stm32f407_spi.o(.ARM.exidx) refers to stm32f407_spi.o(i.SPI1_IRQHandler) for i.SPI1_IRQHandler
    stm32f407_spi.o(.ARM.exidx) refers to stm32f407_spi.o(i.SPI2_IRQHandler) for i.SPI2_IRQHandler
    stm32f407_spi.o(.ARM.exidx) refers to stm32f407_spi.o(i.SPI3_IRQHandler) for i.SPI3_IRQHandler
    stm32f407_spi.o(.ARM.exidx) refers to stm32f407_spi.o(i._Z14NVIC_EnableIRQ4IRQn) for i._Z14NVIC_EnableIRQ4IRQn
    stm32f407_sysfunc.o(i.TIM7_IRQHandler) refers to stm32f407_sysfunc.o(.data) for .data
    stm32f407_sysfunc.o(i._Z11delayMicrosj) refers to stm32f407_sysfunc.o(i._Z6microsv) for micros()
    stm32f407_sysfunc.o(i._Z5delayj) refers to stm32f407_sysfunc.o(i._Z6millisv) for millis()
    stm32f407_sysfunc.o(i._Z6microsv) refers to stm32f407_sysfunc.o(.data) for .data
    stm32f407_sysfunc.o(i._Z6millisv) refers to stm32f407_sysfunc.o(.data) for .data
    stm32f407_sysfunc.o(i._Z8sysStartv) refers to stm32f407_sysfunc.o(i._Z7initRCCv) for initRCC()
    stm32f407_sysfunc.o(.ARM.exidx) refers to stm32f407_sysfunc.o(i._Z7initRCCv) for i._Z7initRCCv
    stm32f407_sysfunc.o(.ARM.exidx) refers to stm32f407_sysfunc.o(i._Z8sysStartv) for i._Z8sysStartv
    stm32f407_sysfunc.o(.ARM.exidx) refers to stm32f407_sysfunc.o(i._Z6millisv) for i._Z6millisv
    stm32f407_sysfunc.o(.ARM.exidx) refers to stm32f407_sysfunc.o(i._Z6microsv) for i._Z6microsv
    stm32f407_sysfunc.o(.ARM.exidx) refers to stm32f407_sysfunc.o(i._Z5delayj) for i._Z5delayj
    stm32f407_sysfunc.o(.ARM.exidx) refers to stm32f407_sysfunc.o(i._Z11delayMicrosj) for i._Z11delayMicrosj
    stm32f407_sysfunc.o(.ARM.exidx) refers to stm32f407_sysfunc.o(i.TIM7_IRQHandler) for i.TIM7_IRQHandler
    stm32f407_uart.o(i.UART4_IRQHandler) refers to stm32f407_uart.o(i._Z20UARTInterruptHandlerj) for UARTInterruptHandler(unsigned)
    stm32f407_uart.o(i.UART5_IRQHandler) refers to stm32f407_uart.o(i._Z20UARTInterruptHandlerj) for UARTInterruptHandler(unsigned)
    stm32f407_uart.o(i.USART1_IRQHandler) refers to stm32f407_uart.o(i._Z20UARTInterruptHandlerj) for UARTInterruptHandler(unsigned)
    stm32f407_uart.o(i.USART2_IRQHandler) refers to stm32f407_uart.o(i._Z20UARTInterruptHandlerj) for UARTInterruptHandler(unsigned)
    stm32f407_uart.o(i.USART3_IRQHandler) refers to stm32f407_uart.o(i._Z20UARTInterruptHandlerj) for UARTInterruptHandler(unsigned)
    stm32f407_uart.o(i.USART6_IRQHandler) refers to stm32f407_uart.o(i._Z20UARTInterruptHandlerj) for UARTInterruptHandler(unsigned)
    stm32f407_uart.o(i._Z11tryTransmitj) refers to stm32f407_uart.o(.data) for .data
    stm32f407_uart.o(i._Z11tryTransmitj) refers to stm32f407_uart.o(.bss) for .bss
    stm32f407_uart.o(i._Z12writeStrUARTjPc) refers to stm32f407_uart.o(i._Z9writeUARTjc) for writeUART(unsigned, char)
    stm32f407_uart.o(i._Z13UARTAvailablej) refers to stm32f407_uart.o(.data) for .data
    stm32f407_uart.o(i._Z17writeTrulyStrUARTjPcj) refers to stm32f407_uart.o(i._Z9writeUARTjc) for writeUART(unsigned, char)
    stm32f407_uart.o(i._Z20UARTInterruptHandlerj) refers to stm32f407_uart.o(i._Z11tryTransmitj) for tryTransmit(unsigned)
    stm32f407_uart.o(i._Z20UARTInterruptHandlerj) refers to stm32f407_uart.o(.data) for .data
    stm32f407_uart.o(i._Z20UARTInterruptHandlerj) refers to stm32f407_uart.o(.bss) for .bss
    stm32f407_uart.o(i._Z8initUARTjjhfhj) refers to stm32f407_pin.o(i._Z7initPinP12GPIO_TypeDefthhh) for initPin(GPIO_TypeDef*, unsigned short, unsigned char, unsigned char, unsigned char)
    stm32f407_uart.o(i._Z8initUARTjjhfhj) refers to stm32f407_uart.o(i._Z14NVIC_EnableIRQ4IRQn) for NVIC_EnableIRQ(IRQn)
    stm32f407_uart.o(i._Z8initUARTjjhfhj) refers to stm32f407_uart.o(.data) for .data
    stm32f407_uart.o(i._Z8initUARTjjhfhj) refers to stm32f407_uart.o(.bss) for .bss
    stm32f407_uart.o(i._Z8readUARTj) refers to stm32f407_uart.o(.data) for .data
    stm32f407_uart.o(i._Z8readUARTj) refers to stm32f407_uart.o(.bss) for .bss
    stm32f407_uart.o(i._Z9printUARTjc) refers to stm32f407_uart.o(i._Z9printUARTjm) for printUART(unsigned, unsigned long)
    stm32f407_uart.o(i._Z9printUARTjd) refers to dleqf.o(x$fpl$dleqf) for __aeabi_cdcmple
    stm32f407_uart.o(i._Z9printUARTjd) refers to stm32f407_uart.o(i._Z9writeUARTjc) for writeUART(unsigned, char)
    stm32f407_uart.o(i._Z9printUARTjd) refers to basic.o(x$fpl$basic) for __aeabi_dneg
    stm32f407_uart.o(i._Z9printUARTjd) refers to dfix.o(x$fpl$dfix) for __aeabi_d2iz
    stm32f407_uart.o(i._Z9printUARTjd) refers to stm32f407_uart.o(i._Z9printUARTji) for printUART(unsigned, int)
    stm32f407_uart.o(i._Z9printUARTjd) refers to dflt_clz.o(x$fpl$dflt) for __aeabi_i2d
    stm32f407_uart.o(i._Z9printUARTjd) refers to daddsub_clz.o(x$fpl$drsb) for __aeabi_drsub
    stm32f407_uart.o(i._Z9printUARTjd) refers to daddsub_clz.o(x$fpl$dadd) for __aeabi_dadd
    stm32f407_uart.o(i._Z9printUARTjd) refers to dmul.o(x$fpl$dmul) for __aeabi_dmul
    stm32f407_uart.o(i._Z9printUARTjf) refers to f2d.o(x$fpl$f2d) for __aeabi_f2d
    stm32f407_uart.o(i._Z9printUARTjf) refers to stm32f407_uart.o(i._Z9printUARTjd) for printUART(unsigned, double)
    stm32f407_uart.o(i._Z9printUARTji) refers to stm32f407_uart.o(i._Z9printUARTjl) for printUART(unsigned, long)
    stm32f407_uart.o(i._Z9printUARTjj) refers to stm32f407_uart.o(i._Z9printUARTjm) for printUART(unsigned, unsigned long)
    stm32f407_uart.o(i._Z9printUARTjl) refers to stm32f407_uart.o(i._Z9writeUARTjc) for writeUART(unsigned, char)
    stm32f407_uart.o(i._Z9printUARTjl) refers to stm32f407_uart.o(i._Z9printUARTjm) for printUART(unsigned, unsigned long)
    stm32f407_uart.o(i._Z9printUARTjm) refers to dflt_clz.o(x$fpl$dflt) for __aeabi_i2d
    stm32f407_uart.o(i._Z9printUARTjm) refers to pow.o(i.__hardfp_pow) for __hardfp_pow
    stm32f407_uart.o(i._Z9printUARTjm) refers to dfixu.o(x$fpl$dfixu) for __aeabi_d2uiz
    stm32f407_uart.o(i._Z9printUARTjm) refers to stm32f407_uart.o(i._Z9writeUARTjc) for writeUART(unsigned, char)
    stm32f407_uart.o(i._Z9writeUARTjc) refers to stm32f407_uart.o(i._Z11tryTransmitj) for tryTransmit(unsigned)
    stm32f407_uart.o(i._Z9writeUARTjc) refers to stm32f407_uart.o(.data) for .data
    stm32f407_uart.o(i._Z9writeUARTjc) refers to stm32f407_uart.o(.bss) for .bss
    stm32f407_uart.o(.ARM.exidx) refers to stm32f407_uart.o(i._Z8initUARTjjhfhj) for i._Z8initUARTjjhfhj
    stm32f407_uart.o(.ARM.exidx) refers to stm32f407_uart.o(i._Z11tryTransmitj) for i._Z11tryTransmitj
    stm32f407_uart.o(.ARM.exidx) refers to stm32f407_uart.o(i._Z9writeUARTjc) for i._Z9writeUARTjc
    stm32f407_uart.o(.ARM.exidx) refers to stm32f407_uart.o(i._Z12writeStrUARTjPc) for i._Z12writeStrUARTjPc
    stm32f407_uart.o(.ARM.exidx) refers to stm32f407_uart.o(i._Z17writeTrulyStrUARTjPcj) for i._Z17writeTrulyStrUARTjPcj
    stm32f407_uart.o(.ARM.exidx) refers to stm32f407_uart.o(i._Z13UARTAvailablej) for i._Z13UARTAvailablej
    stm32f407_uart.o(.ARM.exidx) refers to stm32f407_uart.o(i._Z14UARTTxFinishedj) for i._Z14UARTTxFinishedj
    stm32f407_uart.o(.ARM.exidx) refers to stm32f407_uart.o(i._Z8readUARTj) for i._Z8readUARTj
    stm32f407_uart.o(.ARM.exidx) refers to stm32f407_uart.o(i._Z20UARTInterruptHandlerj) for i._Z20UARTInterruptHandlerj
    stm32f407_uart.o(.ARM.exidx) refers to stm32f407_uart.o(i.USART1_IRQHandler) for i.USART1_IRQHandler
    stm32f407_uart.o(.ARM.exidx) refers to stm32f407_uart.o(i.USART2_IRQHandler) for i.USART2_IRQHandler
    stm32f407_uart.o(.ARM.exidx) refers to stm32f407_uart.o(i.USART3_IRQHandler) for i.USART3_IRQHandler
    stm32f407_uart.o(.ARM.exidx) refers to stm32f407_uart.o(i.UART4_IRQHandler) for i.UART4_IRQHandler
    stm32f407_uart.o(.ARM.exidx) refers to stm32f407_uart.o(i.UART5_IRQHandler) for i.UART5_IRQHandler
    stm32f407_uart.o(.ARM.exidx) refers to stm32f407_uart.o(i.USART6_IRQHandler) for i.USART6_IRQHandler
    stm32f407_uart.o(.ARM.exidx) refers to stm32f407_uart.o(i._Z9printUARTjm) for i._Z9printUARTjm
    stm32f407_uart.o(.ARM.exidx) refers to stm32f407_uart.o(i._Z9printUARTjc) for i._Z9printUARTjc
    stm32f407_uart.o(.ARM.exidx) refers to stm32f407_uart.o(i._Z9printUARTjl) for i._Z9printUARTjl
    stm32f407_uart.o(.ARM.exidx) refers to stm32f407_uart.o(i._Z9printUARTji) for i._Z9printUARTji
    stm32f407_uart.o(.ARM.exidx) refers to stm32f407_uart.o(i._Z9printUARTjj) for i._Z9printUARTjj
    stm32f407_uart.o(.ARM.exidx) refers to stm32f407_uart.o(i._Z9printUARTjd) for i._Z9printUARTjd
    stm32f407_uart.o(.ARM.exidx) refers to stm32f407_uart.o(i._Z9printUARTjf) for i._Z9printUARTjf
    stm32f407_uart.o(.ARM.exidx) refers to stm32f407_uart.o(i._Z14NVIC_EnableIRQ4IRQn) for i._Z14NVIC_EnableIRQ4IRQn
    ssd1306.o(i._ZN7SSD130610stopscrollEv) refers to ssd1306.o(i._ZN7SSD130615ssd1306_commandEh) for SSD1306::ssd1306_command(unsigned char)
    ssd1306.o(i._ZN7SSD130613drawFastHLineEssst) refers to ssd1306.o(.data) for .data
    ssd1306.o(i._ZN7SSD130613drawFastHLineEssst) refers to ssd1306.o(.data__ZZN7SSD130621drawFastVLineInternalEssstE7premask) for SSD1306::drawFastVLineInternal(short, short, short, unsigned short)::premask
    ssd1306.o(i._ZN7SSD130613drawFastHLineEssst) refers to ssd1306.o(.data__ZZN7SSD130621drawFastVLineInternalEssstE8postmask) for SSD1306::drawFastVLineInternal(short, short, short, unsigned short)::postmask
    ssd1306.o(i._ZN7SSD130613drawFastVLineEssst) refers to ssd1306.o(.data) for .data
    ssd1306.o(i._ZN7SSD130613drawFastVLineEssst) refers to ssd1306.o(.data__ZZN7SSD130621drawFastVLineInternalEssstE7premask) for SSD1306::drawFastVLineInternal(short, short, short, unsigned short)::premask
    ssd1306.o(i._ZN7SSD130613drawFastVLineEssst) refers to ssd1306.o(.data__ZZN7SSD130621drawFastVLineInternalEssstE8postmask) for SSD1306::drawFastVLineInternal(short, short, short, unsigned short)::postmask
    ssd1306.o(i._ZN7SSD130615ssd1306_commandEh) refers to main.o(i._Z6setPintb) for setPin(unsigned short, bool)
    ssd1306.o(i._ZN7SSD130615ssd1306_commandEh) refers to stm32f407_spi.o(i._Z8writeSPIjt) for writeSPI(unsigned, unsigned short)
    ssd1306.o(i._ZN7SSD130615startscrollleftEhh) refers to ssd1306.o(i._ZN7SSD130615ssd1306_commandEh) for SSD1306::ssd1306_command(unsigned char)
    ssd1306.o(i._ZN7SSD130616startscrollrightEhh) refers to ssd1306.o(i._ZN7SSD130615ssd1306_commandEh) for SSD1306::ssd1306_command(unsigned char)
    ssd1306.o(i._ZN7SSD130619startscrolldiagleftEhh) refers to ssd1306.o(i._ZN7SSD130615ssd1306_commandEh) for SSD1306::ssd1306_command(unsigned char)
    ssd1306.o(i._ZN7SSD130620startscrolldiagrightEhh) refers to ssd1306.o(i._ZN7SSD130615ssd1306_commandEh) for SSD1306::ssd1306_command(unsigned char)
    ssd1306.o(i._ZN7SSD13063dimEb) refers to ssd1306.o(i._ZN7SSD130615ssd1306_commandEh) for SSD1306::ssd1306_command(unsigned char)
    ssd1306.o(i._ZN7SSD13064drawEv) refers to ssd1306.o(i._ZN7SSD13067displayEv) for SSD1306::display()
    ssd1306.o(i._ZN7SSD13065beginEhb) refers to main.o(i._Z7initPinthhh) for initPin(unsigned short, unsigned char, unsigned char, unsigned char)
    ssd1306.o(i._ZN7SSD13065beginEhb) refers to stm32f407_spi.o(i._Z7initSPIjbhtiiii) for initSPI(unsigned, bool, unsigned char, unsigned short, int, int, int, int)
    ssd1306.o(i._ZN7SSD13065beginEhb) refers to main.o(i._Z6setPintb) for setPin(unsigned short, bool)
    ssd1306.o(i._ZN7SSD13065beginEhb) refers to stm32f407_sysfunc.o(i._Z5delayj) for delay(unsigned)
    ssd1306.o(i._ZN7SSD13065beginEhb) refers to ssd1306.o(i._ZN7SSD130615ssd1306_commandEh) for SSD1306::ssd1306_command(unsigned char)
    ssd1306.o(i._ZN7SSD13065clearEv) refers to rt_memclr.o(.text) for __aeabi_memclr
    ssd1306.o(i._ZN7SSD13065clearEv) refers to ssd1306.o(.data) for .data
    ssd1306.o(i._ZN7SSD13066invertEh) refers to ssd1306.o(i._ZN7SSD130615ssd1306_commandEh) for SSD1306::ssd1306_command(unsigned char)
    ssd1306.o(i._ZN7SSD13067displayEPh) refers to ssd1306.o(i._ZN7SSD130615ssd1306_commandEh) for SSD1306::ssd1306_command(unsigned char)
    ssd1306.o(i._ZN7SSD13067displayEPh) refers to main.o(i._Z6setPintb) for setPin(unsigned short, bool)
    ssd1306.o(i._ZN7SSD13067displayEPh) refers to stm32f407_spi.o(i._Z8writeSPIjt) for writeSPI(unsigned, unsigned short)
    ssd1306.o(i._ZN7SSD13067displayEv) refers to ssd1306.o(i._ZN7SSD130615ssd1306_commandEh) for SSD1306::ssd1306_command(unsigned char)
    ssd1306.o(i._ZN7SSD13067displayEv) refers to main.o(i._Z6setPintb) for setPin(unsigned short, bool)
    ssd1306.o(i._ZN7SSD13067displayEv) refers to stm32f407_spi.o(i._Z8writeSPIjt) for writeSPI(unsigned, unsigned short)
    ssd1306.o(i._ZN7SSD13067displayEv) refers to ssd1306.o(.data) for .data
    ssd1306.o(i._ZN7SSD13068switchOnEv) refers to main.o(i._Z6setPintb) for setPin(unsigned short, bool)
    ssd1306.o(i._ZN7SSD13069drawPixelEsst) refers to ssd1306.o(.data) for .data
    ssd1306.o(i._ZN7SSD13069switchOffEv) refers to main.o(i._Z6setPintb) for setPin(unsigned short, bool)
    ssd1306.o(i._ZN7SSD1306C1Ejtttttt) refers to main.o(i._Z7initPinthhh) for initPin(unsigned short, unsigned char, unsigned char, unsigned char)
    ssd1306.o(i._ZN7SSD1306C1Ejtttttt) refers to main.o(i._Z6setPintb) for setPin(unsigned short, bool)
    ssd1306.o(i._ZN7SSD1306C1Ejtttttt) refers to ssd1306.o(.constdata__ZTV7SSD1306) for vtable for SSD1306
    ssd1306.o(i._ZN7SSD1306C1Ev) refers to ssd1306.o(.constdata__ZTV7SSD1306) for vtable for SSD1306
    ssd1306.o(.ARM.exidx) refers to ssd1306.o(i._ZN7SSD1306C1Ejtttttt) for i._ZN7SSD1306C1Ejtttttt
    ssd1306.o(.ARM.exidx) refers to ssd1306.o(i._ZN7SSD1306C1Ev) for i._ZN7SSD1306C1Ev
    ssd1306.o(.ARM.exidx) refers to ssd1306.o(i._ZN7SSD13068switchOnEv) for i._ZN7SSD13068switchOnEv
    ssd1306.o(.ARM.exidx) refers to ssd1306.o(i._ZN7SSD13069switchOffEv) for i._ZN7SSD13069switchOffEv
    ssd1306.o(.ARM.exidx) refers to ssd1306.o(i._ZN7SSD130615ssd1306_commandEh) for i._ZN7SSD130615ssd1306_commandEh
    ssd1306.o(.ARM.exidx) refers to ssd1306.o(i._ZN7SSD13067displayEv) for i._ZN7SSD13067displayEv
    ssd1306.o(.ARM.exidx) refers to ssd1306.o(i._ZN7SSD13064drawEv) for i._ZN7SSD13064drawEv
    ssd1306.o(.ARM.exidx) refers to ssd1306.o(i._ZN7SSD13065beginEhb) for i._ZN7SSD13065beginEhb
    ssd1306.o(.ARM.exidx) refers to ssd1306.o(i._ZN7SSD13065clearEv) for i._ZN7SSD13065clearEv
    ssd1306.o(.ARM.exidx) refers to ssd1306.o(i._ZN7SSD13066invertEh) for i._ZN7SSD13066invertEh
    ssd1306.o(.ARM.exidx) refers to ssd1306.o(i._ZN7SSD13067displayEPh) for i._ZN7SSD13067displayEPh
    ssd1306.o(.ARM.exidx) refers to ssd1306.o(i._ZN7SSD130616startscrollrightEhh) for i._ZN7SSD130616startscrollrightEhh
    ssd1306.o(.ARM.exidx) refers to ssd1306.o(i._ZN7SSD130615startscrollleftEhh) for i._ZN7SSD130615startscrollleftEhh
    ssd1306.o(.ARM.exidx) refers to ssd1306.o(i._ZN7SSD130620startscrolldiagrightEhh) for i._ZN7SSD130620startscrolldiagrightEhh
    ssd1306.o(.ARM.exidx) refers to ssd1306.o(i._ZN7SSD130619startscrolldiagleftEhh) for i._ZN7SSD130619startscrolldiagleftEhh
    ssd1306.o(.ARM.exidx) refers to ssd1306.o(i._ZN7SSD130610stopscrollEv) for i._ZN7SSD130610stopscrollEv
    ssd1306.o(.ARM.exidx) refers to ssd1306.o(i._ZN7SSD13063dimEb) for i._ZN7SSD13063dimEb
    ssd1306.o(.ARM.exidx) refers to ssd1306.o(i._ZN7SSD13069drawPixelEsst) for i._ZN7SSD13069drawPixelEsst
    ssd1306.o(.ARM.exidx) refers to ssd1306.o(i._ZN7SSD130613drawFastVLineEssst) for i._ZN7SSD130613drawFastVLineEssst
    ssd1306.o(.ARM.exidx) refers to ssd1306.o(i._ZN7SSD130613drawFastHLineEssst) for i._ZN7SSD130613drawFastHLineEssst
    mpu9250.o(i._ZN7mpu925012readFIFOsizeEv) refers to mpu9250.o(i._ZN7mpu92507readRegEiPii) for mpu9250::readReg(int, int*, int)
    mpu9250.o(i._ZN7mpu925012readFIFOsizeEv) refers to mpu9250.o(i._ZN7mpu92507convertEth) for mpu9250::convert(unsigned short, unsigned char)
    mpu9250.o(i._ZN7mpu925012setAccOffsetEiii) refers to mpu9250.o(i._ZN7mpu92508writeRegEih) for mpu9250::writeReg(int, unsigned char)
    mpu9250.o(i._ZN7mpu925012updateAnglesEdb) refers to deqf.o(x$fpl$deqf) for __aeabi_cdcmpeq
    mpu9250.o(i._ZN7mpu925012updateAnglesEdb) refers to stm32f407_sysfunc.o(i._Z6millisv) for millis()
    mpu9250.o(i._ZN7mpu925012updateAnglesEdb) refers to dfltll_clz.o(x$fpl$dfltll) for __aeabi_l2d
    mpu9250.o(i._ZN7mpu925012updateAnglesEdb) refers to ddiv.o(x$fpl$ddiv) for __aeabi_ddiv
    mpu9250.o(i._ZN7mpu925012updateAnglesEdb) refers to drleqf.o(x$fpl$drleqf) for __aeabi_cdrcmple
    mpu9250.o(i._ZN7mpu925012updateAnglesEdb) refers to mpu9250.o(i._ZN7mpu92507readAccEv) for mpu9250::readAcc()
    mpu9250.o(i._ZN7mpu925012updateAnglesEdb) refers to mpu9250.o(i._ZN7mpu92508readGyroEv) for mpu9250::readGyro()
    mpu9250.o(i._ZN7mpu925012updateAnglesEdb) refers to mpu9250.o(i._ZN7mpu925021MadgwickAHRSupdateIMUEd) for mpu9250::MadgwickAHRSupdateIMU(double)
    mpu9250.o(i._ZN7mpu925012updateAnglesEdb) refers to dmul.o(x$fpl$dmul) for __aeabi_dmul
    mpu9250.o(i._ZN7mpu925012updateAnglesEdb) refers to daddsub_clz.o(x$fpl$dsub) for __aeabi_dsub
    mpu9250.o(i._ZN7mpu925012updateAnglesEdb) refers to asin.o(i.__hardfp_asin) for __hardfp_asin
    mpu9250.o(i._ZN7mpu925012updateAnglesEdb) refers to daddsub_clz.o(x$fpl$dadd) for __aeabi_dadd
    mpu9250.o(i._ZN7mpu925012updateAnglesEdb) refers to daddsub_clz.o(x$fpl$drsb) for __aeabi_drsub
    mpu9250.o(i._ZN7mpu925012updateAnglesEdb) refers to atan2.o(i.__hardfp_atan2) for __hardfp_atan2
    mpu9250.o(i._ZN7mpu925012updateAnglesEdb) refers to basic.o(x$fpl$basic) for __aeabi_dneg
    mpu9250.o(i._ZN7mpu925012updateAnglesEdb) refers to dleqf.o(x$fpl$dleqf) for __aeabi_cdcmple
    mpu9250.o(i._ZN7mpu925013setGyroOffsetEiii) refers to mpu9250.o(i._ZN7mpu92508writeRegEih) for mpu9250::writeReg(int, unsigned char)
    mpu9250.o(i._ZN7mpu925020updateAnglesFromFIFOEv) refers to mpu9250.o(i._ZN7mpu925012readFIFOsizeEv) for mpu9250::readFIFOsize()
    mpu9250.o(i._ZN7mpu925020updateAnglesFromFIFOEv) refers to mpu9250.o(i._ZN7mpu92508readFIFOEv) for mpu9250::readFIFO()
    mpu9250.o(i._ZN7mpu925020updateAnglesFromFIFOEv) refers to mpu9250.o(i._ZN7mpu925012updateAnglesEdb) for mpu9250::updateAngles(double, bool)
    mpu9250.o(i._ZN7mpu925021MadgwickAHRSupdateIMUEd) refers to dmul.o(x$fpl$dmul) for __aeabi_dmul
    mpu9250.o(i._ZN7mpu925021MadgwickAHRSupdateIMUEd) refers to basic.o(x$fpl$basic) for __aeabi_dneg
    mpu9250.o(i._ZN7mpu925021MadgwickAHRSupdateIMUEd) refers to daddsub_clz.o(x$fpl$dsub) for __aeabi_dsub
    mpu9250.o(i._ZN7mpu925021MadgwickAHRSupdateIMUEd) refers to d2f.o(x$fpl$d2f) for __aeabi_d2f
    mpu9250.o(i._ZN7mpu925021MadgwickAHRSupdateIMUEd) refers to daddsub_clz.o(x$fpl$dadd) for __aeabi_dadd
    mpu9250.o(i._ZN7mpu925021MadgwickAHRSupdateIMUEd) refers to deqf.o(x$fpl$deqf) for __aeabi_cdcmpeq
    mpu9250.o(i._ZN7mpu925021MadgwickAHRSupdateIMUEd) refers to mpu9250.o(i._ZN7mpu92507invSqrtEf) for mpu9250::invSqrt(float)
    mpu9250.o(i._ZN7mpu925021MadgwickAHRSupdateIMUEd) refers to f2d.o(x$fpl$f2d) for __aeabi_f2d
    mpu9250.o(i._ZN7mpu92507correctEv) refers to stm32f407_sysfunc.o(i._Z6millisv) for millis()
    mpu9250.o(i._ZN7mpu92507correctEv) refers to dfltll_clz.o(x$fpl$dfltll) for __aeabi_l2d
    mpu9250.o(i._ZN7mpu92507correctEv) refers to ddiv.o(x$fpl$ddiv) for __aeabi_ddiv
    mpu9250.o(i._ZN7mpu92507correctEv) refers to daddsub_clz.o(x$fpl$drsb) for __aeabi_drsub
    mpu9250.o(i._ZN7mpu92507initIMUEji) refers to stm32f407_sysfunc.o(i._Z5delayj) for delay(unsigned)
    mpu9250.o(i._ZN7mpu92507initIMUEji) refers to stm32f407_spi.o(i._Z7initSPIjbhtiiii) for initSPI(unsigned, bool, unsigned char, unsigned short, int, int, int, int)
    mpu9250.o(i._ZN7mpu92507initIMUEji) refers to stm32f407_pin.o(i._Z7initPinP12GPIO_TypeDefthhh) for initPin(GPIO_TypeDef*, unsigned short, unsigned char, unsigned char, unsigned char)
    mpu9250.o(i._ZN7mpu92507initIMUEji) refers to main.o(i._Z6setPintb) for setPin(unsigned short, bool)
    mpu9250.o(i._ZN7mpu92507initIMUEji) refers to mpu9250.o(i._ZN7mpu92508writeRegEih) for mpu9250::writeReg(int, unsigned char)
    mpu9250.o(i._ZN7mpu92507initIMUEji) refers to stm32f407_sysfunc.o(i._Z6millisv) for millis()
    mpu9250.o(i._ZN7mpu92507readAccEv) refers to mpu9250.o(i._ZN7mpu92507readRegEiPii) for mpu9250::readReg(int, int*, int)
    mpu9250.o(i._ZN7mpu92507readAccEv) refers to mpu9250.o(i._ZN7mpu92507convertEth) for mpu9250::convert(unsigned short, unsigned char)
    mpu9250.o(i._ZN7mpu92507readAccEv) refers to dflt_clz.o(x$fpl$dflt) for __aeabi_i2d
    mpu9250.o(i._ZN7mpu92507readAccEv) refers to daddsub_clz.o(x$fpl$dsub) for __aeabi_dsub
    mpu9250.o(i._ZN7mpu92507readAccEv) refers to ddiv.o(x$fpl$ddiv) for __aeabi_ddiv
    mpu9250.o(i._ZN7mpu92507readRegEiPii) refers to main.o(i._Z6setPintb) for setPin(unsigned short, bool)
    mpu9250.o(i._ZN7mpu92507readRegEiPii) refers to stm32f407_spi.o(i._Z8writeSPIjt) for writeSPI(unsigned, unsigned short)
    mpu9250.o(i._ZN7mpu92508readFIFOEv) refers to mpu9250.o(i._ZN7mpu92507readRegEiPii) for mpu9250::readReg(int, int*, int)
    mpu9250.o(i._ZN7mpu92508readFIFOEv) refers to mpu9250.o(i._ZN7mpu92507convertEth) for mpu9250::convert(unsigned short, unsigned char)
    mpu9250.o(i._ZN7mpu92508readFIFOEv) refers to dflt_clz.o(x$fpl$dflt) for __aeabi_i2d
    mpu9250.o(i._ZN7mpu92508readFIFOEv) refers to daddsub_clz.o(x$fpl$dsub) for __aeabi_dsub
    mpu9250.o(i._ZN7mpu92508readFIFOEv) refers to ddiv.o(x$fpl$ddiv) for __aeabi_ddiv
    mpu9250.o(i._ZN7mpu92508readGyroEv) refers to mpu9250.o(i._ZN7mpu92507readRegEiPii) for mpu9250::readReg(int, int*, int)
    mpu9250.o(i._ZN7mpu92508readGyroEv) refers to mpu9250.o(i._ZN7mpu92507convertEth) for mpu9250::convert(unsigned short, unsigned char)
    mpu9250.o(i._ZN7mpu92508readGyroEv) refers to dflt_clz.o(x$fpl$dflt) for __aeabi_i2d
    mpu9250.o(i._ZN7mpu92508readGyroEv) refers to daddsub_clz.o(x$fpl$dsub) for __aeabi_dsub
    mpu9250.o(i._ZN7mpu92508readGyroEv) refers to ddiv.o(x$fpl$ddiv) for __aeabi_ddiv
    mpu9250.o(i._ZN7mpu92508readTempEv) refers to mpu9250.o(i._ZN7mpu92507readRegEiPii) for mpu9250::readReg(int, int*, int)
    mpu9250.o(i._ZN7mpu92508readTempEv) refers to mpu9250.o(i._ZN7mpu92507convertEth) for mpu9250::convert(unsigned short, unsigned char)
    mpu9250.o(i._ZN7mpu92508readTempEv) refers to dflt_clz.o(x$fpl$dflt) for __aeabi_i2d
    mpu9250.o(i._ZN7mpu92508readTempEv) refers to daddsub_clz.o(x$fpl$dsub) for __aeabi_dsub
    mpu9250.o(i._ZN7mpu92508readTempEv) refers to ddiv.o(x$fpl$ddiv) for __aeabi_ddiv
    mpu9250.o(i._ZN7mpu92508readTempEv) refers to daddsub_clz.o(x$fpl$dadd) for __aeabi_dadd
    mpu9250.o(i._ZN7mpu92508writeRegEih) refers to main.o(i._Z6setPintb) for setPin(unsigned short, bool)
    mpu9250.o(i._ZN7mpu92508writeRegEih) refers to stm32f407_spi.o(i._Z8writeSPIjt) for writeSPI(unsigned, unsigned short)
    mpu9250.o(i._ZN7mpu92509calibrateEi) refers to mpu9250.o(i._ZN7mpu925013setGyroOffsetEiii) for mpu9250::setGyroOffset(int, int, int)
    mpu9250.o(i._ZN7mpu92509calibrateEi) refers to mpu9250.o(i._ZN7mpu925012setAccOffsetEiii) for mpu9250::setAccOffset(int, int, int)
    mpu9250.o(i._ZN7mpu92509calibrateEi) refers to stm32f407_sysfunc.o(i._Z6millisv) for millis()
    mpu9250.o(i._ZN7mpu92509calibrateEi) refers to mpu9250.o(i._ZN7mpu92508readGyroEv) for mpu9250::readGyro()
    mpu9250.o(i._ZN7mpu92509calibrateEi) refers to mpu9250.o(i._ZN7mpu92507readAccEv) for mpu9250::readAcc()
    mpu9250.o(i._ZN7mpu92509calibrateEi) refers to dfltll_clz.o(x$fpl$dfltll) for __aeabi_l2d
    mpu9250.o(i._ZN7mpu92509calibrateEi) refers to daddsub_clz.o(x$fpl$dadd) for __aeabi_dadd
    mpu9250.o(i._ZN7mpu92509calibrateEi) refers to dfixll.o(x$fpl$llsfromd) for __aeabi_d2lz
    mpu9250.o(i._ZN7mpu92509calibrateEi) refers to stm32f407_sysfunc.o(i._Z5delayj) for delay(unsigned)
    mpu9250.o(i._ZN7mpu92509calibrateEi) refers to dflt_clz.o(x$fpl$dflt) for __aeabi_i2d
    mpu9250.o(i._ZN7mpu92509calibrateEi) refers to ddiv.o(x$fpl$ddiv) for __aeabi_ddiv
    mpu9250.o(.ARM.exidx) refers to mpu9250.o(i._ZN7mpu92508writeRegEih) for i._ZN7mpu92508writeRegEih
    mpu9250.o(.ARM.exidx) refers to mpu9250.o(i._ZN7mpu92507initIMUEji) for i._ZN7mpu92507initIMUEji
    mpu9250.o(.ARM.exidx) refers to mpu9250.o(i._ZN7mpu92507readRegEiPii) for i._ZN7mpu92507readRegEiPii
    mpu9250.o(.ARM.exidx) refers to mpu9250.o(i._ZN7mpu92507readAccEv) for i._ZN7mpu92507readAccEv
    mpu9250.o(.ARM.exidx) refers to mpu9250.o(i._ZN7mpu92508readGyroEv) for i._ZN7mpu92508readGyroEv
    mpu9250.o(.ARM.exidx) refers to mpu9250.o(i._ZN7mpu92508readTempEv) for i._ZN7mpu92508readTempEv
    mpu9250.o(.ARM.exidx) refers to mpu9250.o(i._ZN7mpu925012readFIFOsizeEv) for i._ZN7mpu925012readFIFOsizeEv
    mpu9250.o(.ARM.exidx) refers to mpu9250.o(i._ZN7mpu92508readFIFOEv) for i._ZN7mpu92508readFIFOEv
    mpu9250.o(.ARM.exidx) refers to mpu9250.o(i._ZN7mpu925013setGyroOffsetEiii) for i._ZN7mpu925013setGyroOffsetEiii
    mpu9250.o(.ARM.exidx) refers to mpu9250.o(i._ZN7mpu925012setAccOffsetEiii) for i._ZN7mpu925012setAccOffsetEiii
    mpu9250.o(.ARM.exidx) refers to mpu9250.o(i._ZN7mpu92509calibrateEi) for i._ZN7mpu92509calibrateEi
    mpu9250.o(.ARM.exidx) refers to mpu9250.o(i._ZN7mpu92507correctEv) for i._ZN7mpu92507correctEv
    mpu9250.o(.ARM.exidx) refers to mpu9250.o(i._ZN7mpu92507invSqrtEf) for i._ZN7mpu92507invSqrtEf
    mpu9250.o(.ARM.exidx) refers to mpu9250.o(i._ZN7mpu925021MadgwickAHRSupdateIMUEd) for i._ZN7mpu925021MadgwickAHRSupdateIMUEd
    mpu9250.o(.ARM.exidx) refers to mpu9250.o(i._ZN7mpu925012updateAnglesEdb) for i._ZN7mpu925012updateAnglesEdb
    mpu9250.o(.ARM.exidx) refers to mpu9250.o(i._ZN7mpu925020updateAnglesFromFIFOEv) for i._ZN7mpu925020updateAnglesFromFIFOEv
    llsdiv.o(.text) refers to lludivv7m.o(.text) for __aeabi_uldivmod
    rt_memclr.o(.text) refers to rt_memclr_w.o(.text) for _memset_w
    __main.o(!!!main) refers to __rtentry.o(.ARM.Collect$$rtentry$$00000000) for __rt_entry
    init_aeabi.o(.emb_text) refers (Special) to libinit2.o(.ARM.Collect$$libinit$$00000031) for __rt_lib_init_cpp_2
    init_aeabi.o(.init_array) refers (Special) to libinit2.o(.ARM.Collect$$libinit$$00000031) for __rt_lib_init_cpp_2
    init_aeabi.o(.init_array) refers to init_aeabi.o(.text) for __cpp_initialize__aeabi_
    init_aeabi.o(.dummy_text) refers (Special) to libinit2.o(.ARM.Collect$$libinit$$00000031) for __rt_lib_init_cpp_2
    init_aeabi.o(.text) refers (Special) to libinit2.o(.ARM.Collect$$libinit$$00000031) for __rt_lib_init_cpp_2
    init_aeabi.o(.ARM.exidx) refers (Special) to libinit2.o(.ARM.Collect$$libinit$$00000031) for __rt_lib_init_cpp_2
    init_aeabi.o(.ARM.exidx) refers to init_aeabi.o(.text) for .text
    rwalloc.o(i._ZN4__rw13__rw_allocateEji) refers to new.o(i._Znwj) for operator new(unsigned)
    rwalloc.o(i._ZN4__rw13__rw_allocateEji) refers to rwstdexcept.o(i._ZN4__rw10__rw_throwEiz) for __rw::__rw_throw(int, ...)
    rwalloc.o(i._ZN4__rw15__rw_deallocateEPvji) refers to delete.o(i._ZdlPv) for operator delete (void*)
    rwalloc.o(.ARM.exidx) refers to rwalloc.o(i._ZN4__rw13__rw_allocateEji) for i._ZN4__rw13__rw_allocateEji
    rwalloc.o(.ARM.exidx) refers to unwind_pr0.o(.text) for __aeabi_unwind_cpp_pr0
    rwalloc.o(.ARM.exidx) refers to rwalloc.o(.ARM.extab) for .extab._ZN4__rw13__rw_allocateEji
    rwalloc.o(.ARM.exidx) refers to rwalloc.o(i._ZN4__rw15__rw_deallocateEPvji) for i._ZN4__rw15__rw_deallocateEPvji
    rwalloc.o(.ARM.extab) refers to rwalloc.o(i._ZN4__rw13__rw_allocateEji) for i._ZN4__rw13__rw_allocateEji
    array_new.o(i._Znaj) refers to new.o(i._Znwj) for operator new(unsigned)
    array_new.o(.ARM.exidx) refers to array_new.o(i._Znaj) for i._Znaj
    array_new.o(.ARM.exidx) refers to unwind_pr0.o(.text) for __aeabi_unwind_cpp_pr0
    array_new.o(.ARM.exidx) refers to array_new.o(.ARM.extab) for .extab._Znaj
    array_new.o(.ARM.extab) refers to arm_callunex_noexceptions.o(.text) for __cxa_call_unexpected
    array_new.o(.ARM.extab) refers to bad_alloc_dtor.o(.constdata__ZTISt9bad_alloc) for typeinfo for std::bad_alloc
    delete.o(i._ZdlPv) refers to h1_free.o(.text) for free
    delete.o(.ARM.exidx) refers to delete.o(i._ZdlPv) for i._ZdlPv
    new.o(i._Znwj) refers to rt_new_handler_addr_intlibspace.o(.text) for __rt_new_handler_addr
    new.o(i._Znwj) refers to h1_alloc.o(.text) for malloc
    new.o(i._Znwj) refers to arm_newhandler_noexceptions.o(.text) for __default_new_handler()
    new.o(.ARM.exidx) refers to new.o(i._Znwj) for i._Znwj
    new.o(.ARM.exidx) refers to unwind_pr0.o(.text) for __aeabi_unwind_cpp_pr0
    new.o(.ARM.exidx) refers to new.o(.ARM.extab) for .extab._Znwj
    new.o(.ARM.extab) refers to arm_callunex_noexceptions.o(.text) for __cxa_call_unexpected
    new.o(.ARM.extab) refers to bad_alloc_dtor.o(.constdata__ZTISt9bad_alloc) for typeinfo for std::bad_alloc
    cxa_guard_acquire.o(.ARM.exidx) refers to cxa_guard_acquire.o(i.__cxa_guard_acquire) for i.__cxa_guard_acquire
    cxa_guard_release.o(.ARM.exidx) refers to cxa_guard_release.o(i.__cxa_guard_release) for i.__cxa_guard_release
    lib_rtti_impl.o(i._ZN10__cxxabiv116__enum_type_infoD0Ev) refers to lib_rtti_impl.o(i._ZN10__cxxabiv116__enum_type_infoD1Ev) for __cxxabiv1::__enum_type_info::~__enum_type_info()
    lib_rtti_impl.o(i._ZN10__cxxabiv117__array_type_infoD0Ev) refers to lib_rtti_impl.o(i._ZN10__cxxabiv117__array_type_infoD1Ev) for __cxxabiv1::__array_type_info::~__array_type_info()
    lib_rtti_impl.o(i._ZN10__cxxabiv117__class_type_infoD0Ev) refers to lib_rtti_impl.o(i._ZN10__cxxabiv117__class_type_infoD1Ev) for __cxxabiv1::__class_type_info::~__class_type_info()
    lib_rtti_impl.o(i._ZN10__cxxabiv117__pbase_type_infoD0Ev) refers to lib_rtti_impl.o(i._ZN10__cxxabiv117__pbase_type_infoD1Ev) for __cxxabiv1::__pbase_type_info::~__pbase_type_info()
    lib_rtti_impl.o(i._ZN10__cxxabiv119__pointer_type_infoD0Ev) refers to lib_rtti_impl.o(i._ZN10__cxxabiv119__pointer_type_infoD1Ev) for __cxxabiv1::__pointer_type_info::~__pointer_type_info()
    lib_rtti_impl.o(i._ZN10__cxxabiv119__pointer_type_infoD1Ev) refers to lib_rtti_impl.o(i._ZN10__cxxabiv117__pbase_type_infoD1Ev) for __cxxabiv1::__pbase_type_info::~__pbase_type_info()
    lib_rtti_impl.o(i._ZN10__cxxabiv120__function_type_infoD0Ev) refers to lib_rtti_impl.o(i._ZN10__cxxabiv120__function_type_infoD1Ev) for __cxxabiv1::__function_type_info::~__function_type_info()
    lib_rtti_impl.o(i._ZN10__cxxabiv120__si_class_type_infoD0Ev) refers to lib_rtti_impl.o(i._ZN10__cxxabiv120__si_class_type_infoD1Ev) for __cxxabiv1::__si_class_type_info::~__si_class_type_info()
    lib_rtti_impl.o(i._ZN10__cxxabiv120__si_class_type_infoD1Ev) refers to lib_rtti_impl.o(i._ZN10__cxxabiv117__class_type_infoD1Ev) for __cxxabiv1::__class_type_info::~__class_type_info()
    lib_rtti_impl.o(i._ZN10__cxxabiv121__vmi_class_type_infoD0Ev) refers to lib_rtti_impl.o(i._ZN10__cxxabiv121__vmi_class_type_infoD1Ev) for __cxxabiv1::__vmi_class_type_info::~__vmi_class_type_info()
    lib_rtti_impl.o(i._ZN10__cxxabiv121__vmi_class_type_infoD1Ev) refers to lib_rtti_impl.o(i._ZN10__cxxabiv117__class_type_infoD1Ev) for __cxxabiv1::__class_type_info::~__class_type_info()
    lib_rtti_impl.o(i._ZN10__cxxabiv123__fundamental_type_infoD0Ev) refers to lib_rtti_impl.o(i._ZN10__cxxabiv123__fundamental_type_infoD1Ev) for __cxxabiv1::__fundamental_type_info::~__fundamental_type_info()
    lib_rtti_impl.o(i._ZN10__cxxabiv129__pointer_to_member_type_infoD0Ev) refers to lib_rtti_impl.o(i._ZN10__cxxabiv129__pointer_to_member_type_infoD1Ev) for __cxxabiv1::__pointer_to_member_type_info::~__pointer_to_member_type_info()
    lib_rtti_impl.o(i._ZN10__cxxabiv129__pointer_to_member_type_infoD1Ev) refers to lib_rtti_impl.o(i._ZN10__cxxabiv117__pbase_type_infoD1Ev) for __cxxabiv1::__pbase_type_info::~__pbase_type_info()
    lib_rtti_impl.o(.ARM.exidx) refers to lib_rtti_impl.o(i._ZN10__cxxabiv123__fundamental_type_infoD1Ev) for i._ZN10__cxxabiv123__fundamental_type_infoD1Ev
    lib_rtti_impl.o(.ARM.exidx) refers to lib_rtti_impl.o(i._ZN10__cxxabiv123__fundamental_type_infoD0Ev) for i._ZN10__cxxabiv123__fundamental_type_infoD0Ev
    lib_rtti_impl.o(.ARM.exidx) refers to lib_rtti_impl.o(i._ZN10__cxxabiv117__array_type_infoD1Ev) for i._ZN10__cxxabiv117__array_type_infoD1Ev
    lib_rtti_impl.o(.ARM.exidx) refers to lib_rtti_impl.o(i._ZN10__cxxabiv117__array_type_infoD0Ev) for i._ZN10__cxxabiv117__array_type_infoD0Ev
    lib_rtti_impl.o(.ARM.exidx) refers to lib_rtti_impl.o(i._ZN10__cxxabiv120__function_type_infoD1Ev) for i._ZN10__cxxabiv120__function_type_infoD1Ev
    lib_rtti_impl.o(.ARM.exidx) refers to lib_rtti_impl.o(i._ZN10__cxxabiv120__function_type_infoD0Ev) for i._ZN10__cxxabiv120__function_type_infoD0Ev
    lib_rtti_impl.o(.ARM.exidx) refers to lib_rtti_impl.o(i._ZN10__cxxabiv116__enum_type_infoD1Ev) for i._ZN10__cxxabiv116__enum_type_infoD1Ev
    lib_rtti_impl.o(.ARM.exidx) refers to lib_rtti_impl.o(i._ZN10__cxxabiv116__enum_type_infoD0Ev) for i._ZN10__cxxabiv116__enum_type_infoD0Ev
    lib_rtti_impl.o(.ARM.exidx) refers to lib_rtti_impl.o(i._ZN10__cxxabiv117__class_type_infoD1Ev) for i._ZN10__cxxabiv117__class_type_infoD1Ev
    lib_rtti_impl.o(.ARM.exidx) refers to lib_rtti_impl.o(i._ZN10__cxxabiv117__class_type_infoD0Ev) for i._ZN10__cxxabiv117__class_type_infoD0Ev
    lib_rtti_impl.o(.ARM.exidx) refers to lib_rtti_impl.o(i._ZN10__cxxabiv120__si_class_type_infoD1Ev) for i._ZN10__cxxabiv120__si_class_type_infoD1Ev
    lib_rtti_impl.o(.ARM.exidx) refers to lib_rtti_impl.o(i._ZN10__cxxabiv120__si_class_type_infoD0Ev) for i._ZN10__cxxabiv120__si_class_type_infoD0Ev
    lib_rtti_impl.o(.ARM.exidx) refers to lib_rtti_impl.o(i._ZN10__cxxabiv121__vmi_class_type_infoD1Ev) for i._ZN10__cxxabiv121__vmi_class_type_infoD1Ev
    lib_rtti_impl.o(.ARM.exidx) refers to lib_rtti_impl.o(i._ZN10__cxxabiv121__vmi_class_type_infoD0Ev) for i._ZN10__cxxabiv121__vmi_class_type_infoD0Ev
    lib_rtti_impl.o(.ARM.exidx) refers to lib_rtti_impl.o(i._ZN10__cxxabiv117__pbase_type_infoD1Ev) for i._ZN10__cxxabiv117__pbase_type_infoD1Ev
    lib_rtti_impl.o(.ARM.exidx) refers to lib_rtti_impl.o(i._ZN10__cxxabiv117__pbase_type_infoD0Ev) for i._ZN10__cxxabiv117__pbase_type_infoD0Ev
    lib_rtti_impl.o(.ARM.exidx) refers to lib_rtti_impl.o(i._ZN10__cxxabiv119__pointer_type_infoD1Ev) for i._ZN10__cxxabiv119__pointer_type_infoD1Ev
    lib_rtti_impl.o(.ARM.exidx) refers to lib_rtti_impl.o(i._ZN10__cxxabiv119__pointer_type_infoD0Ev) for i._ZN10__cxxabiv119__pointer_type_infoD0Ev
    lib_rtti_impl.o(.ARM.exidx) refers to lib_rtti_impl.o(i._ZN10__cxxabiv129__pointer_to_member_type_infoD1Ev) for i._ZN10__cxxabiv129__pointer_to_member_type_infoD1Ev
    lib_rtti_impl.o(.ARM.exidx) refers to lib_rtti_impl.o(i._ZN10__cxxabiv129__pointer_to_member_type_infoD0Ev) for i._ZN10__cxxabiv129__pointer_to_member_type_infoD0Ev
    aeabi_vec_ctor_nocookie_nodtor.o(.ARM.exidx) refers to aeabi_vec_ctor_nocookie_nodtor.o(i.__aeabi_vec_ctor_nocookie_nodtor) for i.__aeabi_vec_ctor_nocookie_nodtor
    aeabi_vec_ctor_nocookie_nodtor.o(.ARM.exidx) refers to unwind_pr0.o(.text) for __aeabi_unwind_cpp_pr0
    basic.o(x$fpl$basic) refers (Special) to usenofp.o(x$fpl$usenofp) for __I$use$fp
    d2f.o(x$fpl$d2f) refers (Special) to usenofp.o(x$fpl$usenofp) for __I$use$fp
    d2f.o(x$fpl$d2f) refers to fretinf.o(x$fpl$fretinf) for __fpl_fretinf
    d2f.o(x$fpl$d2f) refers to dnaninf.o(x$fpl$dnaninf) for __fpl_dnaninf
    daddsub_clz.o(x$fpl$dadd) refers (Special) to usenofp.o(x$fpl$usenofp) for __I$use$fp
    daddsub_clz.o(x$fpl$dadd) refers to daddsub_clz.o(x$fpl$dsub) for _dsub1
    daddsub_clz.o(x$fpl$dadd) refers to dretinf.o(x$fpl$dretinf) for __fpl_dretinf
    daddsub_clz.o(x$fpl$dadd) refers to dnaninf.o(x$fpl$dnaninf) for __fpl_dnaninf
    daddsub_clz.o(x$fpl$drsb) refers (Special) to usenofp.o(x$fpl$usenofp) for __I$use$fp
    daddsub_clz.o(x$fpl$drsb) refers to daddsub_clz.o(x$fpl$dadd) for _dadd1
    daddsub_clz.o(x$fpl$drsb) refers to daddsub_clz.o(x$fpl$dsub) for _dsub1
    daddsub_clz.o(x$fpl$dsub) refers (Special) to usenofp.o(x$fpl$usenofp) for __I$use$fp
    daddsub_clz.o(x$fpl$dsub) refers to daddsub_clz.o(x$fpl$dadd) for _dadd1
    daddsub_clz.o(x$fpl$dsub) refers to dnaninf.o(x$fpl$dnaninf) for __fpl_dnaninf
    ddiv.o(x$fpl$drdiv) refers (Special) to usenofp.o(x$fpl$usenofp) for __I$use$fp
    ddiv.o(x$fpl$drdiv) refers to ddiv.o(x$fpl$ddiv) for ddiv_entry
    ddiv.o(x$fpl$ddiv) refers (Special) to usenofp.o(x$fpl$usenofp) for __I$use$fp
    ddiv.o(x$fpl$ddiv) refers to dretinf.o(x$fpl$dretinf) for __fpl_dretinf
    ddiv.o(x$fpl$ddiv) refers to dnaninf.o(x$fpl$dnaninf) for __fpl_dnaninf
    deqf.o(x$fpl$deqf) refers (Special) to usenofp.o(x$fpl$usenofp) for __I$use$fp
    deqf.o(x$fpl$deqf) refers to dnaninf.o(x$fpl$dnaninf) for __fpl_dnaninf
    deqf.o(x$fpl$deqf) refers to dcmpi.o(x$fpl$dcmpinf) for __fpl_dcmp_Inf
    dfix.o(x$fpl$dfix) refers (Special) to usenofp.o(x$fpl$usenofp) for __I$use$fp
    dfix.o(x$fpl$dfix) refers to dnaninf.o(x$fpl$dnaninf) for __fpl_dnaninf
    dfix.o(x$fpl$dfixr) refers (Special) to usenofp.o(x$fpl$usenofp) for __I$use$fp
    dfix.o(x$fpl$dfixr) refers to dnaninf.o(x$fpl$dnaninf) for __fpl_dnaninf
    dfixll.o(x$fpl$llsfromd) refers (Special) to usenofp.o(x$fpl$usenofp) for __I$use$fp
    dfixll.o(x$fpl$llsfromd) refers to dnaninf.o(x$fpl$dnaninf) for __fpl_dnaninf
    dfixll.o(x$fpl$llsfromdr) refers (Special) to usenofp.o(x$fpl$usenofp) for __I$use$fp
    dfixll.o(x$fpl$llsfromdr) refers to dnaninf.o(x$fpl$dnaninf) for __fpl_dnaninf
    dfixu.o(x$fpl$dfixu) refers (Special) to usenofp.o(x$fpl$usenofp) for __I$use$fp
    dfixu.o(x$fpl$dfixu) refers to dnaninf.o(x$fpl$dnaninf) for __fpl_dnaninf
    dfixu.o(x$fpl$dfixur) refers (Special) to usenofp.o(x$fpl$usenofp) for __I$use$fp
    dfixu.o(x$fpl$dfixur) refers to dnaninf.o(x$fpl$dnaninf) for __fpl_dnaninf
    dflt_clz.o(x$fpl$dfltu) refers (Special) to usenofp.o(x$fpl$usenofp) for __I$use$fp
    dflt_clz.o(x$fpl$dflt) refers (Special) to usenofp.o(x$fpl$usenofp) for __I$use$fp
    dflt_clz.o(x$fpl$dfltn) refers (Special) to usenofp.o(x$fpl$usenofp) for __I$use$fp
    dfltll_clz.o(x$fpl$dfltll) refers (Special) to usenofp.o(x$fpl$usenofp) for __I$use$fp
    dfltll_clz.o(x$fpl$dfltull) refers (Special) to usenofp.o(x$fpl$usenofp) for __I$use$fp
    dleqf.o(x$fpl$dleqf) refers (Special) to usenofp.o(x$fpl$usenofp) for __I$use$fp
    dleqf.o(x$fpl$dleqf) refers to dnaninf.o(x$fpl$dnaninf) for __fpl_dnaninf
    dleqf.o(x$fpl$dleqf) refers to dcmpi.o(x$fpl$dcmpinf) for __fpl_dcmp_Inf
    dmul.o(x$fpl$dmul) refers (Special) to usenofp.o(x$fpl$usenofp) for __I$use$fp
    dmul.o(x$fpl$dmul) refers to dretinf.o(x$fpl$dretinf) for __fpl_dretinf
    dmul.o(x$fpl$dmul) refers to dnaninf.o(x$fpl$dnaninf) for __fpl_dnaninf
    drleqf.o(x$fpl$drleqf) refers (Special) to usenofp.o(x$fpl$usenofp) for __I$use$fp
    drleqf.o(x$fpl$drleqf) refers to dleqf.o(x$fpl$dleqf) for __fpl_dcmple_InfNaN
    f2d.o(x$fpl$f2d) refers (Special) to usenofp.o(x$fpl$usenofp) for __I$use$fp
    f2d.o(x$fpl$f2d) refers to fnaninf.o(x$fpl$fnaninf) for __fpl_fnaninf
    f2d.o(x$fpl$f2d) refers to dretinf.o(x$fpl$dretinf) for __fpl_dretinf
    ffixll.o(x$fpl$llsfromf) refers (Special) to usenofp.o(x$fpl$usenofp) for __I$use$fp
    ffixll.o(x$fpl$llsfromf) refers to fnaninf.o(x$fpl$fnaninf) for __fpl_fnaninf
    ffixll.o(x$fpl$llsfromfr) refers (Special) to usenofp.o(x$fpl$usenofp) for __I$use$fp
    ffixll.o(x$fpl$llsfromfr) refers to fnaninf.o(x$fpl$fnaninf) for __fpl_fnaninf
    ffltll_clz.o(x$fpl$ffltll) refers (Special) to usenofp.o(x$fpl$usenofp) for __I$use$fp
    asin.o(i.__hardfp_asin) refers (Special) to usenofp.o(x$fpl$usenofp) for __I$use$fp
    asin.o(i.__hardfp_asin) refers to dunder.o(i.__mathlib_dbl_infnan) for __mathlib_dbl_infnan
    asin.o(i.__hardfp_asin) refers to dmul.o(x$fpl$dmul) for __aeabi_dmul
    asin.o(i.__hardfp_asin) refers to daddsub_clz.o(x$fpl$dadd) for __aeabi_dadd
    asin.o(i.__hardfp_asin) refers to _rserrno.o(.text) for __set_errno
    asin.o(i.__hardfp_asin) refers to dunder.o(i.__mathlib_dbl_invalid) for __mathlib_dbl_invalid
    asin.o(i.__hardfp_asin) refers to fpclassify.o(i.__ARM_fpclassify) for __ARM_fpclassify
    asin.o(i.__hardfp_asin) refers to dunder.o(i.__mathlib_dbl_underflow) for __mathlib_dbl_underflow
    asin.o(i.__hardfp_asin) refers to poly.o(i.__kernel_poly) for __kernel_poly
    asin.o(i.__hardfp_asin) refers to ddiv.o(x$fpl$ddiv) for __aeabi_ddiv
    asin.o(i.__hardfp_asin) refers to fabs.o(i.fabs) for fabs
    asin.o(i.__hardfp_asin) refers to daddsub_clz.o(x$fpl$drsb) for __aeabi_drsub
    asin.o(i.__hardfp_asin) refers to sqrt.o(i.sqrt) for sqrt
    asin.o(i.__hardfp_asin) refers to daddsub_clz.o(x$fpl$dsub) for __aeabi_dsub
    asin.o(i.__hardfp_asin) refers to basic.o(x$fpl$basic) for __aeabi_dneg
    asin.o(i.__hardfp_asin) refers to asin.o(.constdata) for .constdata
    asin.o(i.__softfp_asin) refers (Special) to usenofp.o(x$fpl$usenofp) for __I$use$fp
    asin.o(i.__softfp_asin) refers to asin.o(i.__hardfp_asin) for __hardfp_asin
    asin.o(i.asin) refers (Special) to usenofp.o(x$fpl$usenofp) for __I$use$fp
    asin.o(i.asin) refers to asin.o(i.__hardfp_asin) for __hardfp_asin
    asin.o(.constdata) refers (Special) to usenofp.o(x$fpl$usenofp) for __I$use$fp
    asin_x.o(i.____hardfp_asin$lsc) refers (Special) to usenofp.o(x$fpl$usenofp) for __I$use$fp
    asin_x.o(i.____hardfp_asin$lsc) refers to dunder.o(i.__mathlib_dbl_infnan) for __mathlib_dbl_infnan
    asin_x.o(i.____hardfp_asin$lsc) refers to dmul.o(x$fpl$dmul) for __aeabi_dmul
    asin_x.o(i.____hardfp_asin$lsc) refers to daddsub_clz.o(x$fpl$dadd) for __aeabi_dadd
    asin_x.o(i.____hardfp_asin$lsc) refers to _rserrno.o(.text) for __set_errno
    asin_x.o(i.____hardfp_asin$lsc) refers to poly.o(i.__kernel_poly) for __kernel_poly
    asin_x.o(i.____hardfp_asin$lsc) refers to ddiv.o(x$fpl$ddiv) for __aeabi_ddiv
    asin_x.o(i.____hardfp_asin$lsc) refers to fabs.o(i.fabs) for fabs
    asin_x.o(i.____hardfp_asin$lsc) refers to daddsub_clz.o(x$fpl$drsb) for __aeabi_drsub
    asin_x.o(i.____hardfp_asin$lsc) refers to sqrt.o(i.sqrt) for sqrt
    asin_x.o(i.____hardfp_asin$lsc) refers to daddsub_clz.o(x$fpl$dsub) for __aeabi_dsub
    asin_x.o(i.____hardfp_asin$lsc) refers to basic.o(x$fpl$basic) for __aeabi_dneg
    asin_x.o(i.____hardfp_asin$lsc) refers to asin_x.o(.constdata) for .constdata
    asin_x.o(i.____softfp_asin$lsc) refers (Special) to usenofp.o(x$fpl$usenofp) for __I$use$fp
    asin_x.o(i.____softfp_asin$lsc) refers to asin_x.o(i.____hardfp_asin$lsc) for ____hardfp_asin$lsc
    asin_x.o(i.__asin$lsc) refers (Special) to usenofp.o(x$fpl$usenofp) for __I$use$fp
    asin_x.o(i.__asin$lsc) refers to asin_x.o(i.____hardfp_asin$lsc) for ____hardfp_asin$lsc
    asin_x.o(.constdata) refers (Special) to usenofp.o(x$fpl$usenofp) for __I$use$fp
    atan2.o(i.__hardfp_atan2) refers (Special) to usenofp.o(x$fpl$usenofp) for __I$use$fp
    atan2.o(i.__hardfp_atan2) refers to dunder.o(i.__mathlib_dbl_infnan2) for __mathlib_dbl_infnan2
    atan2.o(i.__hardfp_atan2) refers to atan.o(i.atan) for atan
    atan2.o(i.__hardfp_atan2) refers to basic.o(x$fpl$basic) for __aeabi_dneg
    atan2.o(i.__hardfp_atan2) refers to ddiv.o(x$fpl$ddiv) for __aeabi_ddiv
    atan2.o(i.__hardfp_atan2) refers to fabs.o(i.fabs) for fabs
    atan2.o(i.__hardfp_atan2) refers to daddsub_clz.o(x$fpl$dsub) for __aeabi_dsub
    atan2.o(i.__hardfp_atan2) refers to daddsub_clz.o(x$fpl$drsb) for __aeabi_drsub
    atan2.o(i.__hardfp_atan2) refers to qnan.o(.constdata) for __mathlib_zero
    atan2.o(i.__softfp_atan2) refers (Special) to usenofp.o(x$fpl$usenofp) for __I$use$fp
    atan2.o(i.__softfp_atan2) refers to atan2.o(i.__hardfp_atan2) for __hardfp_atan2
    atan2.o(i.atan2) refers (Special) to usenofp.o(x$fpl$usenofp) for __I$use$fp
    atan2.o(i.atan2) refers to atan2.o(i.__hardfp_atan2) for __hardfp_atan2
    atan2_x.o(i.____hardfp_atan2$lsc) refers (Special) to usenofp.o(x$fpl$usenofp) for __I$use$fp
    atan2_x.o(i.____hardfp_atan2$lsc) refers to dunder.o(i.__mathlib_dbl_infnan2) for __mathlib_dbl_infnan2
    atan2_x.o(i.____hardfp_atan2$lsc) refers to atan.o(i.atan) for atan
    atan2_x.o(i.____hardfp_atan2$lsc) refers to _rserrno.o(.text) for __set_errno
    atan2_x.o(i.____hardfp_atan2$lsc) refers to basic.o(x$fpl$basic) for __aeabi_dneg
    atan2_x.o(i.____hardfp_atan2$lsc) refers to ddiv.o(x$fpl$ddiv) for __aeabi_ddiv
    atan2_x.o(i.____hardfp_atan2$lsc) refers to fabs.o(i.fabs) for fabs
    atan2_x.o(i.____hardfp_atan2$lsc) refers to daddsub_clz.o(x$fpl$dsub) for __aeabi_dsub
    atan2_x.o(i.____hardfp_atan2$lsc) refers to daddsub_clz.o(x$fpl$drsb) for __aeabi_drsub
    atan2_x.o(i.____hardfp_atan2$lsc) refers to qnan.o(.constdata) for __mathlib_zero
    atan2_x.o(i.____softfp_atan2$lsc) refers (Special) to usenofp.o(x$fpl$usenofp) for __I$use$fp
    atan2_x.o(i.____softfp_atan2$lsc) refers to atan2_x.o(i.____hardfp_atan2$lsc) for ____hardfp_atan2$lsc
    atan2_x.o(i.__atan2$lsc) refers (Special) to usenofp.o(x$fpl$usenofp) for __I$use$fp
    atan2_x.o(i.__atan2$lsc) refers to atan2_x.o(i.____hardfp_atan2$lsc) for ____hardfp_atan2$lsc
    ceilf.o(i.__hardfp_ceilf) refers (Special) to usenofp.o(x$fpl$usenofp) for __I$use$fp
    ceilf.o(i.__softfp_ceilf) refers (Special) to usenofp.o(x$fpl$usenofp) for __I$use$fp
    ceilf.o(i.ceilf) refers (Special) to usenofp.o(x$fpl$usenofp) for __I$use$fp
    cos.o(i.__hardfp_cos) refers (Special) to usenofp.o(x$fpl$usenofp) for __I$use$fp
    cos.o(i.__hardfp_cos) refers to _rserrno.o(.text) for __set_errno
    cos.o(i.__hardfp_cos) refers to dunder.o(i.__mathlib_dbl_invalid) for __mathlib_dbl_invalid
    cos.o(i.__hardfp_cos) refers to dunder.o(i.__mathlib_dbl_infnan) for __mathlib_dbl_infnan
    cos.o(i.__hardfp_cos) refers to rred.o(i.__ieee754_rem_pio2) for __ieee754_rem_pio2
    cos.o(i.__hardfp_cos) refers to sin_i.o(i.__kernel_sin) for __kernel_sin
    cos.o(i.__hardfp_cos) refers to cos_i.o(i.__kernel_cos) for __kernel_cos
    cos.o(i.__hardfp_cos) refers to basic.o(x$fpl$basic) for __aeabi_dneg
    cos.o(i.__softfp_cos) refers (Special) to usenofp.o(x$fpl$usenofp) for __I$use$fp
    cos.o(i.__softfp_cos) refers to cos.o(i.__hardfp_cos) for __hardfp_cos
    cos.o(i.cos) refers (Special) to usenofp.o(x$fpl$usenofp) for __I$use$fp
    cos.o(i.cos) refers to cos.o(i.__hardfp_cos) for __hardfp_cos
    cos_x.o(i.____hardfp_cos$lsc) refers (Special) to usenofp.o(x$fpl$usenofp) for __I$use$fp
    cos_x.o(i.____hardfp_cos$lsc) refers to _rserrno.o(.text) for __set_errno
    cos_x.o(i.____hardfp_cos$lsc) refers to dunder.o(i.__mathlib_dbl_infnan) for __mathlib_dbl_infnan
    cos_x.o(i.____hardfp_cos$lsc) refers to rred.o(i.__ieee754_rem_pio2) for __ieee754_rem_pio2
    cos_x.o(i.____hardfp_cos$lsc) refers to sin_i.o(i.__kernel_sin) for __kernel_sin
    cos_x.o(i.____hardfp_cos$lsc) refers to cos_i.o(i.__kernel_cos) for __kernel_cos
    cos_x.o(i.____hardfp_cos$lsc) refers to basic.o(x$fpl$basic) for __aeabi_dneg
    cos_x.o(i.____softfp_cos$lsc) refers (Special) to usenofp.o(x$fpl$usenofp) for __I$use$fp
    cos_x.o(i.____softfp_cos$lsc) refers to cos_x.o(i.____hardfp_cos$lsc) for ____hardfp_cos$lsc
    cos_x.o(i.__cos$lsc) refers (Special) to usenofp.o(x$fpl$usenofp) for __I$use$fp
    cos_x.o(i.__cos$lsc) refers to cos_x.o(i.____hardfp_cos$lsc) for ____hardfp_cos$lsc
    fabs.o(i.__hardfp_fabs) refers (Special) to usenofp.o(x$fpl$usenofp) for __I$use$fp
    fabs.o(i.__softfp_fabs) refers (Special) to usenofp.o(x$fpl$usenofp) for __I$use$fp
    fabs.o(i.fabs) refers (Special) to usenofp.o(x$fpl$usenofp) for __I$use$fp
    pow.o(i.__hardfp_pow) refers (Special) to usenofp.o(x$fpl$usenofp) for __I$use$fp
    pow.o(i.__hardfp_pow) refers to dunder.o(i.__mathlib_dbl_infnan2) for __mathlib_dbl_infnan2
    pow.o(i.__hardfp_pow) refers to _rserrno.o(.text) for __set_errno
    pow.o(i.__hardfp_pow) refers to dunder.o(i.__mathlib_dbl_divzero) for __mathlib_dbl_divzero
    pow.o(i.__hardfp_pow) refers to basic.o(x$fpl$basic) for __aeabi_dneg
    pow.o(i.__hardfp_pow) refers to dunder.o(i.__mathlib_dbl_overflow) for __mathlib_dbl_overflow
    pow.o(i.__hardfp_pow) refers to ddiv.o(x$fpl$ddiv) for __aeabi_ddiv
    pow.o(i.__hardfp_pow) refers to sqrt.o(i.sqrt) for sqrt
    pow.o(i.__hardfp_pow) refers to fabs.o(i.fabs) for fabs
    pow.o(i.__hardfp_pow) refers to dflt_clz.o(x$fpl$dflt) for __aeabi_i2d
    pow.o(i.__hardfp_pow) refers to dunder.o(i.__mathlib_dbl_invalid) for __mathlib_dbl_invalid
    pow.o(i.__hardfp_pow) refers to dmul.o(x$fpl$dmul) for __aeabi_dmul
    pow.o(i.__hardfp_pow) refers to dunder.o(i.__mathlib_dbl_underflow) for __mathlib_dbl_underflow
    pow.o(i.__hardfp_pow) refers to daddsub_clz.o(x$fpl$dsub) for __aeabi_dsub
    pow.o(i.__hardfp_pow) refers to daddsub_clz.o(x$fpl$drsb) for __aeabi_drsub
    pow.o(i.__hardfp_pow) refers to qnan.o(.constdata) for __mathlib_zero
    pow.o(i.__hardfp_pow) refers to daddsub_clz.o(x$fpl$dadd) for __aeabi_dadd
    pow.o(i.__hardfp_pow) refers to poly.o(i.__kernel_poly) for __kernel_poly
    pow.o(i.__hardfp_pow) refers to pow.o(.constdata) for .constdata
    pow.o(i.__hardfp_pow) refers to drleqf.o(x$fpl$drleqf) for __aeabi_cdrcmple
    pow.o(i.__hardfp_pow) refers to scalbn.o(x$fpl$scalbn) for __ARM_scalbn
    pow.o(i.__hardfp_pow) refers to fpclassify.o(i.__ARM_fpclassify) for __ARM_fpclassify
    pow.o(i.__softfp_pow) refers (Special) to usenofp.o(x$fpl$usenofp) for __I$use$fp
    pow.o(i.__softfp_pow) refers to pow.o(i.__hardfp_pow) for __hardfp_pow
    pow.o(i.pow) refers (Special) to usenofp.o(x$fpl$usenofp) for __I$use$fp
    pow.o(i.pow) refers to pow.o(i.__hardfp_pow) for __hardfp_pow
    pow.o(.constdata) refers (Special) to usenofp.o(x$fpl$usenofp) for __I$use$fp
    pow_x.o(i.____hardfp_pow$lsc) refers (Special) to usenofp.o(x$fpl$usenofp) for __I$use$fp
    pow_x.o(i.____hardfp_pow$lsc) refers to dunder.o(i.__mathlib_dbl_infnan2) for __mathlib_dbl_infnan2
    pow_x.o(i.____hardfp_pow$lsc) refers to _rserrno.o(.text) for __set_errno
    pow_x.o(i.____hardfp_pow$lsc) refers to basic.o(x$fpl$basic) for __aeabi_dneg
    pow_x.o(i.____hardfp_pow$lsc) refers to ddiv.o(x$fpl$ddiv) for __aeabi_ddiv
    pow_x.o(i.____hardfp_pow$lsc) refers to sqrt.o(i.sqrt) for sqrt
    pow_x.o(i.____hardfp_pow$lsc) refers to fabs.o(i.fabs) for fabs
    pow_x.o(i.____hardfp_pow$lsc) refers to dflt_clz.o(x$fpl$dflt) for __aeabi_i2d
    pow_x.o(i.____hardfp_pow$lsc) refers to dmul.o(x$fpl$dmul) for __aeabi_dmul
    pow_x.o(i.____hardfp_pow$lsc) refers to daddsub_clz.o(x$fpl$dsub) for __aeabi_dsub
    pow_x.o(i.____hardfp_pow$lsc) refers to daddsub_clz.o(x$fpl$drsb) for __aeabi_drsub
    pow_x.o(i.____hardfp_pow$lsc) refers to qnan.o(.constdata) for __mathlib_zero
    pow_x.o(i.____hardfp_pow$lsc) refers to daddsub_clz.o(x$fpl$dadd) for __aeabi_dadd
    pow_x.o(i.____hardfp_pow$lsc) refers to poly.o(i.__kernel_poly) for __kernel_poly
    pow_x.o(i.____hardfp_pow$lsc) refers to pow_x.o(.constdata) for .constdata
    pow_x.o(i.____hardfp_pow$lsc) refers to drleqf.o(x$fpl$drleqf) for __aeabi_cdrcmple
    pow_x.o(i.____hardfp_pow$lsc) refers to scalbn.o(x$fpl$scalbn) for __ARM_scalbn
    pow_x.o(i.____softfp_pow$lsc) refers (Special) to usenofp.o(x$fpl$usenofp) for __I$use$fp
    pow_x.o(i.____softfp_pow$lsc) refers to pow_x.o(i.____hardfp_pow$lsc) for ____hardfp_pow$lsc
    pow_x.o(i.__pow$lsc) refers (Special) to usenofp.o(x$fpl$usenofp) for __I$use$fp
    pow_x.o(i.__pow$lsc) refers to pow_x.o(i.____hardfp_pow$lsc) for ____hardfp_pow$lsc
    pow_x.o(.constdata) refers (Special) to usenofp.o(x$fpl$usenofp) for __I$use$fp
    sin.o(i.__hardfp_sin) refers (Special) to usenofp.o(x$fpl$usenofp) for __I$use$fp
    sin.o(i.__hardfp_sin) refers to _rserrno.o(.text) for __set_errno
    sin.o(i.__hardfp_sin) refers to dunder.o(i.__mathlib_dbl_invalid) for __mathlib_dbl_invalid
    sin.o(i.__hardfp_sin) refers to dunder.o(i.__mathlib_dbl_infnan) for __mathlib_dbl_infnan
    sin.o(i.__hardfp_sin) refers to rred.o(i.__ieee754_rem_pio2) for __ieee754_rem_pio2
    sin.o(i.__hardfp_sin) refers to cos_i.o(i.__kernel_cos) for __kernel_cos
    sin.o(i.__hardfp_sin) refers to basic.o(x$fpl$basic) for __aeabi_dneg
    sin.o(i.__hardfp_sin) refers to sin_i.o(i.__kernel_sin) for __kernel_sin
    sin.o(i.__softfp_sin) refers (Special) to usenofp.o(x$fpl$usenofp) for __I$use$fp
    sin.o(i.__softfp_sin) refers to sin.o(i.__hardfp_sin) for __hardfp_sin
    sin.o(i.sin) refers (Special) to usenofp.o(x$fpl$usenofp) for __I$use$fp
    sin.o(i.sin) refers to sin.o(i.__hardfp_sin) for __hardfp_sin
    sin_x.o(i.____hardfp_sin$lsc) refers (Special) to usenofp.o(x$fpl$usenofp) for __I$use$fp
    sin_x.o(i.____hardfp_sin$lsc) refers to _rserrno.o(.text) for __set_errno
    sin_x.o(i.____hardfp_sin$lsc) refers to dunder.o(i.__mathlib_dbl_infnan) for __mathlib_dbl_infnan
    sin_x.o(i.____hardfp_sin$lsc) refers to rred.o(i.__ieee754_rem_pio2) for __ieee754_rem_pio2
    sin_x.o(i.____hardfp_sin$lsc) refers to cos_i.o(i.__kernel_cos) for __kernel_cos
    sin_x.o(i.____hardfp_sin$lsc) refers to basic.o(x$fpl$basic) for __aeabi_dneg
    sin_x.o(i.____hardfp_sin$lsc) refers to sin_i.o(i.__kernel_sin) for __kernel_sin
    sin_x.o(i.____softfp_sin$lsc) refers (Special) to usenofp.o(x$fpl$usenofp) for __I$use$fp
    sin_x.o(i.____softfp_sin$lsc) refers to sin_x.o(i.____hardfp_sin$lsc) for ____hardfp_sin$lsc
    sin_x.o(i.__sin$lsc) refers (Special) to usenofp.o(x$fpl$usenofp) for __I$use$fp
    sin_x.o(i.__sin$lsc) refers to sin_x.o(i.____hardfp_sin$lsc) for ____hardfp_sin$lsc
    sqrt.o(i.__hardfp_sqrt) refers (Special) to usenofp.o(x$fpl$usenofp) for __I$use$fp
    sqrt.o(i.__hardfp_sqrt) refers to dsqrt_umaal.o(x$fpl$dsqrt) for _dsqrt
    sqrt.o(i.__hardfp_sqrt) refers to _rserrno.o(.text) for __set_errno
    sqrt.o(i.__softfp_sqrt) refers (Special) to usenofp.o(x$fpl$usenofp) for __I$use$fp
    sqrt.o(i.__softfp_sqrt) refers to dsqrt_umaal.o(x$fpl$dsqrt) for _dsqrt
    sqrt.o(i.__softfp_sqrt) refers to _rserrno.o(.text) for __set_errno
    sqrt.o(i.sqrt) refers (Special) to usenofp.o(x$fpl$usenofp) for __I$use$fp
    sqrt.o(i.sqrt) refers to dsqrt_umaal.o(x$fpl$dsqrt) for _dsqrt
    sqrt.o(i.sqrt) refers to _rserrno.o(.text) for __set_errno
    sqrt_x.o(i.____hardfp_sqrt$lsc) refers (Special) to usenofp.o(x$fpl$usenofp) for __I$use$fp
    sqrt_x.o(i.____hardfp_sqrt$lsc) refers to dleqf.o(x$fpl$dleqf) for __aeabi_cdcmple
    sqrt_x.o(i.____hardfp_sqrt$lsc) refers to _rserrno.o(.text) for __set_errno
    sqrt_x.o(i.____hardfp_sqrt$lsc) refers to dsqrt_umaal.o(x$fpl$dsqrt) for _dsqrt
    sqrt_x.o(i.____softfp_sqrt$lsc) refers (Special) to usenofp.o(x$fpl$usenofp) for __I$use$fp
    sqrt_x.o(i.____softfp_sqrt$lsc) refers to dleqf.o(x$fpl$dleqf) for __aeabi_cdcmple
    sqrt_x.o(i.____softfp_sqrt$lsc) refers to _rserrno.o(.text) for __set_errno
    sqrt_x.o(i.____softfp_sqrt$lsc) refers to dsqrt_umaal.o(x$fpl$dsqrt) for _dsqrt
    sqrt_x.o(i.__sqrt$lsc) refers (Special) to usenofp.o(x$fpl$usenofp) for __I$use$fp
    sqrt_x.o(i.__sqrt$lsc) refers to dleqf.o(x$fpl$dleqf) for __aeabi_cdcmple
    sqrt_x.o(i.__sqrt$lsc) refers to _rserrno.o(.text) for __set_errno
    sqrt_x.o(i.__sqrt$lsc) refers to dsqrt_umaal.o(x$fpl$dsqrt) for _dsqrt
    __rtentry.o(.ARM.Collect$$rtentry$$00000000) refers (Special) to __rtentry2.o(.ARM.Collect$$rtentry$$0000000A) for __rt_entry_li
    __rtentry.o(.ARM.Collect$$rtentry$$00000000) refers (Special) to __rtentry2.o(.ARM.Collect$$rtentry$$0000000D) for __rt_entry_main
    __rtentry.o(.ARM.Collect$$rtentry$$00000000) refers (Special) to __rtentry2.o(.ARM.Collect$$rtentry$$0000000C) for __rt_entry_postli_1
    __rtentry.o(.ARM.Collect$$rtentry$$00000000) refers (Special) to __rtentry2.o(.ARM.Collect$$rtentry$$00000009) for __rt_entry_postsh_1
    __rtentry.o(.ARM.Collect$$rtentry$$00000000) refers (Special) to __rtentry2.o(.ARM.Collect$$rtentry$$00000002) for __rt_entry_presh_1
    __rtentry.o(.ARM.Collect$$rtentry$$00000000) refers (Special) to __rtentry4.o(.ARM.Collect$$rtentry$$00000004) for __rt_entry_sh
    aeabi_ldiv0_sigfpe.o(.text) refers to rt_div0.o(.text) for __rt_div0
    rt_new_handler_addr.o(.text) refers to rt_new_handler_addr.o(.bss) for __rt_new_handler_addr_data
    rt_new_handler_addr_intlibspace.o(.text) refers to libspace.o(.bss) for __libspace_start
    malloc.o(.text) refers (Special) to hguard.o(.text) for __heap$guard
    malloc.o(.text) refers (Special) to init_alloc.o(.text) for _init_alloc
    malloc.o(.text) refers to rt_heap_descriptor_intlibspace.o(.text) for __rt_heap_descriptor
    malloc.o(.text) refers to heapstubs.o(.text) for __Heap_Alloc
    free.o(.text) refers (Special) to hguard.o(.text) for __heap$guard
    free.o(.text) refers to rt_heap_descriptor_intlibspace.o(.text) for __rt_heap_descriptor
    free.o(.text) refers to heapstubs.o(.text) for __Heap_Free
    h1_alloc.o(.text) refers (Special) to h1_init.o(.text) for __Heap_Initialize
    h1_alloc.o(.text) refers to rt_heap_descriptor_intlibspace.o(.text) for __rt_heap_descriptor
    h1_alloc.o(.text) refers to init_alloc.o(.text) for __Heap_Full
    h1_free.o(.text) refers to rt_heap_descriptor_intlibspace.o(.text) for __rt_heap_descriptor
    h1_alloc_mt.o(.text) refers (Special) to h1_init.o(.text) for __Heap_Initialize
    h1_alloc_mt.o(.text) refers to init_alloc.o(.text) for __Heap_Full
    h1_alloc_mt.o(.text) refers to rt_heap_descriptor_intlibspace.o(.text) for __rt_heap_descriptor
    h1_free_mt.o(.text) refers to rt_heap_descriptor_intlibspace.o(.text) for __rt_heap_descriptor
    heap2.o(i._FDIterate) refers to heap2.o(.conststring) for .conststring
    heap2.o(i.___Heap_ProvideMemory$realtime) refers to fdtree.o(i._FDTree_Delete) for _FDTree_Delete
    heap2.o(i.___Heap_ProvideMemory$realtime) refers to fdtree.o(i._FDTree_Insert) for _FDTree_Insert
    heap2.o(i.___Heap_Stats$realtime) refers to heap2.o(i._Heap2_StatsIterate) for _Heap2_StatsIterate
    heap2.o(i.___Heap_Valid$realtime) refers to heap2.o(i._FDIterate) for _FDIterate
    heap2.o(i.___Heap_Valid$realtime) refers to heap2.o(.conststring) for .conststring
    heap2.o(i._free$realtime) refers to rt_heap_descriptor_intlibspace.o(.text) for __rt_heap_descriptor
    heap2.o(i._free$realtime) refers to fdtree.o(i._FDTree_Delete) for _FDTree_Delete
    heap2.o(i._free$realtime) refers to fdtree.o(i._FDTree_Insert) for _FDTree_Insert
    heap2.o(i._malloc$realtime) refers to rt_heap_descriptor_intlibspace.o(.text) for __rt_heap_descriptor
    heap2.o(i._malloc$realtime) refers to fdtree.o(i._FDTree_FindFirst) for _FDTree_FindFirst
    heap2.o(i._malloc$realtime) refers to init_alloc.o(.text) for __Heap_Full
    heap2.o(i._malloc$realtime) refers to fdtree.o(i._FDTree_RemoveNode) for _FDTree_RemoveNode
    heap2.o(i._malloc$realtime) refers to fdtree.o(i._FDTree_Insert) for _FDTree_Insert
    heap2.o(i._posix_memalign$realtime) refers to rt_heap_descriptor_intlibspace.o(.text) for __rt_heap_descriptor
    heap2.o(i._posix_memalign$realtime) refers to fdtree.o(i._FDTree_FindFirst) for _FDTree_FindFirst
    heap2.o(i._posix_memalign$realtime) refers to init_alloc.o(.text) for __Heap_Full
    heap2.o(i._posix_memalign$realtime) refers to fdtree.o(i._FDTree_RemoveNode) for _FDTree_RemoveNode
    heap2.o(i._posix_memalign$realtime) refers to fdtree.o(i._FDTree_Insert) for _FDTree_Insert
    heap2.o(i._realloc$realtime) refers to rt_heap_descriptor_intlibspace.o(.text) for __rt_heap_descriptor
    heap2.o(i._realloc$realtime) refers to fdtree.o(i._FDTree_Insert) for _FDTree_Insert
    heap2.o(i._realloc$realtime) refers to h1_free.o(.text) for free
    heap2.o(i._realloc$realtime) refers to h1_alloc.o(.text) for malloc
    heap2.o(i._realloc$realtime) refers to fdtree.o(i._FDTree_Delete) for _FDTree_Delete
    heap2.o(i._realloc$realtime) refers to rt_memcpy_w.o(.text) for __aeabi_memcpy4
    heap2mt.o(i._FDIterate) refers to heap2mt.o(.conststring) for .conststring
    heap2mt.o(i.___Heap_Initialize$realtime$concurrent) refers to mutex_dummy.o(.text) for _mutex_initialize
    heap2mt.o(i.___Heap_ProvideMemory$realtime$concurrent) refers to fdtree.o(i._FDTree_Delete) for _FDTree_Delete
    heap2mt.o(i.___Heap_ProvideMemory$realtime$concurrent) refers to fdtree.o(i._FDTree_Insert) for _FDTree_Insert
    heap2mt.o(i.___Heap_Stats$realtime$concurrent) refers to heap2mt.o(i._Heap2_StatsIterate) for _Heap2_StatsIterate
    heap2mt.o(i.___Heap_Valid$realtime$concurrent) refers to heap2mt.o(i._FDIterate) for _FDIterate
    heap2mt.o(i.___Heap_Valid$realtime$concurrent) refers to heap2mt.o(.conststring) for .conststring
    heap2mt.o(i._free$realtime$concurrent) refers to rt_heap_descriptor_intlibspace.o(.text) for __rt_heap_descriptor
    heap2mt.o(i._free$realtime$concurrent) refers to fdtree.o(i._FDTree_Delete) for _FDTree_Delete
    heap2mt.o(i._free$realtime$concurrent) refers to fdtree.o(i._FDTree_Insert) for _FDTree_Insert
    heap2mt.o(i._malloc$realtime$concurrent) refers to rt_heap_descriptor_intlibspace.o(.text) for __rt_heap_descriptor
    heap2mt.o(i._malloc$realtime$concurrent) refers to fdtree.o(i._FDTree_FindFirst) for _FDTree_FindFirst
    heap2mt.o(i._malloc$realtime$concurrent) refers to init_alloc.o(.text) for __Heap_Full
    heap2mt.o(i._malloc$realtime$concurrent) refers to fdtree.o(i._FDTree_RemoveNode) for _FDTree_RemoveNode
    heap2mt.o(i._malloc$realtime$concurrent) refers to fdtree.o(i._FDTree_Insert) for _FDTree_Insert
    heap2mt.o(i._posix_memalign$realtime$concurrent) refers to rt_heap_descriptor_intlibspace.o(.text) for __rt_heap_descriptor
    heap2mt.o(i._posix_memalign$realtime$concurrent) refers to fdtree.o(i._FDTree_FindFirst) for _FDTree_FindFirst
    heap2mt.o(i._posix_memalign$realtime$concurrent) refers to init_alloc.o(.text) for __Heap_Full
    heap2mt.o(i._posix_memalign$realtime$concurrent) refers to fdtree.o(i._FDTree_RemoveNode) for _FDTree_RemoveNode
    heap2mt.o(i._posix_memalign$realtime$concurrent) refers to fdtree.o(i._FDTree_Insert) for _FDTree_Insert
    heap2mt.o(i._realloc$realtime$concurrent) refers to rt_heap_descriptor_intlibspace.o(.text) for __rt_heap_descriptor
    heap2mt.o(i._realloc$realtime$concurrent) refers to fdtree.o(i._FDTree_Insert) for _FDTree_Insert
    heap2mt.o(i._realloc$realtime$concurrent) refers to h1_free.o(.text) for free
    heap2mt.o(i._realloc$realtime$concurrent) refers to h1_alloc.o(.text) for malloc
    heap2mt.o(i._realloc$realtime$concurrent) refers to fdtree.o(i._FDTree_Delete) for _FDTree_Delete
    heap2mt.o(i._realloc$realtime$concurrent) refers to rt_memcpy_w.o(.text) for __aeabi_memcpy4
    _rserrno.o(.text) refers to rt_errno_addr_intlibspace.o(.text) for __aeabi_errno_addr
    rt_memcpy_v6.o(.text) refers to rt_memcpy_w.o(.text) for __aeabi_memcpy4
    rt_memmove_v6.o(.text) refers to rt_memcpy_v6.o(.text) for __aeabi_memcpy
    rt_memmove_v6.o(.text) refers to rt_memmove_w.o(.text) for __memmove_aligned
    libinit2.o(.ARM.Collect$$libinit$$00000001) refers to fpinit.o(x$fpl$fpinit) for _fp_init
    libinit2.o(.ARM.Collect$$libinit$$00000005) refers (Weak) to init_alloc.o(.text) for _init_alloc
    libinit2.o(.ARM.Collect$$libinit$$0000000F) refers (Weak) to rt_locale_intlibspace.o(.text) for __rt_locale
    libinit2.o(.ARM.Collect$$libinit$$00000010) refers to libinit2.o(.ARM.Collect$$libinit$$0000000F) for .ARM.Collect$$libinit$$0000000F
    libinit2.o(.ARM.Collect$$libinit$$00000010) refers (Weak) to lc_collate_c.o(locale$$code) for _get_lc_collate
    libinit2.o(.ARM.Collect$$libinit$$00000012) refers to libinit2.o(.ARM.Collect$$libinit$$0000000F) for .ARM.Collect$$libinit$$0000000F
    libinit2.o(.ARM.Collect$$libinit$$00000012) refers (Weak) to lc_ctype_c.o(locale$$code) for _get_lc_ctype
    libinit2.o(.ARM.Collect$$libinit$$00000014) refers to libinit2.o(.ARM.Collect$$libinit$$0000000F) for .ARM.Collect$$libinit$$0000000F
    libinit2.o(.ARM.Collect$$libinit$$00000014) refers (Weak) to lc_monetary_c.o(locale$$code) for _get_lc_monetary
    libinit2.o(.ARM.Collect$$libinit$$00000016) refers to libinit2.o(.ARM.Collect$$libinit$$0000000F) for .ARM.Collect$$libinit$$0000000F
    libinit2.o(.ARM.Collect$$libinit$$00000016) refers (Weak) to lc_numeric_c.o(locale$$code) for _get_lc_numeric
    libinit2.o(.ARM.Collect$$libinit$$00000018) refers to libinit2.o(.ARM.Collect$$libinit$$0000000F) for .ARM.Collect$$libinit$$0000000F
    libinit2.o(.ARM.Collect$$libinit$$00000024) refers (Weak) to initio.o(.text) for _initio
    libinit2.o(.ARM.Collect$$libinit$$00000026) refers to argv_veneer.o(.emb_text) for __ARM_argv_veneer
    libinit2.o(.ARM.Collect$$libinit$$00000027) refers to argv_veneer.o(.emb_text) for __ARM_argv_veneer
    libinit2.o(.ARM.Collect$$libinit$$00000031) refers (Weak) to init_aeabi.o(.text) for __cpp_initialize__aeabi_
    rwstdexcept.o(i._ZN37_INTERNAL_15_rwstdexcept_cpp_8697b68a4__rw13__rw_vfmatstrEPcjPKcSt9__va_list) refers to array_new.o(i._Znaj) for operator new[] (unsigned)
    rwstdexcept.o(i._ZN37_INTERNAL_15_rwstdexcept_cpp_8697b68a4__rw13__rw_vfmatstrEPcjPKcSt9__va_list) refers to vsnprintf.o(.text) for vsnprintf
    rwstdexcept.o(i._ZN37_INTERNAL_15_rwstdexcept_cpp_8697b68a4__rw13__rw_vfmatstrEPcjPKcSt9__va_list) refers to array_del.o(i._ZdaPv) for operator delete[] (void*)
    rwstdexcept.o(i._ZN37_INTERNAL_15_rwstdexcept_cpp_8697b68a4__rw13__rw_vfmatstrEPcjiSt9__va_list) refers to strrchr.o(.text) for strrchr
    rwstdexcept.o(i._ZN37_INTERNAL_15_rwstdexcept_cpp_8697b68a4__rw13__rw_vfmatstrEPcjiSt9__va_list) refers to sscanf.o(.text) for sscanf
    rwstdexcept.o(i._ZN37_INTERNAL_15_rwstdexcept_cpp_8697b68a4__rw13__rw_vfmatstrEPcjiSt9__va_list) refers to locale.o(t._ZNSsC1EPKcRKSaIcE) for std::basic_string<char, std::char_traits<char>, std::allocator<char>>::basic_string(const char*, const std::allocator<char>&)
    rwstdexcept.o(i._ZN37_INTERNAL_15_rwstdexcept_cpp_8697b68a4__rw13__rw_vfmatstrEPcjiSt9__va_list) refers to char.o(t._ZNSsC1ERKSs) for std::basic_string<char, std::char_traits<char>, std::allocator<char>>::basic_string(const std::basic_string<char, std::char_traits<char>, std::allocator<char>>&)
    rwstdexcept.o(i._ZN37_INTERNAL_15_rwstdexcept_cpp_8697b68a4__rw13__rw_vfmatstrEPcjiSt9__va_list) refers to char.o(t._ZNSsD1Ev) for std::basic_string<char, std::char_traits<char>, std::allocator<char>>::~basic_string()
    rwstdexcept.o(i._ZN37_INTERNAL_15_rwstdexcept_cpp_8697b68a4__rw13__rw_vfmatstrEPcjiSt9__va_list) refers to rwstdexcept.o(i._ZNSt6localeC1Ev) for std::locale::locale()
    rwstdexcept.o(i._ZN37_INTERNAL_15_rwstdexcept_cpp_8697b68a4__rw13__rw_vfmatstrEPcjiSt9__va_list) refers to locale.o(i._ZNSt6localeD1Ev) for std::locale::~locale()
    rwstdexcept.o(i._ZN37_INTERNAL_15_rwstdexcept_cpp_8697b68a4__rw13__rw_vfmatstrEPcjiSt9__va_list) refers to rwstdexcept.o(i._ZN37_INTERNAL_15_rwstdexcept_cpp_8697b68a4__rw13__rw_vfmatstrEPcjPKcSt9__va_list) for [local to rwstdexcept_cpp]::__rw::__rw_vfmatstr(char*, unsigned, const char*, std::__va_list)
    rwstdexcept.o(i._ZN37_INTERNAL_15_rwstdexcept_cpp_8697b68a4__rw13__rw_vfmatstrEPcjiSt9__va_list) refers to rwstdexcept.o(.data) for .data
    rwstdexcept.o(i._ZN37_INTERNAL_15_rwstdexcept_cpp_8697b68a4__rw13__rw_vfmatstrEPcjiSt9__va_list) refers to rwstdexcept.o(.bss) for .bss
    rwstdexcept.o(i._ZN37_INTERNAL_15_rwstdexcept_cpp_8697b68a4__rw13__rw_vfmatstrEPcjiSt9__va_list) refers to rwstdexcept.o(.constdata__ZTVNSt6locale5facetE) for vtable for std::locale::facet
    rwstdexcept.o(i._ZN37_INTERNAL_15_rwstdexcept_cpp_8697b68a4__rw13__rw_vfmatstrEPcjiSt9__va_list) refers to rwstdexcept.o(.constdata__ZZNSt8messagesIcEC1EjEs) for std::messages<char>::messages(unsigned)::string
    rwstdexcept.o(i._ZN37_INTERNAL_15_rwstdexcept_cpp_8697b68a4__rw13__rw_vfmatstrEPcjiSt9__va_list) refers to rwstdexcept.o(.constdata__ZTVSt8messagesIcE) for vtable for std::messages<char>
    rwstdexcept.o(i._ZN37_INTERNAL_15_rwstdexcept_cpp_8697b68a4__rw13__rw_vfmatstrEPcjiSt9__va_list.clean) refers to char.o(t._ZNSsD1Ev) for std::basic_string<char, std::char_traits<char>, std::allocator<char>>::~basic_string()
    rwstdexcept.o(i._ZN37_INTERNAL_15_rwstdexcept_cpp_8697b68a4__rw13__rw_vfmatstrEPcjiSt9__va_list.clean) refers to locale.o(i._ZNSt6localeD1Ev) for std::locale::~locale()
    rwstdexcept.o(i._ZN37_INTERNAL_15_rwstdexcept_cpp_8697b68a4__rw13__rw_vfmatstrEPcjiSt9__va_list.clean) refers to arm_exceptions_cleanup.o(.emb_text) for __cxa_end_cleanup
    rwstdexcept.o(i._ZN4__rw10__rw_throwEiz) refers to rwstdexcept.o(i._ZNSt14__rw_exceptionC1Ev) for std::__rw_exception::__rw_exception()
    rwstdexcept.o(i._ZN4__rw10__rw_throwEiz) refers to rwstdexcept.o(i._ZNSt14__rw_exception10_C_vformatEiSt9__va_list) for std::__rw_exception::_C_vformat(int, std::__va_list)
    rwstdexcept.o(i._ZN4__rw10__rw_throwEiz) refers to rwthrowproc_noex.o(.data) for __rw_throw_proc
    rwstdexcept.o(i._ZN4__rw16__rw_assert_failEPKcS1_iS1_) refers to fprintf.o(.text) for fprintf
    rwstdexcept.o(i._ZN4__rw16__rw_assert_failEPKcS1_iS1_) refers to abort.o(.text) for abort
    rwstdexcept.o(i._ZN4__rw16__rw_assert_failEPKcS1_iS1_) refers to stdio_streams.o(.bss) for __stderr
    rwstdexcept.o(i._ZNSt14__rw_exception10_C_vformatEPKcSt9__va_list) refers to rwstdexcept.o(i._ZN37_INTERNAL_15_rwstdexcept_cpp_8697b68a4__rw13__rw_vfmatstrEPcjPKcSt9__va_list) for [local to rwstdexcept_cpp]::__rw::__rw_vfmatstr(char*, unsigned, const char*, std::__va_list)
    rwstdexcept.o(i._ZNSt14__rw_exception10_C_vformatEPKcSt9__va_list) refers to strlen.o(.text) for strlen
    rwstdexcept.o(i._ZNSt14__rw_exception10_C_vformatEPKcSt9__va_list) refers to array_new.o(i._Znaj) for operator new[] (unsigned)
    rwstdexcept.o(i._ZNSt14__rw_exception10_C_vformatEPKcSt9__va_list) refers to strcpy.o(.text) for strcpy
    rwstdexcept.o(i._ZNSt14__rw_exception10_C_vformatEPKcSt9__va_list) refers to strcat.o(.text) for strcat
    rwstdexcept.o(i._ZNSt14__rw_exception10_C_vformatEPKcSt9__va_list) refers to array_del.o(i._ZdaPv) for operator delete[] (void*)
    rwstdexcept.o(i._ZNSt14__rw_exception10_C_vformatEiSt9__va_list) refers to rwstdexcept.o(i._ZN37_INTERNAL_15_rwstdexcept_cpp_8697b68a4__rw13__rw_vfmatstrEPcjiSt9__va_list) for [local to rwstdexcept_cpp]::__rw::__rw_vfmatstr(char*, unsigned, int, std::__va_list)
    rwstdexcept.o(i._ZNSt14__rw_exception10_C_vformatEiSt9__va_list) refers to rwstdexcept.o(i._ZN37_INTERNAL_15_rwstdexcept_cpp_8697b68a4__rw13__rw_vfmatstrEPcjPKcSt9__va_list) for [local to rwstdexcept_cpp]::__rw::__rw_vfmatstr(char*, unsigned, const char*, std::__va_list)
    rwstdexcept.o(i._ZNSt14__rw_exception10_C_vformatEiSt9__va_list) refers to strlen.o(.text) for strlen
    rwstdexcept.o(i._ZNSt14__rw_exception10_C_vformatEiSt9__va_list) refers to array_new.o(i._Znaj) for operator new[] (unsigned)
    rwstdexcept.o(i._ZNSt14__rw_exception10_C_vformatEiSt9__va_list) refers to strcpy.o(.text) for strcpy
    rwstdexcept.o(i._ZNSt14__rw_exception10_C_vformatEiSt9__va_list) refers to strcat.o(.text) for strcat
    rwstdexcept.o(i._ZNSt14__rw_exception10_C_vformatEiSt9__va_list) refers to array_del.o(i._ZdaPv) for operator delete[] (void*)
    rwstdexcept.o(i._ZNSt14__rw_exception10_C_vformatEiSt9__va_list) refers to rwstdexcept.o(.constdata) for .constdata
    rwstdexcept.o(i._ZNSt14__rw_exception9_C_assignEPKcj) refers to strlen.o(.text) for strlen
    rwstdexcept.o(i._ZNSt14__rw_exception9_C_assignEPKcj) refers to array_new.o(i._Znaj) for operator new[] (unsigned)
    rwstdexcept.o(i._ZNSt14__rw_exception9_C_assignEPKcj) refers to strcpy.o(.text) for strcpy
    rwstdexcept.o(i._ZNSt14__rw_exception9_C_assignEPKcj) refers to array_del.o(i._ZdaPv) for operator delete[] (void*)
    rwstdexcept.o(i._ZNSt14__rw_exceptionC1ERKSs) refers to exception_ctor.o(i._ZNSt9exceptionC1Ev) for std::exception::exception()
    rwstdexcept.o(i._ZNSt14__rw_exceptionC1ERKSs) refers to rwstdexcept.o(i._ZNSt14__rw_exception9_C_assignEPKcj) for std::__rw_exception::_C_assign(const char*, unsigned)
    rwstdexcept.o(i._ZNSt14__rw_exceptionC1ERKSs) refers to rwstdexcept.o(.constdata__ZTVSt14__rw_exception) for vtable for std::__rw_exception
    rwstdexcept.o(.ARM.exidx) refers to rwstdexcept.o(i._ZN37_INTERNAL_15_rwstdexcept_cpp_8697b68a4__rw13__rw_vfmatstrEPcjPKcSt9__va_list) for i._ZN37_INTERNAL_15_rwstdexcept_cpp_8697b68a4__rw13__rw_vfmatstrEPcjPKcSt9__va_list
    rwstdexcept.o(.ARM.exidx) refers to unwind_pr0.o(.text) for __aeabi_unwind_cpp_pr0
    rwstdexcept.o(.ARM.exidx) refers to rwstdexcept.o(i._ZN37_INTERNAL_15_rwstdexcept_cpp_8697b68a4__rw13__rw_vfmatstrEPcjiSt9__va_list) for i._ZN37_INTERNAL_15_rwstdexcept_cpp_8697b68a4__rw13__rw_vfmatstrEPcjiSt9__va_list
    rwstdexcept.o(.ARM.exidx) refers to unwind_pr0.o(.text) for __aeabi_unwind_cpp_pr0
    rwstdexcept.o(.ARM.exidx) refers to rwstdexcept.o(.ARM.extab) for .extab._ZN37_INTERNAL_15_rwstdexcept_cpp_8697b68a4__rw13__rw_vfmatstrEPcjiSt9__va_list
    rwstdexcept.o(.ARM.exidx) refers to rwstdexcept.o(i._ZN37_INTERNAL_15_rwstdexcept_cpp_8697b68a4__rw13__rw_vfmatstrEPcjiSt9__va_list.clean) for i._ZN37_INTERNAL_15_rwstdexcept_cpp_8697b68a4__rw13__rw_vfmatstrEPcjiSt9__va_list.clean
    rwstdexcept.o(.ARM.exidx) refers to rwstdexcept.o(i._ZNSt14__rw_exception10_C_vformatEiSt9__va_list) for i._ZNSt14__rw_exception10_C_vformatEiSt9__va_list
    rwstdexcept.o(.ARM.exidx) refers to unwind_pr0.o(.text) for __aeabi_unwind_cpp_pr0
    rwstdexcept.o(.ARM.exidx) refers to rwstdexcept.o(.ARM.extab) for .extab._ZNSt14__rw_exception10_C_vformatEiSt9__va_list
    rwstdexcept.o(.ARM.exidx) refers to rwstdexcept.o(i._ZN4__rw10__rw_throwEiz) for i._ZN4__rw10__rw_throwEiz
    rwstdexcept.o(.ARM.exidx) refers to unwind_pr0.o(.text) for __aeabi_unwind_cpp_pr0
    rwstdexcept.o(.ARM.exidx) refers to rwstdexcept.o(i._ZNSt14__rw_exception9_C_assignEPKcj) for i._ZNSt14__rw_exception9_C_assignEPKcj
    rwstdexcept.o(.ARM.exidx) refers to unwind_pr0.o(.text) for __aeabi_unwind_cpp_pr0
    rwstdexcept.o(.ARM.exidx) refers to rwstdexcept.o(.ARM.extab) for .extab._ZNSt14__rw_exception9_C_assignEPKcj
    rwstdexcept.o(.ARM.exidx) refers to rwstdexcept.o(i._ZNSt14__rw_exception10_C_vformatEPKcSt9__va_list) for i._ZNSt14__rw_exception10_C_vformatEPKcSt9__va_list
    rwstdexcept.o(.ARM.exidx) refers to unwind_pr0.o(.text) for __aeabi_unwind_cpp_pr0
    rwstdexcept.o(.ARM.exidx) refers to rwstdexcept.o(.ARM.extab) for .extab._ZNSt14__rw_exception10_C_vformatEPKcSt9__va_list
    rwstdexcept.o(.ARM.exidx) refers to rwstdexcept.o(i._ZNSt14__rw_exceptionC1ERKSs) for i._ZNSt14__rw_exceptionC1ERKSs
    rwstdexcept.o(.ARM.exidx) refers to rwstdexcept.o(i._ZN4__rw16__rw_assert_failEPKcS1_iS1_) for i._ZN4__rw16__rw_assert_failEPKcS1_iS1_
    rwstdexcept.o(.ARM.extab) refers to rwstdexcept.o(i._ZN37_INTERNAL_15_rwstdexcept_cpp_8697b68a4__rw13__rw_vfmatstrEPcjiSt9__va_list.clean) for i._ZN37_INTERNAL_15_rwstdexcept_cpp_8697b68a4__rw13__rw_vfmatstrEPcjiSt9__va_list.clean
    rwstdexcept.o(.ARM.extab) refers to arm_callunex_noexceptions.o(.text) for __cxa_call_unexpected
    rwstdexcept.o(.ARM.extab) refers to rwstdexcept.o(i._ZNSt14__rw_exception10_C_vformatEiSt9__va_list) for i._ZNSt14__rw_exception10_C_vformatEiSt9__va_list
    rwstdexcept.o(.ARM.extab) refers to arm_callunex_noexceptions.o(.text) for __cxa_call_unexpected
    rwstdexcept.o(.ARM.extab) refers to rwstdexcept.o(i._ZNSt14__rw_exception9_C_assignEPKcj) for i._ZNSt14__rw_exception9_C_assignEPKcj
    rwstdexcept.o(.ARM.extab) refers to arm_callunex_noexceptions.o(.text) for __cxa_call_unexpected
    rwstdexcept.o(.ARM.extab) refers to rwstdexcept.o(i._ZNSt14__rw_exception10_C_vformatEPKcSt9__va_list) for i._ZNSt14__rw_exception10_C_vformatEPKcSt9__va_list
    rwstdexcept.o(.constdata) refers to rwstdexcept.o(.conststring) for .conststring
    arm_begincatch_noexceptions.o(.ARM.exidx) refers to arm_begincatch_noexceptions.o(.text) for .text
    arm_callunex_noexceptions.o(.ARM.exidx) refers to arm_callunex_noexceptions.o(.text) for .text
    arm_endcatch_noexceptions.o(.ARM.exidx) refers to arm_endcatch_noexceptions.o(.text) for .text
    arm_newhandler_noexceptions.o(.text) refers to arm_exceptions_terminate.o(.text) for std::terminate()
    arm_newhandler_noexceptions.o(.ARM.exidx) refers to arm_newhandler_noexceptions.o(.text) for .text
    bad_alloc_dtor.o(i._ZNSt9bad_allocD0Ev) refers to bad_alloc_dtor.o(i._ZNSt9bad_allocD1Ev) for std::bad_alloc::~bad_alloc()
    bad_alloc_dtor.o(i._ZNSt9bad_allocD0Ev) refers to delete.o(i._ZdlPv) for operator delete (void*)
    bad_alloc_dtor.o(.ARM.exidx) refers to bad_alloc_dtor.o(i._ZNSt9bad_allocD1Ev) for i._ZNSt9bad_allocD1Ev
    bad_alloc_dtor.o(.ARM.exidx) refers to bad_alloc_dtor.o(i._ZNSt9bad_allocD0Ev) for i._ZNSt9bad_allocD0Ev
    type_info_dtor.o(.ARM.exidx) refers to type_info_dtor.o(i._ZNSt9type_infoD1Ev) for i._ZNSt9type_infoD1Ev
    type_info_dtor.o(.ARM.exidx) refers to type_info_dtor.o(i._ZNSt9type_infoD0Ev) for i._ZNSt9type_infoD0Ev
    arm_exceptions_callterm.o(.text) refers to arm_exceptions_globs.o(.text) for __cxa_get_globals
    arm_exceptions_callterm.o(.text) refers to arm_exceptions_support.o(.text) for __ARM::is_foreign_exception(_Unwind_Control_Block*)
    arm_exceptions_callterm.o(.text) refers to arm_exceptions_terminate.o(.text) for std::terminate()
    arm_exceptions_callterm.o(.ARM.exidx) refers to arm_exceptions_callterm.o(.text) for .text
    arm_exceptions_cleanup.o(.emb_text) refers to arm_exceptions_cleanup.o(.text) for __ARM_cxa_end_cleanup
    arm_exceptions_cleanup.o(.emb_text) refers (Weak) to unwinder.o(.emb_text) for _Unwind_Resume
    arm_exceptions_cleanup.o(.ARM.exidx) refers to arm_exceptions_cleanup.o(.emb_text) for __cxa_end_cleanup
    arm_exceptions_cleanup.o(.text) refers to arm_exceptions_globs.o(.text) for __cxa_get_globals
    arm_exceptions_cleanup.o(.text) refers to arm_exceptions_support.o(.text) for __ARM::is_foreign_exception(_Unwind_Control_Block*)
    arm_exceptions_cleanup.o(.text) refers to arm_exceptions_foreign.o(.text) for __ARM::get_foreign_intermediary(__cxa_exception*, _Unwind_Control_Block*)
    arm_exceptions_cleanup.o(.text) refers to arm_exceptions_terminate.o(.text) for std::terminate()
    arm_exceptions_cleanup.o(.text) refers to arm_exceptions_free.o(.text) for __cxa_free_exception
    arm_exceptions_cleanup.o(.ARM.exidx) refers to arm_exceptions_cleanup.o(.text) for .text
    unwind_pr0.o(.text) refers to unwind_prcommon.o(.text) for __ARM_unwind_cpp_prcommon
    unwind_pr0.o(.ARM.exidx) refers to unwind_pr0.o(.text) for .text
    unwind_pr1.o(.text) refers to unwind_prcommon.o(.text) for __ARM_unwind_cpp_prcommon
    unwind_pr1.o(.ARM.exidx) refers to unwind_pr1.o(.text) for .text
    dcmpi.o(x$fpl$dcmpinf) refers (Special) to usenofp.o(x$fpl$usenofp) for __I$use$fp
    dnaninf.o(x$fpl$dnaninf) refers (Special) to usenofp.o(x$fpl$usenofp) for __I$use$fp
    dretinf.o(x$fpl$dretinf) refers (Special) to usenofp.o(x$fpl$usenofp) for __I$use$fp
    dsqrt_umaal.o(x$fpl$dsqrt) refers (Special) to usenofp.o(x$fpl$usenofp) for __I$use$fp
    dsqrt_umaal.o(x$fpl$dsqrt) refers to dnaninf.o(x$fpl$dnaninf) for __fpl_dnaninf
    fnaninf.o(x$fpl$fnaninf) refers (Special) to usenofp.o(x$fpl$usenofp) for __I$use$fp
    fretinf.o(x$fpl$fretinf) refers (Special) to usenofp.o(x$fpl$usenofp) for __I$use$fp
    scalbn.o(x$fpl$scalbn) refers (Special) to usenofp.o(x$fpl$usenofp) for __I$use$fp
    scalbn.o(x$fpl$scalbn) refers to dcheck1.o(x$fpl$dcheck1) for __fpl_dcheck_NaN1
    atan.o(i.__hardfp_atan) refers (Special) to usenofp.o(x$fpl$usenofp) for __I$use$fp
    atan.o(i.__hardfp_atan) refers to dunder.o(i.__mathlib_dbl_infnan) for __mathlib_dbl_infnan
    atan.o(i.__hardfp_atan) refers to fpclassify.o(i.__ARM_fpclassify) for __ARM_fpclassify
    atan.o(i.__hardfp_atan) refers to dunder.o(i.__mathlib_dbl_underflow) for __mathlib_dbl_underflow
    atan.o(i.__hardfp_atan) refers to fabs.o(i.fabs) for fabs
    atan.o(i.__hardfp_atan) refers to daddsub_clz.o(x$fpl$dadd) for __aeabi_dadd
    atan.o(i.__hardfp_atan) refers to dmul.o(x$fpl$dmul) for __aeabi_dmul
    atan.o(i.__hardfp_atan) refers to daddsub_clz.o(x$fpl$dsub) for __aeabi_dsub
    atan.o(i.__hardfp_atan) refers to ddiv.o(x$fpl$ddiv) for __aeabi_ddiv
    atan.o(i.__hardfp_atan) refers to poly.o(i.__kernel_poly) for __kernel_poly
    atan.o(i.__hardfp_atan) refers to daddsub_clz.o(x$fpl$drsb) for __aeabi_drsub
    atan.o(i.__hardfp_atan) refers to basic.o(x$fpl$basic) for __aeabi_dneg
    atan.o(i.__hardfp_atan) refers to atan.o(.constdata) for .constdata
    atan.o(i.__softfp_atan) refers (Special) to usenofp.o(x$fpl$usenofp) for __I$use$fp
    atan.o(i.__softfp_atan) refers to atan.o(i.__hardfp_atan) for __hardfp_atan
    atan.o(i.atan) refers (Special) to usenofp.o(x$fpl$usenofp) for __I$use$fp
    atan.o(i.atan) refers to atan.o(i.__hardfp_atan) for __hardfp_atan
    atan.o(.constdata) refers (Special) to usenofp.o(x$fpl$usenofp) for __I$use$fp
    atan_x.o(i.____hardfp_atan$lsc) refers (Special) to usenofp.o(x$fpl$usenofp) for __I$use$fp
    atan_x.o(i.____hardfp_atan$lsc) refers to dunder.o(i.__mathlib_dbl_infnan) for __mathlib_dbl_infnan
    atan_x.o(i.____hardfp_atan$lsc) refers to fabs.o(i.fabs) for fabs
    atan_x.o(i.____hardfp_atan$lsc) refers to daddsub_clz.o(x$fpl$dadd) for __aeabi_dadd
    atan_x.o(i.____hardfp_atan$lsc) refers to dmul.o(x$fpl$dmul) for __aeabi_dmul
    atan_x.o(i.____hardfp_atan$lsc) refers to daddsub_clz.o(x$fpl$dsub) for __aeabi_dsub
    atan_x.o(i.____hardfp_atan$lsc) refers to ddiv.o(x$fpl$ddiv) for __aeabi_ddiv
    atan_x.o(i.____hardfp_atan$lsc) refers to poly.o(i.__kernel_poly) for __kernel_poly
    atan_x.o(i.____hardfp_atan$lsc) refers to daddsub_clz.o(x$fpl$drsb) for __aeabi_drsub
    atan_x.o(i.____hardfp_atan$lsc) refers to basic.o(x$fpl$basic) for __aeabi_dneg
    atan_x.o(i.____hardfp_atan$lsc) refers to atan_x.o(.constdata) for .constdata
    atan_x.o(i.____softfp_atan$lsc) refers (Special) to usenofp.o(x$fpl$usenofp) for __I$use$fp
    atan_x.o(i.____softfp_atan$lsc) refers to atan_x.o(i.____hardfp_atan$lsc) for ____hardfp_atan$lsc
    atan_x.o(i.__atan$lsc) refers (Special) to usenofp.o(x$fpl$usenofp) for __I$use$fp
    atan_x.o(i.__atan$lsc) refers to atan_x.o(i.____hardfp_atan$lsc) for ____hardfp_atan$lsc
    atan_x.o(.constdata) refers (Special) to usenofp.o(x$fpl$usenofp) for __I$use$fp
    cos_i.o(i.__kernel_cos) refers (Special) to usenofp.o(x$fpl$usenofp) for __I$use$fp
    cos_i.o(i.__kernel_cos) refers to dfix.o(x$fpl$dfix) for __aeabi_d2iz
    cos_i.o(i.__kernel_cos) refers to dmul.o(x$fpl$dmul) for __aeabi_dmul
    cos_i.o(i.__kernel_cos) refers to poly.o(i.__kernel_poly) for __kernel_poly
    cos_i.o(i.__kernel_cos) refers to daddsub_clz.o(x$fpl$dsub) for __aeabi_dsub
    cos_i.o(i.__kernel_cos) refers to daddsub_clz.o(x$fpl$drsb) for __aeabi_drsub
    cos_i.o(i.__kernel_cos) refers to cos_i.o(.constdata) for .constdata
    cos_i.o(.constdata) refers (Special) to usenofp.o(x$fpl$usenofp) for __I$use$fp
    dunder.o(i.__mathlib_dbl_divzero) refers to ddiv.o(x$fpl$ddiv) for __aeabi_ddiv
    dunder.o(i.__mathlib_dbl_infnan) refers to daddsub_clz.o(x$fpl$dadd) for __aeabi_dadd
    dunder.o(i.__mathlib_dbl_infnan2) refers to daddsub_clz.o(x$fpl$dadd) for __aeabi_dadd
    dunder.o(i.__mathlib_dbl_invalid) refers to ddiv.o(x$fpl$ddiv) for __aeabi_ddiv
    dunder.o(i.__mathlib_dbl_overflow) refers to dmul.o(x$fpl$dmul) for __aeabi_dmul
    dunder.o(i.__mathlib_dbl_posinfnan) refers to dmul.o(x$fpl$dmul) for __aeabi_dmul
    dunder.o(i.__mathlib_dbl_underflow) refers to dmul.o(x$fpl$dmul) for __aeabi_dmul
    fpclassify.o(i.__ARM_fpclassify) refers (Special) to usenofp.o(x$fpl$usenofp) for __I$use$fp
    poly.o(i.__kernel_poly) refers (Special) to usenofp.o(x$fpl$usenofp) for __I$use$fp
    poly.o(i.__kernel_poly) refers to dmul.o(x$fpl$dmul) for __aeabi_dmul
    poly.o(i.__kernel_poly) refers to daddsub_clz.o(x$fpl$dadd) for __aeabi_dadd
    qnan.o(.constdata) refers (Special) to usenofp.o(x$fpl$usenofp) for __I$use$fp
    rred.o(i.__ieee754_rem_pio2) refers (Special) to usenofp.o(x$fpl$usenofp) for __I$use$fp
    rred.o(i.__ieee754_rem_pio2) refers to daddsub_clz.o(x$fpl$dsub) for __aeabi_dsub
    rred.o(i.__ieee754_rem_pio2) refers to daddsub_clz.o(x$fpl$dadd) for __aeabi_dadd
    rred.o(i.__ieee754_rem_pio2) refers to fabs.o(i.fabs) for fabs
    rred.o(i.__ieee754_rem_pio2) refers to dmul.o(x$fpl$dmul) for __aeabi_dmul
    rred.o(i.__ieee754_rem_pio2) refers to dfix.o(x$fpl$dfix) for __aeabi_d2iz
    rred.o(i.__ieee754_rem_pio2) refers to dflt_clz.o(x$fpl$dflt) for __aeabi_i2d
    rred.o(i.__ieee754_rem_pio2) refers to daddsub_clz.o(x$fpl$drsb) for __aeabi_drsub
    rred.o(i.__ieee754_rem_pio2) refers to basic.o(x$fpl$basic) for __aeabi_dneg
    rred.o(i.__ieee754_rem_pio2) refers to dflt_clz.o(x$fpl$dfltu) for __aeabi_ui2d
    rred.o(i.__ieee754_rem_pio2) refers to rred.o(.constdata) for .constdata
    rred.o(i.__use_accurate_range_reduction) refers (Special) to usenofp.o(x$fpl$usenofp) for __I$use$fp
    rred.o(.constdata) refers (Special) to usenofp.o(x$fpl$usenofp) for __I$use$fp
    sin_i.o(i.__kernel_sin) refers (Special) to usenofp.o(x$fpl$usenofp) for __I$use$fp
    sin_i.o(i.__kernel_sin) refers to fpclassify.o(i.__ARM_fpclassify) for __ARM_fpclassify
    sin_i.o(i.__kernel_sin) refers to dunder.o(i.__mathlib_dbl_underflow) for __mathlib_dbl_underflow
    sin_i.o(i.__kernel_sin) refers to dmul.o(x$fpl$dmul) for __aeabi_dmul
    sin_i.o(i.__kernel_sin) refers to poly.o(i.__kernel_poly) for __kernel_poly
    sin_i.o(i.__kernel_sin) refers to daddsub_clz.o(x$fpl$dsub) for __aeabi_dsub
    sin_i.o(i.__kernel_sin) refers to daddsub_clz.o(x$fpl$drsb) for __aeabi_drsub
    sin_i.o(i.__kernel_sin) refers to daddsub_clz.o(x$fpl$dadd) for __aeabi_dadd
    sin_i.o(i.__kernel_sin) refers to sin_i.o(.constdata) for .constdata
    sin_i.o(.constdata) refers (Special) to usenofp.o(x$fpl$usenofp) for __I$use$fp
    sin_i_x.o(i.____kernel_sin$lsc) refers (Special) to usenofp.o(x$fpl$usenofp) for __I$use$fp
    sin_i_x.o(i.____kernel_sin$lsc) refers to dmul.o(x$fpl$dmul) for __aeabi_dmul
    sin_i_x.o(i.____kernel_sin$lsc) refers to poly.o(i.__kernel_poly) for __kernel_poly
    sin_i_x.o(i.____kernel_sin$lsc) refers to daddsub_clz.o(x$fpl$dsub) for __aeabi_dsub
    sin_i_x.o(i.____kernel_sin$lsc) refers to daddsub_clz.o(x$fpl$drsb) for __aeabi_drsub
    sin_i_x.o(i.____kernel_sin$lsc) refers to daddsub_clz.o(x$fpl$dadd) for __aeabi_dadd
    sin_i_x.o(i.____kernel_sin$lsc) refers to sin_i_x.o(.constdata) for .constdata
    sin_i_x.o(.constdata) refers (Special) to usenofp.o(x$fpl$usenofp) for __I$use$fp
    libspace.o(.text) refers to libspace.o(.bss) for __libspace_start
    __rtentry2.o(.ARM.Collect$$rtentry$$00000008) refers to boardinit2.o(.text) for _platform_post_stackheap_init
    __rtentry2.o(.ARM.Collect$$rtentry$$0000000A) refers to libinit.o(.ARM.Collect$$libinit$$00000000) for __rt_lib_init
    __rtentry2.o(.ARM.Collect$$rtentry$$0000000B) refers to boardinit3.o(.text) for _platform_post_lib_init
    __rtentry2.o(.ARM.Collect$$rtentry$$0000000D) refers to main.o(i.main) for main
    __rtentry2.o(.ARM.Collect$$rtentry$$0000000D) refers to exit.o(.text) for exit
    __rtentry2.o(.ARM.exidx) refers to __rtentry2.o(.ARM.Collect$$rtentry$$00000001) for .ARM.Collect$$rtentry$$00000001
    __rtentry2.o(.ARM.exidx) refers to __rtentry2.o(.ARM.Collect$$rtentry$$00000008) for .ARM.Collect$$rtentry$$00000008
    __rtentry2.o(.ARM.exidx) refers to __rtentry2.o(.ARM.Collect$$rtentry$$0000000A) for .ARM.Collect$$rtentry$$0000000A
    __rtentry2.o(.ARM.exidx) refers to __rtentry2.o(.ARM.Collect$$rtentry$$0000000B) for .ARM.Collect$$rtentry$$0000000B
    __rtentry2.o(.ARM.exidx) refers to __rtentry2.o(.ARM.Collect$$rtentry$$0000000D) for .ARM.Collect$$rtentry$$0000000D
    __rtentry4.o(.ARM.Collect$$rtentry$$00000004) refers to sys_stackheap_outer.o(.text) for __user_setup_stackheap
    __rtentry4.o(.ARM.exidx) refers to __rtentry4.o(.ARM.Collect$$rtentry$$00000004) for .ARM.Collect$$rtentry$$00000004
    rt_div0.o(.text) refers to defsig_fpe_outer.o(.text) for __rt_SIGFPE
    rt_heap_descriptor.o(.text) refers to rt_heap_descriptor.o(.bss) for __rt_heap_descriptor_data
    rt_heap_descriptor_intlibspace.o(.text) refers to libspace.o(.bss) for __libspace_start
    rt_errno_addr.o(.text) refers to rt_errno_addr.o(.bss) for __aeabi_errno_addr_data
    rt_errno_addr_intlibspace.o(.text) refers to libspace.o(.bss) for __libspace_start
    init_alloc.o(.text) refers (Special) to hguard.o(.text) for __heap$guard
    init_alloc.o(.text) refers (Special) to libinit2.o(.ARM.Collect$$libinit$$00000005) for __rt_lib_init_heap_2
    init_alloc.o(.text) refers (Special) to maybetermalloc1.o(.emb_text) for _maybe_terminate_alloc
    init_alloc.o(.text) refers to h1_extend.o(.text) for __Heap_ProvideMemory
    init_alloc.o(.text) refers to defsig_rtmem_outer.o(.text) for __rt_SIGRTMEM
    init_alloc.o(.text) refers to rt_heap_descriptor_intlibspace.o(.text) for __rt_heap_descriptor
    init_alloc.o(.text) refers to h1_init.o(.text) for __Heap_Initialize
    h1_init_mt.o(.text) refers to mutex_dummy.o(.text) for _mutex_initialize
    fprintf.o(.text) refers (Special) to _printf_a.o(.ARM.Collect$$_printf_percent$$00000006) for _printf_a
    fprintf.o(.text) refers (Special) to _printf_c.o(.ARM.Collect$$_printf_percent$$00000013) for _printf_c
    fprintf.o(.text) refers (Special) to _printf_charcount.o(.text) for _printf_charcount
    fprintf.o(.text) refers (Special) to _printf_d.o(.ARM.Collect$$_printf_percent$$00000009) for _printf_d
    fprintf.o(.text) refers (Special) to _printf_e.o(.ARM.Collect$$_printf_percent$$00000004) for _printf_e
    fprintf.o(.text) refers (Special) to _printf_f.o(.ARM.Collect$$_printf_percent$$00000003) for _printf_f
    fprintf.o(.text) refers (Special) to printf1.o(x$fpl$printf1) for _printf_fp_dec
    fprintf.o(.text) refers (Special) to printf2.o(x$fpl$printf2) for _printf_fp_hex
    fprintf.o(.text) refers (Special) to _printf_g.o(.ARM.Collect$$_printf_percent$$00000005) for _printf_g
    fprintf.o(.text) refers (Special) to _printf_i.o(.ARM.Collect$$_printf_percent$$00000008) for _printf_i
    fprintf.o(.text) refers (Special) to _printf_dec.o(.text) for _printf_int_dec
    fprintf.o(.text) refers (Special) to _printf_l.o(.ARM.Collect$$_printf_percent$$00000012) for _printf_l
    fprintf.o(.text) refers (Special) to _printf_lc.o(.ARM.Collect$$_printf_percent$$00000015) for _printf_lc
    fprintf.o(.text) refers (Special) to _printf_ll.o(.ARM.Collect$$_printf_percent$$00000007) for _printf_ll
    fprintf.o(.text) refers (Special) to _printf_lld.o(.ARM.Collect$$_printf_percent$$0000000E) for _printf_lld
    fprintf.o(.text) refers (Special) to _printf_lli.o(.ARM.Collect$$_printf_percent$$0000000D) for _printf_lli
    fprintf.o(.text) refers (Special) to _printf_llo.o(.ARM.Collect$$_printf_percent$$00000010) for _printf_llo
    fprintf.o(.text) refers (Special) to _printf_llu.o(.ARM.Collect$$_printf_percent$$0000000F) for _printf_llu
    fprintf.o(.text) refers (Special) to _printf_llx.o(.ARM.Collect$$_printf_percent$$00000011) for _printf_llx
    fprintf.o(.text) refers (Special) to _printf_longlong_dec.o(.text) for _printf_longlong_dec
    fprintf.o(.text) refers (Special) to _printf_hex_int_ll_ptr.o(.text) for _printf_longlong_hex
    fprintf.o(.text) refers (Special) to _printf_oct_int_ll.o(.text) for _printf_longlong_oct
    fprintf.o(.text) refers (Special) to _printf_ls.o(.ARM.Collect$$_printf_percent$$00000016) for _printf_ls
    fprintf.o(.text) refers (Special) to _printf_n.o(.ARM.Collect$$_printf_percent$$00000001) for _printf_n
    fprintf.o(.text) refers (Special) to _printf_o.o(.ARM.Collect$$_printf_percent$$0000000B) for _printf_o
    fprintf.o(.text) refers (Special) to _printf_p.o(.ARM.Collect$$_printf_percent$$00000002) for _printf_p
    fprintf.o(.text) refers (Special) to _printf_percent.o(.ARM.Collect$$_printf_percent$$00000000) for _printf_percent
    fprintf.o(.text) refers (Special) to _printf_pad.o(.text) for _printf_post_padding
    fprintf.o(.text) refers (Special) to _printf_s.o(.ARM.Collect$$_printf_percent$$00000014) for _printf_s
    fprintf.o(.text) refers (Special) to _printf_str.o(.text) for _printf_str
    fprintf.o(.text) refers (Special) to _printf_truncate.o(.text) for _printf_truncate_signed
    fprintf.o(.text) refers (Special) to _printf_u.o(.ARM.Collect$$_printf_percent$$0000000A) for _printf_u
    fprintf.o(.text) refers (Special) to _printf_wctomb.o(.text) for _printf_wctomb
    fprintf.o(.text) refers (Special) to _printf_x.o(.ARM.Collect$$_printf_percent$$0000000C) for _printf_x
    fprintf.o(.text) refers to _printf_char_file.o(.text) for _printf_char_file
    vsnprintf.o(.text) refers (Special) to _printf_a.o(.ARM.Collect$$_printf_percent$$00000006) for _printf_a
    vsnprintf.o(.text) refers (Special) to _printf_c.o(.ARM.Collect$$_printf_percent$$00000013) for _printf_c
    vsnprintf.o(.text) refers (Special) to _printf_charcount.o(.text) for _printf_charcount
    vsnprintf.o(.text) refers (Special) to _printf_d.o(.ARM.Collect$$_printf_percent$$00000009) for _printf_d
    vsnprintf.o(.text) refers (Special) to _printf_e.o(.ARM.Collect$$_printf_percent$$00000004) for _printf_e
    vsnprintf.o(.text) refers (Special) to _printf_f.o(.ARM.Collect$$_printf_percent$$00000003) for _printf_f
    vsnprintf.o(.text) refers (Special) to printf1.o(x$fpl$printf1) for _printf_fp_dec
    vsnprintf.o(.text) refers (Special) to printf2.o(x$fpl$printf2) for _printf_fp_hex
    vsnprintf.o(.text) refers (Special) to _printf_g.o(.ARM.Collect$$_printf_percent$$00000005) for _printf_g
    vsnprintf.o(.text) refers (Special) to _printf_i.o(.ARM.Collect$$_printf_percent$$00000008) for _printf_i
    vsnprintf.o(.text) refers (Special) to _printf_dec.o(.text) for _printf_int_dec
    vsnprintf.o(.text) refers (Special) to _printf_l.o(.ARM.Collect$$_printf_percent$$00000012) for _printf_l
    vsnprintf.o(.text) refers (Special) to _printf_lc.o(.ARM.Collect$$_printf_percent$$00000015) for _printf_lc
    vsnprintf.o(.text) refers (Special) to _printf_ll.o(.ARM.Collect$$_printf_percent$$00000007) for _printf_ll
    vsnprintf.o(.text) refers (Special) to _printf_lld.o(.ARM.Collect$$_printf_percent$$0000000E) for _printf_lld
    vsnprintf.o(.text) refers (Special) to _printf_lli.o(.ARM.Collect$$_printf_percent$$0000000D) for _printf_lli
    vsnprintf.o(.text) refers (Special) to _printf_llo.o(.ARM.Collect$$_printf_percent$$00000010) for _printf_llo
    vsnprintf.o(.text) refers (Special) to _printf_llu.o(.ARM.Collect$$_printf_percent$$0000000F) for _printf_llu
    vsnprintf.o(.text) refers (Special) to _printf_llx.o(.ARM.Collect$$_printf_percent$$00000011) for _printf_llx
    vsnprintf.o(.text) refers (Special) to _printf_longlong_dec.o(.text) for _printf_longlong_dec
    vsnprintf.o(.text) refers (Special) to _printf_hex_int_ll_ptr.o(.text) for _printf_longlong_hex
    vsnprintf.o(.text) refers (Special) to _printf_oct_int_ll.o(.text) for _printf_longlong_oct
    vsnprintf.o(.text) refers (Special) to _printf_ls.o(.ARM.Collect$$_printf_percent$$00000016) for _printf_ls
    vsnprintf.o(.text) refers (Special) to _printf_n.o(.ARM.Collect$$_printf_percent$$00000001) for _printf_n
    vsnprintf.o(.text) refers (Special) to _printf_o.o(.ARM.Collect$$_printf_percent$$0000000B) for _printf_o
    vsnprintf.o(.text) refers (Special) to _printf_p.o(.ARM.Collect$$_printf_percent$$00000002) for _printf_p
    vsnprintf.o(.text) refers (Special) to _printf_percent.o(.ARM.Collect$$_printf_percent$$00000000) for _printf_percent
    vsnprintf.o(.text) refers (Special) to _printf_pad.o(.text) for _printf_post_padding
    vsnprintf.o(.text) refers (Special) to _printf_s.o(.ARM.Collect$$_printf_percent$$00000014) for _printf_s
    vsnprintf.o(.text) refers (Special) to _printf_str.o(.text) for _printf_str
    vsnprintf.o(.text) refers (Special) to _printf_truncate.o(.text) for _printf_truncate_signed
    vsnprintf.o(.text) refers (Special) to _printf_u.o(.ARM.Collect$$_printf_percent$$0000000A) for _printf_u
    vsnprintf.o(.text) refers (Special) to _printf_wctomb.o(.text) for _printf_wctomb
    vsnprintf.o(.text) refers (Special) to _printf_x.o(.ARM.Collect$$_printf_percent$$0000000C) for _printf_x
    vsnprintf.o(.text) refers to _printf_char_common.o(.text) for _printf_char_common
    vsnprintf.o(.text) refers to _sputc.o(.text) for _sputc
    vsnprintf.o(.text) refers to _snputc.o(.text) for _snputc
    sscanf.o(.text) refers (Special) to _scanf_int.o(.text) for _scanf_int
    sscanf.o(.text) refers (Special) to _scanf_longlong.o(.text) for _scanf_longlong
    sscanf.o(.text) refers (Special) to _scanf_mbtowc.o(.text) for _scanf_mbtowc
    sscanf.o(.text) refers (Special) to scanf1.o(x$fpl$scanf1) for _scanf_real
    sscanf.o(.text) refers (Special) to _scanf_str.o(.text) for _scanf_string
    sscanf.o(.text) refers (Special) to _scanf_wctomb.o(.text) for _scanf_wctomb
    sscanf.o(.text) refers (Special) to _scanf_wstr.o(.text) for _scanf_wstring
    sscanf.o(.text) refers to scanf_char.o(.text) for __vfscanf_char
    sscanf.o(.text) refers to _sgetc.o(.text) for _sgetc
    stdio_streams.o(.bss) refers (Special) to initio.o(.text) for _initio
    stdio_streams.o(.bss) refers (Special) to initio.o(.text) for _initio
    stdio_streams.o(.bss) refers (Special) to initio.o(.text) for _initio
    stdio_streams.o(.data) refers (Special) to initio.o(.text) for _initio
    stdio_streams.o(.data) refers (Special) to initio.o(.text) for _initio
    stdio_streams.o(.data) refers (Special) to initio.o(.text) for _initio
    abort.o(.text) refers to defsig_abrt_outer.o(.text) for __rt_SIGABRT
    abort.o(.text) refers (Weak) to libshutdown.o(.ARM.Collect$$libshutdown$$00000000) for __rt_lib_shutdown
    abort.o(.text) refers to sys_exit.o(.text) for _sys_exit
    rt_memmove_w.o(.text) refers to rt_memcpy_w.o(.text) for __aeabi_memcpy4
    _get_argv.o(.text) refers (Special) to hrguard.o(.text) for __heap_region$guard
    _get_argv.o(.text) refers to h1_alloc.o(.text) for malloc
    _get_argv.o(.text) refers to defsig_rtmem_outer.o(.text) for __rt_SIGRTMEM
    _get_argv.o(.text) refers to sys_command.o(.text) for _sys_command_string
    argv_veneer.o(.emb_text) refers to no_argv.o(.text) for __ARM_get_argv
    char.o(i._ZNKSt14collate_bynameIcE10do_compareEPKcS2_S2_S2_) refers to locale.o(i._ZN4__rw21__rw_use_c_lib_localeC1EPKci) for __rw::__rw_use_c_lib_locale::__rw_use_c_lib_locale(const char*, int)
    char.o(i._ZNKSt14collate_bynameIcE10do_compareEPKcS2_S2_S2_) refers to array_new.o(i._Znaj) for operator new[] (unsigned)
    char.o(i._ZNKSt14collate_bynameIcE10do_compareEPKcS2_S2_S2_) refers to rt_memcpy_v6.o(.text) for __aeabi_memcpy
    char.o(i._ZNKSt14collate_bynameIcE10do_compareEPKcS2_S2_S2_) refers to strcoll.o(.text) for strcoll
    char.o(i._ZNKSt14collate_bynameIcE10do_compareEPKcS2_S2_S2_) refers to array_del.o(i._ZdaPv) for operator delete[] (void*)
    char.o(i._ZNKSt14collate_bynameIcE10do_compareEPKcS2_S2_S2_) refers to char.o(i._ZN4__rw21__rw_use_c_lib_localeD1Ev) for __rw::__rw_use_c_lib_locale::~__rw_use_c_lib_locale()
    char.o(i._ZNKSt14collate_bynameIcE10do_compareEPKcS2_S2_S2_.clean) refers to char.o(i._ZN4__rw21__rw_use_c_lib_localeD1Ev) for __rw::__rw_use_c_lib_locale::~__rw_use_c_lib_locale()
    char.o(i._ZNKSt14collate_bynameIcE10do_compareEPKcS2_S2_S2_.clean) refers to arm_exceptions_cleanup.o(.emb_text) for __cxa_end_cleanup
    char.o(i._ZNKSt14collate_bynameIcE12do_transformEPKcS2_) refers to locale.o(i._ZN4__rw21__rw_use_c_lib_localeC1EPKci) for __rw::__rw_use_c_lib_locale::__rw_use_c_lib_locale(const char*, int)
    char.o(i._ZNKSt14collate_bynameIcE12do_transformEPKcS2_) refers to array_new.o(i._Znaj) for operator new[] (unsigned)
    char.o(i._ZNKSt14collate_bynameIcE12do_transformEPKcS2_) refers to rt_memcpy_v6.o(.text) for __aeabi_memcpy
    char.o(i._ZNKSt14collate_bynameIcE12do_transformEPKcS2_) refers to strxfrm.o(.text) for strxfrm
    char.o(i._ZNKSt14collate_bynameIcE12do_transformEPKcS2_) refers to char.o(t._ZNSsC1EPKcjRKSaIcE) for std::basic_string<char, std::char_traits<char>, std::allocator<char>>::basic_string(const char*, unsigned, const std::allocator<char>&)
    char.o(i._ZNKSt14collate_bynameIcE12do_transformEPKcS2_) refers to char.o(t._ZNSs5beginEv) for std::basic_string<char, std::char_traits<char>, std::allocator<char>>::begin()
    char.o(i._ZNKSt14collate_bynameIcE12do_transformEPKcS2_) refers to array_del.o(i._ZdaPv) for operator delete[] (void*)
    char.o(i._ZNKSt14collate_bynameIcE12do_transformEPKcS2_) refers to char.o(i._ZN4__rw21__rw_use_c_lib_localeD1Ev) for __rw::__rw_use_c_lib_locale::~__rw_use_c_lib_locale()
    char.o(i._ZNKSt14collate_bynameIcE12do_transformEPKcS2_.clean) refers to char.o(t._ZNSsD1Ev) for std::basic_string<char, std::char_traits<char>, std::allocator<char>>::~basic_string()
    char.o(i._ZNKSt14collate_bynameIcE12do_transformEPKcS2_.clean) refers to char.o(i._ZN4__rw21__rw_use_c_lib_localeD1Ev) for __rw::__rw_use_c_lib_locale::~__rw_use_c_lib_locale()
    char.o(i._ZNKSt14collate_bynameIcE12do_transformEPKcS2_.clean) refers to arm_exceptions_cleanup.o(.emb_text) for __cxa_end_cleanup
    char.o(i._ZNSt12ctype_bynameIcE17_C_get_mask_tableEPKc) refers to strcmpv7m.o(.text) for strcmp
    char.o(i._ZNSt12ctype_bynameIcE17_C_get_mask_tableEPKc) refers to array_new.o(i._Znaj) for operator new[] (unsigned)
    char.o(i._ZNSt12ctype_bynameIcE17_C_get_mask_tableEPKc) refers to locale.o(i._ZN4__rw21__rw_use_c_lib_localeC1EPKci) for __rw::__rw_use_c_lib_locale::__rw_use_c_lib_locale(const char*, int)
    char.o(i._ZNSt12ctype_bynameIcE17_C_get_mask_tableEPKc) refers to rt_ctype_table.o(.text) for __rt_ctype_table
    char.o(i._ZNSt12ctype_bynameIcE17_C_get_mask_tableEPKc) refers to char.o(i._ZN4__rw21__rw_use_c_lib_localeD1Ev) for __rw::__rw_use_c_lib_locale::~__rw_use_c_lib_locale()
    char.o(i._ZNSt12ctype_bynameIcE17_C_get_mask_tableEPKc) refers to char.o(.constdata) for .constdata
    char.o(i._ZNSt12ctype_bynameIcE17_C_get_mask_tableEPKc.clean) refers to arm_exceptions_cleanup.o(.emb_text) for __cxa_end_cleanup
    char.o(i._ZNSt12ctype_bynameIcEC1EPKcj) refers to char.o(i._ZNSt12ctype_bynameIcE17_C_get_mask_tableEPKc) for std::ctype_byname<char>::_C_get_mask_table(const char*)
    char.o(i._ZNSt12ctype_bynameIcEC1EPKcj) refers to char.o(i._ZNSt5ctypeIcEC1EPKNSt10ctype_base4maskEbj) for std::ctype<char>::ctype(const std::ctype_base::mask*, bool, unsigned)
    char.o(i._ZNSt12ctype_bynameIcEC1EPKcj) refers to locale.o(i._ZN4__rw21__rw_use_c_lib_localeC1EPKci) for __rw::__rw_use_c_lib_locale::__rw_use_c_lib_locale(const char*, int)
    char.o(i._ZNSt12ctype_bynameIcEC1EPKcj) refers to char.o(i._ZNKSt5ctypeIcE2isENSt10ctype_base4maskEc) for std::ctype<char>::is(std::ctype_base::mask, char) const
    char.o(i._ZNSt12ctype_bynameIcEC1EPKcj) refers to char.o(i._ZN4__rw21__rw_use_c_lib_localeD1Ev) for __rw::__rw_use_c_lib_locale::~__rw_use_c_lib_locale()
    char.o(i._ZNSt12ctype_bynameIcEC1EPKcj) refers to char.o(.constdata__ZTVSt12ctype_bynameIcE) for vtable for std::ctype_byname<char>
    char.o(i._ZNSt12ctype_bynameIcEC1EPKcj) refers to char.o(.constdata) for .constdata
    char.o(i._ZNSt12ctype_bynameIcEC1EPKcj.clean) refers to char.o(i._ZN4__rw21__rw_use_c_lib_localeD1Ev) for __rw::__rw_use_c_lib_locale::~__rw_use_c_lib_locale()
    char.o(i._ZNSt12ctype_bynameIcEC1EPKcj.clean) refers to char.o(i._ZNSt5ctypeIcED1Ev) for std::ctype<char>::~ctype()
    char.o(i._ZNSt12ctype_bynameIcEC1EPKcj.clean) refers to arm_exceptions_cleanup.o(.emb_text) for __cxa_end_cleanup
    char.o(i._ZNSt5ctypeIcE12_C_initfacetERKSt6locale) refers to locale.o(i._ZNKSt6locale4nameEv) for std::locale::name() const
    char.o(i._ZNSt5ctypeIcE12_C_initfacetERKSt6locale) refers to locale.o(i._ZN4__rw21__rw_use_c_lib_localeC1EPKci) for __rw::__rw_use_c_lib_locale::__rw_use_c_lib_locale(const char*, int)
    char.o(i._ZNSt5ctypeIcE12_C_initfacetERKSt6locale) refers to char.o(t._ZNSsD1Ev) for std::basic_string<char, std::char_traits<char>, std::allocator<char>>::~basic_string()
    char.o(i._ZNSt5ctypeIcE12_C_initfacetERKSt6locale) refers to char.o(i._ZNKSt5ctypeIcE2isENSt10ctype_base4maskEc) for std::ctype<char>::is(std::ctype_base::mask, char) const
    char.o(i._ZNSt5ctypeIcE12_C_initfacetERKSt6locale) refers to char.o(i._ZN4__rw21__rw_use_c_lib_localeD1Ev) for __rw::__rw_use_c_lib_locale::~__rw_use_c_lib_locale()
    char.o(i._ZNSt5ctypeIcE12_C_initfacetERKSt6locale.clean) refers to char.o(i._ZN4__rw21__rw_use_c_lib_localeD1Ev) for __rw::__rw_use_c_lib_locale::~__rw_use_c_lib_locale()
    char.o(i._ZNSt5ctypeIcE12_C_initfacetERKSt6locale.clean) refers to arm_exceptions_cleanup.o(.emb_text) for __cxa_end_cleanup
    char.o(i._ZNSt5ctypeIcE12_C_initfacetERKSt6locale.clean) refers to char.o(t._ZNSsD1Ev) for std::basic_string<char, std::char_traits<char>, std::allocator<char>>::~basic_string()
    char.o(i._ZNSt5ctypeIcEC1EPKNSt10ctype_base4maskEbj) refers to char.o(i._ZNKSt5ctypeIcE2isENSt10ctype_base4maskEc) for std::ctype<char>::is(std::ctype_base::mask, char) const
    char.o(i._ZNSt5ctypeIcEC1EPKNSt10ctype_base4maskEbj) refers to array_new.o(i._Znaj) for operator new[] (unsigned)
    char.o(i._ZNSt5ctypeIcEC1EPKNSt10ctype_base4maskEbj) refers to char.o(.constdata__ZTVSt5ctypeIcE) for vtable for std::ctype<char>
    char.o(i._ZNSt5ctypeIcEC1EPKNSt10ctype_base4maskEbj) refers to char.o(.constdata) for .constdata
    char.o(i._ZNSt5ctypeIcEC1EPKNSt10ctype_base4maskEbj.clean) refers to arm_exceptions_cleanup.o(.emb_text) for __cxa_end_cleanup
    char.o(i.__sti___8_char_cpp_a3dc957a) refers to char.o(.data) for .data
    char.o(.ARM.exidx) refers to char.o(i._ZNSt5ctypeIcE12_C_initfacetERKSt6locale) for i._ZNSt5ctypeIcE12_C_initfacetERKSt6locale
    char.o(.ARM.exidx) refers to unwind_pr0.o(.text) for __aeabi_unwind_cpp_pr0
    char.o(.ARM.exidx) refers to char.o(.ARM.extab) for .extab._ZNSt5ctypeIcE12_C_initfacetERKSt6locale
    char.o(.ARM.exidx) refers to char.o(i._ZNSt5ctypeIcE12_C_initfacetERKSt6locale.clean) for i._ZNSt5ctypeIcE12_C_initfacetERKSt6locale.clean
    char.o(.ARM.exidx) refers to char.o(i._ZNSt5ctypeIcEC1EPKNSt10ctype_base4maskEbj) for i._ZNSt5ctypeIcEC1EPKNSt10ctype_base4maskEbj
    char.o(.ARM.exidx) refers to unwind_pr0.o(.text) for __aeabi_unwind_cpp_pr0
    char.o(.ARM.exidx) refers to char.o(.ARM.extab) for .extab._ZNSt5ctypeIcEC1EPKNSt10ctype_base4maskEbj
    char.o(.ARM.exidx) refers to char.o(i._ZNSt5ctypeIcEC1EPKNSt10ctype_base4maskEbj.clean) for i._ZNSt5ctypeIcEC1EPKNSt10ctype_base4maskEbj.clean
    char.o(.ARM.exidx) refers to char.o(i._ZNSt12ctype_bynameIcE17_C_get_mask_tableEPKc) for i._ZNSt12ctype_bynameIcE17_C_get_mask_tableEPKc
    char.o(.ARM.exidx) refers to unwind_pr0.o(.text) for __aeabi_unwind_cpp_pr0
    char.o(.ARM.exidx) refers to char.o(i._ZNSt12ctype_bynameIcE17_C_get_mask_tableEPKc.clean) for i._ZNSt12ctype_bynameIcE17_C_get_mask_tableEPKc.clean
    char.o(.ARM.exidx) refers to char.o(i._ZNSt12ctype_bynameIcEC1EPKcj) for i._ZNSt12ctype_bynameIcEC1EPKcj
    char.o(.ARM.exidx) refers to unwind_pr0.o(.text) for __aeabi_unwind_cpp_pr0
    char.o(.ARM.exidx) refers to char.o(.ARM.extab) for .extab._ZNSt12ctype_bynameIcEC1EPKcj
    char.o(.ARM.exidx) refers to char.o(i._ZNSt12ctype_bynameIcEC1EPKcj.clean) for i._ZNSt12ctype_bynameIcEC1EPKcj.clean
    char.o(.ARM.exidx) refers to char.o(i._ZNKSt14collate_bynameIcE10do_compareEPKcS2_S2_S2_) for i._ZNKSt14collate_bynameIcE10do_compareEPKcS2_S2_S2_
    char.o(.ARM.exidx) refers to unwind_pr0.o(.text) for __aeabi_unwind_cpp_pr0
    char.o(.ARM.exidx) refers to char.o(.ARM.extab) for .extab._ZNKSt14collate_bynameIcE10do_compareEPKcS2_S2_S2_
    char.o(.ARM.exidx) refers to char.o(i._ZNKSt14collate_bynameIcE10do_compareEPKcS2_S2_S2_.clean) for i._ZNKSt14collate_bynameIcE10do_compareEPKcS2_S2_S2_.clean
    char.o(.ARM.exidx) refers to char.o(i._ZNKSt14collate_bynameIcE12do_transformEPKcS2_) for i._ZNKSt14collate_bynameIcE12do_transformEPKcS2_
    char.o(.ARM.exidx) refers to unwind_pr0.o(.text) for __aeabi_unwind_cpp_pr0
    char.o(.ARM.exidx) refers to char.o(.ARM.extab) for .extab._ZNKSt14collate_bynameIcE12do_transformEPKcS2_
    char.o(.ARM.exidx) refers to char.o(i._ZNKSt14collate_bynameIcE12do_transformEPKcS2_.clean) for i._ZNKSt14collate_bynameIcE12do_transformEPKcS2_.clean
    char.o(.ARM.exidx) refers to char.o(i.__sti___8_char_cpp_a3dc957a) for i.__sti___8_char_cpp_a3dc957a
    char.o(.ARM.extab) refers to char.o(i._ZNSt5ctypeIcE12_C_initfacetERKSt6locale.clean) for i._ZNSt5ctypeIcE12_C_initfacetERKSt6locale.clean
    char.o(.ARM.extab) refers to char.o(i._ZNSt5ctypeIcEC1EPKNSt10ctype_base4maskEbj.clean) for i._ZNSt5ctypeIcEC1EPKNSt10ctype_base4maskEbj.clean
    char.o(.ARM.extab) refers to char.o(i._ZNSt12ctype_bynameIcEC1EPKcj.clean) for i._ZNSt12ctype_bynameIcEC1EPKcj.clean
    char.o(.ARM.extab) refers to char.o(i._ZNKSt14collate_bynameIcE10do_compareEPKcS2_S2_S2_.clean) for i._ZNKSt14collate_bynameIcE10do_compareEPKcS2_S2_S2_.clean
    char.o(.ARM.extab) refers to char.o(i._ZNKSt14collate_bynameIcE12do_transformEPKcS2_.clean) for i._ZNKSt14collate_bynameIcE12do_transformEPKcS2_.clean
    char.o(.init_array) refers to char.o(i.__sti___8_char_cpp_a3dc957a) for __sti___8_char_cpp_a3dc957a
    char.o(.init_array) refers to init_aeabi.o(.text) for __cpp_initialize__aeabi_
    locale.o(i.<Func5>) refers to locale.o(t._ZNSsC1ERKSaIcE) for std::basic_string<char, std::char_traits<char>, std::allocator<char>>::basic_string(const std::allocator<char>&)
    locale.o(i._ZN4__rw21__rw_use_c_lib_localeC1EPKci) refers to locale.o(.text) for setlocale
    locale.o(i._ZN4__rw21__rw_use_c_lib_localeC1EPKci) refers to strlen.o(.text) for strlen
    locale.o(i._ZN4__rw21__rw_use_c_lib_localeC1EPKci) refers to array_new.o(i._Znaj) for operator new[] (unsigned)
    locale.o(i._ZN4__rw21__rw_use_c_lib_localeC1EPKci) refers to strcpy.o(.text) for strcpy
    locale.o(i._ZN4__rw23__rw_numpunct_impl_base18_C_get_named_init_EPKc) refers to locale.o(i._ZN4__rw21__rw_use_c_lib_localeC1EPKci) for __rw::__rw_use_c_lib_locale::__rw_use_c_lib_locale(const char*, int)
    locale.o(i._ZN4__rw23__rw_numpunct_impl_base18_C_get_named_init_EPKc) refers to rwstdexcept.o(i._ZN4__rw10__rw_throwEiz) for __rw::__rw_throw(int, ...)
    locale.o(i._ZN4__rw23__rw_numpunct_impl_base18_C_get_named_init_EPKc) refers to localeconv.o(.text) for localeconv
    locale.o(i._ZN4__rw23__rw_numpunct_impl_base18_C_get_named_init_EPKc) refers to strlen.o(.text) for strlen
    locale.o(i._ZN4__rw23__rw_numpunct_impl_base18_C_get_named_init_EPKc) refers to array_new.o(i._Znaj) for operator new[] (unsigned)
    locale.o(i._ZN4__rw23__rw_numpunct_impl_base18_C_get_named_init_EPKc) refers to strcpy.o(.text) for strcpy
    locale.o(i._ZN4__rw23__rw_numpunct_impl_base18_C_get_named_init_EPKc) refers to char.o(i._ZN4__rw21__rw_use_c_lib_localeD1Ev) for __rw::__rw_use_c_lib_locale::~__rw_use_c_lib_locale()
    locale.o(i._ZN4__rw23__rw_numpunct_impl_base18_C_get_named_init_EPKc.clean) refers to char.o(i._ZN4__rw21__rw_use_c_lib_localeD1Ev) for __rw::__rw_use_c_lib_locale::~__rw_use_c_lib_locale()
    locale.o(i._ZN4__rw23__rw_numpunct_impl_base18_C_get_named_init_EPKc.clean) refers to arm_exceptions_cleanup.o(.emb_text) for __cxa_end_cleanup
    locale.o(i._ZNKSt14codecvt_bynameIwcSt11__mbstate_tE5do_inERS0_PKcS4_RS4_PwS6_RS6_) refers to mbrtowc.o(.text) for mbrtowc
    locale.o(i._ZNKSt14codecvt_bynameIwcSt11__mbstate_tE6do_outERS0_PKwS4_RS4_PcS6_RS6_) refers to _mbcurmax.o(.text) for __aeabi_MB_CUR_MAX
    locale.o(i._ZNKSt14codecvt_bynameIwcSt11__mbstate_tE6do_outERS0_PKwS4_RS4_PcS6_RS6_) refers to wcrtomb.o(.text) for wcrtomb
    locale.o(i._ZNKSt6locale13_C_make_facetERKNS_2idEbiPFPN4__rw15__rw_facet_baseEiPKcjE) refers to locale.o(t._ZN4__rw18__rw_locale_vectorIPNS_15__rw_facet_baseEE6resizeEjRKS2_) for __rw::__rw_locale_vector<__rw::__rw_facet_base*>::resize(unsigned, __rw::__rw_facet_base*const &)
    locale.o(i._ZNKSt6locale13_C_make_facetERKNS_2idEbiPFPN4__rw15__rw_facet_baseEiPKcjE) refers to rwstdexcept.o(i._ZN4__rw10__rw_throwEiz) for __rw::__rw_throw(int, ...)
    locale.o(i._ZNKSt6locale13_C_make_facetERKNS_2idEbiPFPN4__rw15__rw_facet_baseEiPKcjE) refers to locale.o(i._ZNSt6localeC1EPN4__rw15__rw_locale_impE) for std::locale::locale(__rw::__rw_locale_imp*)
    locale.o(i._ZNKSt6locale13_C_make_facetERKNS_2idEbiPFPN4__rw15__rw_facet_baseEiPKcjE) refers to locale.o(i._ZNKSt6locale16_C_install_facetEPN4__rw15__rw_facet_baseERKNS_2idE) for std::locale::_C_install_facet(__rw::__rw_facet_base*, const std::locale::id&) const
    locale.o(i._ZNKSt6locale13_C_make_facetERKNS_2idEbiPFPN4__rw15__rw_facet_baseEiPKcjE) refers to locale.o(i._ZNSt6localeD1Ev) for std::locale::~locale()
    locale.o(i._ZNKSt6locale13_C_make_facetERKNS_2idEbiPFPN4__rw15__rw_facet_baseEiPKcjE) refers to locale.o(.data) for .data
    locale.o(i._ZNKSt6locale13_C_make_facetERKNS_2idEbiPFPN4__rw15__rw_facet_baseEiPKcjE) refers to locale.o(.constdata__ZZNK4__rw15__rw_locale_imp16_C_category_nameEiEs) for __rw::__rw_locale_imp::_C_category_name(int) const::string
    locale.o(i._ZNKSt6locale13_C_make_facetERKNS_2idEbiPFPN4__rw15__rw_facet_baseEiPKcjE.clean) refers to locale.o(i._ZNSt6localeD1Ev) for std::locale::~locale()
    locale.o(i._ZNKSt6locale13_C_make_facetERKNS_2idEbiPFPN4__rw15__rw_facet_baseEiPKcjE.clean) refers to arm_exceptions_cleanup.o(.emb_text) for __cxa_end_cleanup
    locale.o(i._ZNKSt6locale16_C_install_facetEPN4__rw15__rw_facet_baseERKNS_2idE) refers to locale.o(t._ZN4__rw18__rw_locale_vectorIPNS_15__rw_facet_baseEE6resizeEjRKS2_) for __rw::__rw_locale_vector<__rw::__rw_facet_base*>::resize(unsigned, __rw::__rw_facet_base*const &)
    locale.o(i._ZNKSt6locale16_C_install_facetEPN4__rw15__rw_facet_baseERKNS_2idE) refers to locale.o(.data__ZZNKSt6locale2id7_C_initEvE9_C_id_gen) for std::locale::id::_C_init() const::_C_id_gen
    locale.o(i._ZNKSt6locale4nameEv) refers to locale.o(t._ZNSsC1EPKcRKSaIcE) for std::basic_string<char, std::char_traits<char>, std::allocator<char>>::basic_string(const char*, const std::allocator<char>&)
    locale.o(i._ZNSt6locale6globalERKS_) refers to locale.o(i._ZNKSt6locale4nameEv) for std::locale::name() const
    locale.o(i._ZNSt6locale6globalERKS_) refers to locale.o(.text) for setlocale
    locale.o(i._ZNSt6locale6globalERKS_) refers to char.o(t._ZNSsD1Ev) for std::basic_string<char, std::char_traits<char>, std::allocator<char>>::~basic_string()
    locale.o(i._ZNSt6locale6globalERKS_) refers to rwstdexcept.o(i._ZN4__rw10__rw_throwEiz) for __rw::__rw_throw(int, ...)
    locale.o(i._ZNSt6locale6globalERKS_) refers to locale.o(i._ZNSt6localeC1EPN4__rw15__rw_locale_impE) for std::locale::locale(__rw::__rw_locale_imp*)
    locale.o(i._ZNSt6locale6globalERKS_) refers to locale.o(.data) for .data
    locale.o(i._ZNSt6locale6globalERKS_.clean) refers to char.o(t._ZNSsD1Ev) for std::basic_string<char, std::char_traits<char>, std::allocator<char>>::~basic_string()
    locale.o(i._ZNSt6locale6globalERKS_.clean) refers to arm_exceptions_cleanup.o(.emb_text) for __cxa_end_cleanup
    locale.o(i._ZNSt6locale7_C_initEv) refers to new.o(i._Znwj) for operator new(unsigned)
    locale.o(i._ZNSt6locale7_C_initEv) refers to locale.o(i._ZN4__rw15__rw_locale_impC1EPKcjj) for __rw::__rw_locale_imp::__rw_locale_imp(const char*, unsigned, unsigned)
    locale.o(i._ZNSt6locale7_C_initEv) refers to locale.o(t._ZNSsaSEPKc) for std::basic_string<char, std::char_traits<char>, std::allocator<char>>::operator =(const char*)
    locale.o(i._ZNSt6locale7_C_initEv) refers to locale.o(i._ZN4__rw15__rw_locale_impD1Ev) for __rw::__rw_locale_imp::~__rw_locale_imp()
    locale.o(i._ZNSt6locale7_C_initEv) refers to delete.o(i._ZdlPv) for operator delete (void*)
    locale.o(i._ZNSt6locale7_C_initEv) refers to locale.o(.data) for .data
    locale.o(i._ZNSt6locale7_C_initEv.clean) refers to delete.o(i._ZdlPv) for operator delete (void*)
    locale.o(i._ZNSt6locale7_C_initEv.clean) refers to arm_exceptions_cleanup.o(.emb_text) for __cxa_end_cleanup
    locale.o(i._ZNSt6locale7classicEv) refers to locale.o(i._ZNSt6locale7_C_initEv) for std::locale::_C_init()
    locale.o(i._ZNSt6locale7classicEv) refers to cxa_guard_acquire.o(i.__cxa_guard_acquire) for __cxa_guard_acquire
    locale.o(i._ZNSt6locale7classicEv) refers to locale.o(i._ZNSt6localeC1EPN4__rw15__rw_locale_impE) for std::locale::locale(__rw::__rw_locale_imp*)
    locale.o(i._ZNSt6locale7classicEv) refers to aeabi_atexit.o(.text) for __aeabi_atexit
    locale.o(i._ZNSt6locale7classicEv) refers to locale.o(.data) for .data
    locale.o(i._ZNSt6locale7classicEv) refers to locale.o(i._ZNSt6localeD1Ev) for std::locale::~locale()
    locale.o(i._ZNSt6locale7classicEv.clean) refers to arm_exceptions_cleanup.o(.emb_text) for __cxa_end_cleanup
    locale.o(i._ZNSt6locale7classicEv.clean) refers to locale.o(.data) for .data
    locale.o(i._ZNSt6localeC1EPKc) refers to rwstdexcept.o(i._ZN4__rw10__rw_throwEiz) for __rw::__rw_throw(int, ...)
    locale.o(i._ZNSt6localeC1EPKc) refers to locale.o(i._ZNSt6locale7_C_initEv) for std::locale::_C_init()
    locale.o(i._ZNSt6localeC1EPKc) refers to strcmpv7m.o(.text) for strcmp
    locale.o(i._ZNSt6localeC1EPKc) refers to new.o(i._Znwj) for operator new(unsigned)
    locale.o(i._ZNSt6localeC1EPKc) refers to locale.o(i._ZN4__rw15__rw_locale_impC1EPKcjj) for __rw::__rw_locale_imp::__rw_locale_imp(const char*, unsigned, unsigned)
    locale.o(i._ZNSt6localeC1EPKc) refers to vendor.o(i._ZN4__rw15__rw_locale_imp13_C_parse_nameERNS_18__rw_locale_vectorISsEEPKc) for __rw::__rw_locale_imp::_C_parse_name(__rw::__rw_locale_vector<std::basic_string<char, std::char_traits<char>, std::allocator<char>>>&, const char*)
    locale.o(i._ZNSt6localeC1EPKc) refers to locale.o(i._ZN4__rw15__rw_locale_impD1Ev) for __rw::__rw_locale_imp::~__rw_locale_imp()
    locale.o(i._ZNSt6localeC1EPKc) refers to delete.o(i._ZdlPv) for operator delete (void*)
    locale.o(i._ZNSt6localeC1EPKc) refers to locale.o(.data) for .data
    locale.o(i._ZNSt6localeC1EPKc.clean) refers to delete.o(i._ZdlPv) for operator delete (void*)
    locale.o(i._ZNSt6localeC1EPKc.clean) refers to arm_exceptions_cleanup.o(.emb_text) for __cxa_end_cleanup
    locale.o(i._ZNSt6localeC1ERKS_PKci) refers to rwstdexcept.o(i._ZN4__rw10__rw_throwEiz) for __rw::__rw_throw(int, ...)
    locale.o(i._ZNSt6localeC1ERKS_PKci) refers to new.o(i._Znwj) for operator new(unsigned)
    locale.o(i._ZNSt6localeC1ERKS_PKci) refers to locale.o(i._ZN4__rw15__rw_locale_impC1ERKS0_PKcj) for __rw::__rw_locale_imp::__rw_locale_imp(const __rw::__rw_locale_imp&, const char*, unsigned)
    locale.o(i._ZNSt6localeC1ERKS_PKci) refers to vendor.o(i._ZN4__rw15__rw_locale_imp15_C_map_categoryEi) for __rw::__rw_locale_imp::_C_map_category(int)
    locale.o(i._ZNSt6localeC1ERKS_PKci) refers to locale.o(i._ZNSt6locale16_C_remove_facetsEi) for std::locale::_C_remove_facets(int)
    locale.o(i._ZNSt6localeC1ERKS_PKci) refers to aeabi_vec_new_cookie.o(i.__aeabi_vec_new_cookie) for __aeabi_vec_new_cookie
    locale.o(i._ZNSt6localeC1ERKS_PKci) refers to vendor.o(i._ZN4__rw15__rw_locale_imp13_C_parse_nameERNS_18__rw_locale_vectorISsEEPKc) for __rw::__rw_locale_imp::_C_parse_name(__rw::__rw_locale_vector<std::basic_string<char, std::char_traits<char>, std::allocator<char>>>&, const char*)
    locale.o(i._ZNSt6localeC1ERKS_PKci) refers to locale.o(t._ZNSsaSEPKc) for std::basic_string<char, std::char_traits<char>, std::allocator<char>>::operator =(const char*)
    locale.o(i._ZNSt6localeC1ERKS_PKci) refers to locale.o(t._ZN4__rw18__rw_locale_vectorISsED1Ev) for __rw::__rw_locale_vector<std::basic_string<char, std::char_traits<char>, std::allocator<char>>>::~__rw_locale_vector()
    locale.o(i._ZNSt6localeC1ERKS_PKci) refers to char.o(t._ZNSsD1Ev) for std::basic_string<char, std::char_traits<char>, std::allocator<char>>::~basic_string()
    locale.o(i._ZNSt6localeC1ERKS_PKci) refers to locale.o(i.<Func5>) for <Func5>
    locale.o(i._ZNSt6localeC1ERKS_PKci.clean) refers to delete.o(i._ZdlPv) for operator delete (void*)
    locale.o(i._ZNSt6localeC1ERKS_PKci.clean) refers to arm_exceptions_cleanup.o(.emb_text) for __cxa_end_cleanup
    locale.o(i._ZNSt6localeC1ERKS_PKci.clean) refers to locale.o(t._ZN4__rw18__rw_locale_vectorISsED1Ev) for __rw::__rw_locale_vector<std::basic_string<char, std::char_traits<char>, std::allocator<char>>>::~__rw_locale_vector()
    locale.o(i._ZNSt6localeC1ERKS_S1_i) refers to new.o(i._Znwj) for operator new(unsigned)
    locale.o(i._ZNSt6localeC1ERKS_S1_i) refers to locale.o(i._ZN4__rw15__rw_locale_impC1ERKS0_PKcj) for __rw::__rw_locale_imp::__rw_locale_imp(const __rw::__rw_locale_imp&, const char*, unsigned)
    locale.o(i._ZNSt6localeC1ERKS_S1_i) refers to vendor.o(i._ZN4__rw15__rw_locale_imp15_C_map_categoryEi) for __rw::__rw_locale_imp::_C_map_category(int)
    locale.o(i._ZNSt6localeC1ERKS_S1_i) refers to locale.o(t._ZNSsaSERKSs) for std::basic_string<char, std::char_traits<char>, std::allocator<char>>::operator =(const std::basic_string<char, std::char_traits<char>, std::allocator<char>>&)
    locale.o(i._ZNSt6localeC1ERKS_S1_i) refers to locale.o(i._ZNSt6locale16_C_remove_facetsEi) for std::locale::_C_remove_facets(int)
    locale.o(i._ZNSt6localeC1ERKS_S1_i.clean) refers to delete.o(i._ZdlPv) for operator delete (void*)
    locale.o(i._ZNSt6localeC1ERKS_S1_i.clean) refers to arm_exceptions_cleanup.o(.emb_text) for __cxa_end_cleanup
    locale.o(i._ZNSt6localeaSERKS_) refers to locale.o(i._ZN4__rw15__rw_locale_impD1Ev) for __rw::__rw_locale_imp::~__rw_locale_imp()
    locale.o(i._ZNSt6localeaSERKS_) refers to delete.o(i._ZdlPv) for operator delete (void*)
    locale.o(i.__sti___10_locale_cpp_ff99fc7b) refers to locale.o(.data) for .data
    locale.o(.ARM.exidx) refers to locale.o(i.<Func5>) for i.<Func5>
    locale.o(.ARM.exidx) refers to unwind_pr0.o(.text) for __aeabi_unwind_cpp_pr0
    locale.o(.ARM.exidx) refers to locale.o(i._ZNSt6locale7_C_initEv) for i._ZNSt6locale7_C_initEv
    locale.o(.ARM.exidx) refers to unwind_pr0.o(.text) for __aeabi_unwind_cpp_pr0
    locale.o(.ARM.exidx) refers to locale.o(.ARM.extab) for .extab._ZNSt6locale7_C_initEv
    locale.o(.ARM.exidx) refers to locale.o(i._ZNSt6locale7_C_initEv.clean) for i._ZNSt6locale7_C_initEv.clean
    locale.o(.ARM.exidx) refers to locale.o(i._ZNSt6localeC1EPKc) for i._ZNSt6localeC1EPKc
    locale.o(.ARM.exidx) refers to unwind_pr0.o(.text) for __aeabi_unwind_cpp_pr0
    locale.o(.ARM.exidx) refers to locale.o(.ARM.extab) for .extab._ZNSt6localeC1EPKc
    locale.o(.ARM.exidx) refers to locale.o(i._ZNSt6localeC1EPKc.clean) for i._ZNSt6localeC1EPKc.clean
    locale.o(.ARM.exidx) refers to locale.o(i._ZNSt6localeC1ERKS_PKci) for i._ZNSt6localeC1ERKS_PKci
    locale.o(.ARM.exidx) refers to unwind_pr0.o(.text) for __aeabi_unwind_cpp_pr0
    locale.o(.ARM.exidx) refers to locale.o(.ARM.extab) for .extab._ZNSt6localeC1ERKS_PKci
    locale.o(.ARM.exidx) refers to locale.o(i._ZNSt6localeC1ERKS_PKci.clean) for i._ZNSt6localeC1ERKS_PKci.clean
    locale.o(.ARM.exidx) refers to locale.o(i._ZNSt6localeC1ERKS_S1_i) for i._ZNSt6localeC1ERKS_S1_i
    locale.o(.ARM.exidx) refers to unwind_pr0.o(.text) for __aeabi_unwind_cpp_pr0
    locale.o(.ARM.exidx) refers to locale.o(.ARM.extab) for .extab._ZNSt6localeC1ERKS_S1_i
    locale.o(.ARM.exidx) refers to locale.o(i._ZNSt6localeC1ERKS_S1_i.clean) for i._ZNSt6localeC1ERKS_S1_i.clean
    locale.o(.ARM.exidx) refers to locale.o(i._ZNSt6localeaSERKS_) for i._ZNSt6localeaSERKS_
    locale.o(.ARM.exidx) refers to locale.o(i._ZNKSt6locale4nameEv) for i._ZNKSt6locale4nameEv
    locale.o(.ARM.exidx) refers to unwind_pr0.o(.text) for __aeabi_unwind_cpp_pr0
    locale.o(.ARM.exidx) refers to locale.o(i._ZNSt6locale6globalERKS_) for i._ZNSt6locale6globalERKS_
    locale.o(.ARM.exidx) refers to unwind_pr0.o(.text) for __aeabi_unwind_cpp_pr0
    locale.o(.ARM.exidx) refers to locale.o(.ARM.extab) for .extab._ZNSt6locale6globalERKS_
    locale.o(.ARM.exidx) refers to locale.o(i._ZNSt6locale6globalERKS_.clean) for i._ZNSt6locale6globalERKS_.clean
    locale.o(.ARM.exidx) refers to locale.o(i._ZNSt6locale7classicEv) for i._ZNSt6locale7classicEv
    locale.o(.ARM.exidx) refers to unwind_pr0.o(.text) for __aeabi_unwind_cpp_pr0
    locale.o(.ARM.exidx) refers to locale.o(.ARM.extab) for .extab._ZNSt6locale7classicEv
    locale.o(.ARM.exidx) refers to locale.o(i._ZNSt6locale7classicEv.clean) for i._ZNSt6locale7classicEv.clean
    locale.o(.ARM.exidx) refers to locale.o(i._ZNKSt6locale16_C_install_facetEPN4__rw15__rw_facet_baseERKNS_2idE) for i._ZNKSt6locale16_C_install_facetEPN4__rw15__rw_facet_baseERKNS_2idE
    locale.o(.ARM.exidx) refers to unwind_pr0.o(.text) for __aeabi_unwind_cpp_pr0
    locale.o(.ARM.exidx) refers to locale.o(i._ZNKSt6locale13_C_make_facetERKNS_2idEbiPFPN4__rw15__rw_facet_baseEiPKcjE) for i._ZNKSt6locale13_C_make_facetERKNS_2idEbiPFPN4__rw15__rw_facet_baseEiPKcjE
    locale.o(.ARM.exidx) refers to unwind_pr0.o(.text) for __aeabi_unwind_cpp_pr0
    locale.o(.ARM.exidx) refers to locale.o(.ARM.extab) for .extab._ZNKSt6locale13_C_make_facetERKNS_2idEbiPFPN4__rw15__rw_facet_baseEiPKcjE
    locale.o(.ARM.exidx) refers to locale.o(i._ZNKSt6locale13_C_make_facetERKNS_2idEbiPFPN4__rw15__rw_facet_baseEiPKcjE.clean) for i._ZNKSt6locale13_C_make_facetERKNS_2idEbiPFPN4__rw15__rw_facet_baseEiPKcjE.clean
    locale.o(.ARM.exidx) refers to locale.o(i._ZNKSt14codecvt_bynameIwcSt11__mbstate_tE6do_outERS0_PKwS4_RS4_PcS6_RS6_) for i._ZNKSt14codecvt_bynameIwcSt11__mbstate_tE6do_outERS0_PKwS4_RS4_PcS6_RS6_
    locale.o(.ARM.exidx) refers to unwind_pr0.o(.text) for __aeabi_unwind_cpp_pr0
    locale.o(.ARM.exidx) refers to locale.o(i._ZNKSt14codecvt_bynameIwcSt11__mbstate_tE5do_inERS0_PKcS4_RS4_PwS6_RS6_) for i._ZNKSt14codecvt_bynameIwcSt11__mbstate_tE5do_inERS0_PKcS4_RS4_PwS6_RS6_
    locale.o(.ARM.exidx) refers to unwind_pr0.o(.text) for __aeabi_unwind_cpp_pr0
    locale.o(.ARM.exidx) refers to locale.o(i._ZN4__rw21__rw_use_c_lib_localeC1EPKci) for i._ZN4__rw21__rw_use_c_lib_localeC1EPKci
    locale.o(.ARM.exidx) refers to unwind_pr0.o(.text) for __aeabi_unwind_cpp_pr0
    locale.o(.ARM.exidx) refers to locale.o(i._ZN4__rw23__rw_numpunct_impl_base18_C_get_named_init_EPKc) for i._ZN4__rw23__rw_numpunct_impl_base18_C_get_named_init_EPKc
    locale.o(.ARM.exidx) refers to unwind_pr0.o(.text) for __aeabi_unwind_cpp_pr0
    locale.o(.ARM.exidx) refers to locale.o(.ARM.extab) for .extab._ZN4__rw23__rw_numpunct_impl_base18_C_get_named_init_EPKc
    locale.o(.ARM.exidx) refers to locale.o(i._ZN4__rw23__rw_numpunct_impl_base18_C_get_named_init_EPKc.clean) for i._ZN4__rw23__rw_numpunct_impl_base18_C_get_named_init_EPKc.clean
    locale.o(.ARM.exidx) refers to locale.o(i.__sti___10_locale_cpp_ff99fc7b) for i.__sti___10_locale_cpp_ff99fc7b
    locale.o(.ARM.extab) refers to locale.o(i._ZNSt6locale7_C_initEv.clean) for i._ZNSt6locale7_C_initEv.clean
    locale.o(.ARM.extab) refers to locale.o(i._ZNSt6locale7_C_initEv) for i._ZNSt6locale7_C_initEv
    locale.o(.ARM.extab) refers to locale.o(i._ZNSt6localeC1EPKc.clean) for i._ZNSt6localeC1EPKc.clean
    locale.o(.ARM.extab) refers to locale.o(i._ZNSt6localeC1ERKS_PKci.clean) for i._ZNSt6localeC1ERKS_PKci.clean
    locale.o(.ARM.extab) refers to locale.o(i._ZNSt6localeC1ERKS_S1_i.clean) for i._ZNSt6localeC1ERKS_S1_i.clean
    locale.o(.ARM.extab) refers to locale.o(i._ZNSt6locale6globalERKS_.clean) for i._ZNSt6locale6globalERKS_.clean
    locale.o(.ARM.extab) refers to locale.o(i._ZNSt6locale7classicEv.clean) for i._ZNSt6locale7classicEv.clean
    locale.o(.ARM.extab) refers to locale.o(i._ZNKSt6locale13_C_make_facetERKNS_2idEbiPFPN4__rw15__rw_facet_baseEiPKcjE.clean) for i._ZNKSt6locale13_C_make_facetERKNS_2idEbiPFPN4__rw15__rw_facet_baseEiPKcjE.clean
    locale.o(.ARM.extab) refers to locale.o(i._ZN4__rw23__rw_numpunct_impl_base18_C_get_named_init_EPKc.clean) for i._ZN4__rw23__rw_numpunct_impl_base18_C_get_named_init_EPKc.clean
    locale.o(.init_array) refers to locale.o(i.__sti___10_locale_cpp_ff99fc7b) for __sti___10_locale_cpp_ff99fc7b
    locale.o(.init_array) refers to init_aeabi.o(.text) for __cpp_initialize__aeabi_
    messages.o(i._ZNKSt18__rw_messages_base11_C_cat_openERKSsRKSt6locale) refers to locale.o(i._ZN4__rw21__rw_use_c_lib_localeC1EPKci) for __rw::__rw_use_c_lib_locale::__rw_use_c_lib_locale(const char*, int)
    messages.o(i._ZNKSt18__rw_messages_base11_C_cat_openERKSsRKSt6locale) refers to rwcats.o(i._Z7catopenPKci) for catopen(const char*, int)
    messages.o(i._ZNKSt18__rw_messages_base11_C_cat_openERKSsRKSt6locale) refers to messages.o(i._ZSt13__rw_get_catsv) for std::__rw_get_cats()
    messages.o(i._ZNKSt18__rw_messages_base11_C_cat_openERKSsRKSt6locale) refers to messages.o(t._ZN4__rw18__rw_locale_vectorISt18__rw_open_cat_dataE6resizeEj) for __rw::__rw_locale_vector<std::__rw_open_cat_data>::resize(unsigned)
    messages.o(i._ZNKSt18__rw_messages_base11_C_cat_openERKSsRKSt6locale) refers to char.o(i._ZN4__rw21__rw_use_c_lib_localeD1Ev) for __rw::__rw_use_c_lib_locale::~__rw_use_c_lib_locale()
    messages.o(i._ZNKSt18__rw_messages_base11_C_cat_openERKSsRKSt6locale) refers to locale.o(i._ZNSt6localeaSERKS_) for std::locale::operator =(const std::locale&)
    messages.o(i._ZNKSt18__rw_messages_base11_C_cat_openERKSsRKSt6locale.clean) refers to char.o(i._ZN4__rw21__rw_use_c_lib_localeD1Ev) for __rw::__rw_use_c_lib_locale::~__rw_use_c_lib_locale()
    messages.o(i._ZNKSt18__rw_messages_base11_C_cat_openERKSsRKSt6locale.clean) refers to arm_exceptions_cleanup.o(.emb_text) for __cxa_end_cleanup
    messages.o(i._ZNKSt18__rw_messages_base12_C_cat_closeEi) refers to messages.o(i._ZSt13__rw_get_catsv) for std::__rw_get_cats()
    messages.o(i._ZNKSt18__rw_messages_base12_C_cat_closeEi) refers to rwcats.o(i._Z8catclosePN4__rw8__rw_catE) for catclose(__rw::__rw_cat*)
    messages.o(i._ZNKSt18__rw_messages_base12_C_cat_closeEi) refers to locale.o(i._ZNSt6locale7classicEv) for std::locale::classic()
    messages.o(i._ZNKSt18__rw_messages_base12_C_cat_closeEi) refers to locale.o(i._ZNSt6localeaSERKS_) for std::locale::operator =(const std::locale&)
    messages.o(i._ZNKSt18__rw_messages_base13_C_get_localeEi) refers to messages.o(i._ZSt13__rw_get_catsv) for std::__rw_get_cats()
    messages.o(i._ZNKSt18__rw_messages_base13_C_get_localeEi) refers to locale.o(i._ZNSt6locale7classicEv) for std::locale::classic()
    messages.o(i._ZNKSt18__rw_messages_base14_C_get_messageEiii) refers to messages.o(i._ZSt13__rw_get_catsv) for std::__rw_get_cats()
    messages.o(i._ZNKSt18__rw_messages_base14_C_get_messageEiii) refers to rwcats.o(i._Z7catgetsPN4__rw8__rw_catEiiPKc) for catgets(__rw::__rw_cat*, int, int, const char*)
    messages.o(i._ZNSt18__rw_messages_base18_C_get_locale_nameEPKc) refers to locale.o(i._ZN4__rw21__rw_use_c_lib_localeC1EPKci) for __rw::__rw_use_c_lib_locale::__rw_use_c_lib_locale(const char*, int)
    messages.o(i._ZNSt18__rw_messages_base18_C_get_locale_nameEPKc) refers to locale.o(.text) for setlocale
    messages.o(i._ZNSt18__rw_messages_base18_C_get_locale_nameEPKc) refers to strlen.o(.text) for strlen
    messages.o(i._ZNSt18__rw_messages_base18_C_get_locale_nameEPKc) refers to locale.o(t._ZNSs11_C_allocateEjjj) for std::basic_string<char, std::char_traits<char>, std::allocator<char>>::_C_allocate(unsigned, unsigned, unsigned)
    messages.o(i._ZNSt18__rw_messages_base18_C_get_locale_nameEPKc) refers to char.o(i._ZNSt11char_traitsIcE4copyEPcPKcj) for std::char_traits<char>::copy(char*, const char*, unsigned)
    messages.o(i._ZNSt18__rw_messages_base18_C_get_locale_nameEPKc) refers to char.o(i._ZN4__rw21__rw_use_c_lib_localeD1Ev) for __rw::__rw_use_c_lib_locale::~__rw_use_c_lib_locale()
    messages.o(i._ZNSt18__rw_messages_base18_C_get_locale_nameEPKc) refers to vendor.o(.bss__ZNSs9__nullrefE) for std::basic_string<char, std::char_traits<char>, std::allocator<char>>::__nullref
    messages.o(i._ZNSt18__rw_messages_base18_C_get_locale_nameEPKc.clean) refers to char.o(i._ZN4__rw21__rw_use_c_lib_localeD1Ev) for __rw::__rw_use_c_lib_locale::~__rw_use_c_lib_locale()
    messages.o(i._ZNSt18__rw_messages_base18_C_get_locale_nameEPKc.clean) refers to arm_exceptions_cleanup.o(.emb_text) for __cxa_end_cleanup
    messages.o(.ARM.exidx) refers to messages.o(i._ZNKSt18__rw_messages_base11_C_cat_openERKSsRKSt6locale) for i._ZNKSt18__rw_messages_base11_C_cat_openERKSsRKSt6locale
    messages.o(.ARM.exidx) refers to unwind_pr0.o(.text) for __aeabi_unwind_cpp_pr0
    messages.o(.ARM.exidx) refers to messages.o(.ARM.extab) for .extab._ZNKSt18__rw_messages_base11_C_cat_openERKSsRKSt6locale
    messages.o(.ARM.exidx) refers to messages.o(i._ZNKSt18__rw_messages_base11_C_cat_openERKSsRKSt6locale.clean) for i._ZNKSt18__rw_messages_base11_C_cat_openERKSsRKSt6locale.clean
    messages.o(.ARM.exidx) refers to messages.o(i._ZNKSt18__rw_messages_base14_C_get_messageEiii) for i._ZNKSt18__rw_messages_base14_C_get_messageEiii
    messages.o(.ARM.exidx) refers to unwind_pr0.o(.text) for __aeabi_unwind_cpp_pr0
    messages.o(.ARM.exidx) refers to messages.o(i._ZNKSt18__rw_messages_base13_C_get_localeEi) for i._ZNKSt18__rw_messages_base13_C_get_localeEi
    messages.o(.ARM.exidx) refers to unwind_pr0.o(.text) for __aeabi_unwind_cpp_pr0
    messages.o(.ARM.exidx) refers to messages.o(i._ZNKSt18__rw_messages_base12_C_cat_closeEi) for i._ZNKSt18__rw_messages_base12_C_cat_closeEi
    messages.o(.ARM.exidx) refers to unwind_pr0.o(.text) for __aeabi_unwind_cpp_pr0
    messages.o(.ARM.exidx) refers to messages.o(i._ZNSt18__rw_messages_base18_C_get_locale_nameEPKc) for i._ZNSt18__rw_messages_base18_C_get_locale_nameEPKc
    messages.o(.ARM.exidx) refers to unwind_pr0.o(.text) for __aeabi_unwind_cpp_pr0
    messages.o(.ARM.exidx) refers to messages.o(.ARM.extab) for .extab._ZNSt18__rw_messages_base18_C_get_locale_nameEPKc
    messages.o(.ARM.exidx) refers to messages.o(i._ZNSt18__rw_messages_base18_C_get_locale_nameEPKc.clean) for i._ZNSt18__rw_messages_base18_C_get_locale_nameEPKc.clean
    messages.o(.ARM.extab) refers to messages.o(i._ZNKSt18__rw_messages_base11_C_cat_openERKSsRKSt6locale.clean) for i._ZNKSt18__rw_messages_base11_C_cat_openERKSsRKSt6locale.clean
    messages.o(.ARM.extab) refers to messages.o(i._ZNSt18__rw_messages_base18_C_get_locale_nameEPKc.clean) for i._ZNSt18__rw_messages_base18_C_get_locale_nameEPKc.clean
    rwthrowproc_noex.o(.data) refers to rwthrowproc_impl_noex.o(i._ZN4__rw25__rw_throw_exception_noexEiPc) for __rw::__rw_throw_exception_noex(int, char*)
    array_del.o(i._ZdaPv) refers to delete.o(i._ZdlPv) for operator delete (void*)
    array_del.o(.ARM.exidx) refers to array_del.o(i._ZdaPv) for i._ZdaPv
    bad_alloc_what.o(.ARM.exidx) refers to bad_alloc_what.o(i._ZNKSt9bad_alloc4whatEv) for i._ZNKSt9bad_alloc4whatEv
    exception_ctor.o(i._ZNSt9exceptionC1Ev) refers to exception_dtor.o(.constdata__ZTVSt9exception) for vtable for std::exception
    exception_ctor.o(.ARM.exidx) refers to exception_ctor.o(i._ZNSt9exceptionC1Ev) for i._ZNSt9exceptionC1Ev
    exception_dtor.o(i._ZNSt9exceptionD0Ev) refers to delete.o(i._ZdlPv) for operator delete (void*)
    exception_dtor.o(.ARM.exidx) refers to exception_dtor.o(i._ZNSt9exceptionD1Ev) for i._ZNSt9exceptionD1Ev
    exception_dtor.o(.ARM.exidx) refers to exception_dtor.o(i._ZNSt9exceptionD0Ev) for i._ZNSt9exceptionD0Ev
    aeabi_vec_delete_noexceptions.o(.text) refers to aeabi_vec_dtor_cookie.o(i.__aeabi_vec_dtor_cookie) for __aeabi_vec_dtor_cookie
    aeabi_vec_delete_noexceptions.o(.text) refers to array_del.o(i._ZdaPv) for operator delete[] (void*)
    aeabi_vec_delete_noexceptions.o(.ARM.exidx) refers to aeabi_vec_delete_noexceptions.o(.text) for .text
    arm_exceptions_free.o(.text) refers to arm_exceptions_globs.o(.text) for __cxa_get_globals
    arm_exceptions_free.o(.text) refers to arm_exceptions_mem.o(.text) for __ARM_exceptions_buffer_free
    arm_exceptions_free.o(.text) refers to h1_free.o(.text) for free
    arm_exceptions_free.o(.ARM.exidx) refers to arm_exceptions_free.o(.text) for .text
    arm_exceptions_terminate.o(.text) refers to arm_exceptions_globs.o(.text) for __cxa_get_globals
    arm_exceptions_terminate.o(.text) refers to abort.o(.text) for abort
    arm_exceptions_terminate.o(.ARM.exidx) refers to arm_exceptions_terminate.o(.text) for .text
    arm_exceptions_support.o(.text) refers to arm_exceptions_support.o(.constdata) for .constdata
    arm_exceptions_support.o(.ARM.exidx) refers to arm_exceptions_support.o(.text) for .text
    arm_exceptions_foreign.o(.text) refers to arm_exceptions_support.o(.text) for __ARM::same_exceptions_class(const void*, const void*)
    arm_exceptions_foreign.o(.text) refers to arm_exceptions_alloc.o(.text) for __cxa_allocate_exception
    arm_exceptions_foreign.o(.ARM.exidx) refers to arm_exceptions_foreign.o(.text) for .text
    arm_exceptions_globs.o(.text) refers to abort.o(.text) for abort
    arm_exceptions_globs.o(.text) refers to rt_eh_globals_addr_intlibspace.o(.text) for __rt_eh_globals_addr
    arm_exceptions_globs.o(.text) refers to h1_alloc.o(.text) for malloc
    arm_exceptions_globs.o(.text) refers to arm_exceptions_mem.o(.text) for __ARM_exceptions_buffer_init
    arm_exceptions_globs.o(.ARM.exidx) refers to arm_exceptions_globs.o(.text) for .text
    unwind_prcommon.o(.text) refers to unwinder.o(.text) for _Unwind_VRS_Get
    unwind_prcommon.o(.text) refers (Weak) to arm_exceptions_cleanup.o(.text) for __cxa_begin_cleanup
    unwind_prcommon.o(.text) refers to unwind_activity.o(.emb_text) for _Unwind_Activity
    unwind_prcommon.o(.text) refers (Weak) to arm_callunex_noexceptions.o(.text) for __cxa_call_unexpected
    unwind_prcommon.o(.ARM.exidx) refers to unwind_prcommon.o(.text) for .text
    dcheck1.o(x$fpl$dcheck1) refers (Special) to usenofp.o(x$fpl$usenofp) for __I$use$fp
    dcheck1.o(x$fpl$dcheck1) refers to retnan.o(x$fpl$retnan) for __fpl_return_NaN
    sys_command.o(.text) refers (Special) to use_no_semi.o(.text) for __I$use$semihosting
    sys_command.o(.text) refers (Special) to indicate_semi.o(.text) for __semihosting_library_function
    sys_exit.o(.text) refers (Special) to use_no_semi.o(.text) for __I$use$semihosting
    sys_exit.o(.text) refers (Special) to indicate_semi.o(.text) for __semihosting_library_function
    sys_stackheap_outer.o(.text) refers to libspace.o(.text) for __user_perproc_libspace
    sys_stackheap_outer.o(.text) refers to startup_stm32f40xx.o(.text) for __user_initial_stackheap
    rt_ctype_table.o(.text) refers to rt_locale_intlibspace.o(.text) for __rt_locale
    rt_ctype_table.o(.text) refers to lc_ctype_c.o(locale$$code) for _get_lc_ctype
    rt_eh_globals_addr.o(.text) refers to rt_eh_globals_addr.o(.bss) for __rt_eh_globals_addr_data
    rt_eh_globals_addr_intlibspace.o(.text) refers to libspace.o(.bss) for __libspace_start
    maybetermalloc2.o(.emb_text) refers (Special) to term_alloc.o(.text) for _terminate_alloc
    h1_extend.o(.text) refers to h1_free.o(.text) for free
    h1_extend_mt.o(.text) refers to h1_free_mt.o(.text) for _free_internal
    __printf.o(.text) refers to _printf_percent.o(.ARM.Collect$$_printf_percent$$00000000) for _printf_percent
    _printf_str.o(.text) refers (Special) to _printf_char.o(.text) for _printf_cs_common
    _printf_str.o(.text) refers (Weak) to _printf_pad.o(.text) for _printf_pre_padding
    _printf_str.o(.text) refers (Weak) to _printf_pad.o(.text) for _printf_post_padding
    _printf_dec.o(.text) refers (Weak) to _printf_truncate.o(.text) for _printf_truncate_signed
    _printf_dec.o(.text) refers (Weak) to _printf_truncate.o(.text) for _printf_truncate_unsigned
    _printf_dec.o(.text) refers to _printf_intcommon.o(.text) for _printf_int_common
    _printf_char_common.o(.text) refers to __printf_flags_ss_wp.o(.text) for __printf
    _printf_char_file.o(.text) refers to _printf_char_common.o(.text) for _printf_char_common
    _printf_char_file.o(.text) refers to ferror.o(.text) for ferror
    _printf_char_file.o(.text) refers to fputc.o(i.fputc) for fputc
    _printf_wctomb.o(.text) refers (Special) to _printf_wchar.o(.text) for _printf_lcs_common
    _printf_wctomb.o(.text) refers to _wcrtomb.o(.text) for _wcrtomb
    _printf_wctomb.o(.text) refers (Weak) to _printf_pad.o(.text) for _printf_pre_padding
    _printf_wctomb.o(.text) refers (Weak) to _printf_pad.o(.text) for _printf_post_padding
    _printf_wctomb.o(.text) refers to _printf_wctomb.o(.constdata) for .constdata
    _printf_wctomb.o(.constdata) refers (Special) to _printf_wchar.o(.text) for _printf_lcs_common
    _printf_longlong_dec.o(.text) refers to lludiv10.o(.text) for _ll_udiv10
    _printf_longlong_dec.o(.text) refers to _printf_intcommon.o(.text) for _printf_int_common
    _printf_oct_ll.o(.text) refers to _printf_intcommon.o(.text) for _printf_int_common
    _printf_oct_int.o(.text) refers (Weak) to _printf_truncate.o(.text) for _printf_truncate_unsigned
    _printf_oct_int.o(.text) refers to _printf_intcommon.o(.text) for _printf_int_common
    _printf_oct_int_ll.o(.text) refers to _printf_intcommon.o(.text) for _printf_int_common
    _printf_oct_int_ll.o(.text) refers (Weak) to _printf_truncate.o(.text) for _printf_truncate_unsigned
    _printf_hex_ll.o(.text) refers to _printf_intcommon.o(.text) for _printf_int_common
    _printf_hex_ll.o(.text) refers to _printf_hex_ll.o(.constdata) for .constdata
    _printf_hex_int.o(.text) refers (Weak) to _printf_truncate.o(.text) for _printf_truncate_unsigned
    _printf_hex_int.o(.text) refers to _printf_intcommon.o(.text) for _printf_int_common
    _printf_hex_int.o(.text) refers to _printf_hex_int.o(.constdata) for .constdata
    _printf_hex_int_ll.o(.text) refers to _printf_intcommon.o(.text) for _printf_int_common
    _printf_hex_int_ll.o(.text) refers (Weak) to _printf_truncate.o(.text) for _printf_truncate_unsigned
    _printf_hex_int_ll.o(.text) refers to _printf_hex_int_ll.o(.constdata) for .constdata
    _printf_hex_ptr.o(.text) refers to _printf_intcommon.o(.text) for _printf_int_common
    _printf_hex_ptr.o(.text) refers to _printf_hex_ptr.o(.constdata) for .constdata
    _printf_hex_int_ptr.o(.text) refers to _printf_intcommon.o(.text) for _printf_int_common
    _printf_hex_int_ptr.o(.text) refers (Weak) to _printf_truncate.o(.text) for _printf_truncate_unsigned
    _printf_hex_int_ptr.o(.text) refers to _printf_hex_int_ptr.o(.constdata) for .constdata
    _printf_hex_ll_ptr.o(.text) refers to _printf_intcommon.o(.text) for _printf_int_common
    _printf_hex_ll_ptr.o(.text) refers to _printf_hex_ll_ptr.o(.constdata) for .constdata
    _printf_hex_int_ll_ptr.o(.text) refers to _printf_intcommon.o(.text) for _printf_int_common
    _printf_hex_int_ll_ptr.o(.text) refers (Weak) to _printf_truncate.o(.text) for _printf_truncate_unsigned
    _printf_hex_int_ll_ptr.o(.text) refers to _printf_hex_int_ll_ptr.o(.constdata) for .constdata
    __printf_flags.o(.text) refers to _printf_percent.o(.ARM.Collect$$_printf_percent$$00000000) for _printf_percent
    __printf_flags.o(.text) refers to __printf_flags.o(.constdata) for .constdata
    __printf_ss.o(.text) refers to _printf_percent.o(.ARM.Collect$$_printf_percent$$00000000) for _printf_percent
    __printf_flags_ss.o(.text) refers to _printf_percent.o(.ARM.Collect$$_printf_percent$$00000000) for _printf_percent
    __printf_flags_ss.o(.text) refers to __printf_flags_ss.o(.constdata) for .constdata
    __printf_wp.o(.text) refers to __printf_wp.o(i._is_digit) for _is_digit
    __printf_wp.o(.text) refers to _printf_percent.o(.ARM.Collect$$_printf_percent$$00000000) for _printf_percent
    __printf_flags_wp.o(.text) refers to __printf_wp.o(i._is_digit) for _is_digit
    __printf_flags_wp.o(.text) refers to _printf_percent.o(.ARM.Collect$$_printf_percent$$00000000) for _printf_percent
    __printf_flags_wp.o(.text) refers to __printf_flags_wp.o(.constdata) for .constdata
    __printf_ss_wp.o(.text) refers to __printf_wp.o(i._is_digit) for _is_digit
    __printf_ss_wp.o(.text) refers to _printf_percent.o(.ARM.Collect$$_printf_percent$$00000000) for _printf_percent
    __printf_flags_ss_wp.o(.text) refers to __printf_wp.o(i._is_digit) for _is_digit
    __printf_flags_ss_wp.o(.text) refers to _printf_percent.o(.ARM.Collect$$_printf_percent$$00000000) for _printf_percent
    __printf_flags_ss_wp.o(.text) refers to __printf_flags_ss_wp.o(.constdata) for .constdata
    _printf_c.o(.ARM.Collect$$_printf_percent$$00000013) refers (Weak) to _printf_char.o(.text) for _printf_char
    _printf_s.o(.ARM.Collect$$_printf_percent$$00000014) refers (Weak) to _printf_char.o(.text) for _printf_string
    _printf_n.o(.ARM.Collect$$_printf_percent$$00000001) refers (Weak) to _printf_charcount.o(.text) for _printf_charcount
    _printf_x.o(.ARM.Collect$$_printf_percent$$0000000C) refers (Weak) to _printf_hex_int_ll_ptr.o(.text) for _printf_int_hex
    _printf_p.o(.ARM.Collect$$_printf_percent$$00000002) refers (Weak) to _printf_hex_int_ll_ptr.o(.text) for _printf_hex_ptr
    _printf_o.o(.ARM.Collect$$_printf_percent$$0000000B) refers (Weak) to _printf_oct_int_ll.o(.text) for _printf_int_oct
    _printf_i.o(.ARM.Collect$$_printf_percent$$00000008) refers (Weak) to _printf_dec.o(.text) for _printf_int_dec
    _printf_d.o(.ARM.Collect$$_printf_percent$$00000009) refers (Weak) to _printf_dec.o(.text) for _printf_int_dec
    _printf_u.o(.ARM.Collect$$_printf_percent$$0000000A) refers (Weak) to _printf_dec.o(.text) for _printf_int_dec
    _printf_f.o(.ARM.Collect$$_printf_percent$$00000003) refers (Weak) to printf1.o(x$fpl$printf1) for _printf_fp_dec
    _printf_e.o(.ARM.Collect$$_printf_percent$$00000004) refers (Weak) to printf1.o(x$fpl$printf1) for _printf_fp_dec
    _printf_g.o(.ARM.Collect$$_printf_percent$$00000005) refers (Weak) to printf1.o(x$fpl$printf1) for _printf_fp_dec
    _printf_a.o(.ARM.Collect$$_printf_percent$$00000006) refers (Weak) to printf2.o(x$fpl$printf2) for _printf_fp_hex
    _printf_percent.o(.ARM.Collect$$_printf_percent$$00000000) refers (Special) to _printf_percent_end.o(.ARM.Collect$$_printf_percent$$00000017) for _printf_percent_end
    _printf_lli.o(.ARM.Collect$$_printf_percent$$0000000D) refers (Special) to _printf_ll.o(.ARM.Collect$$_printf_percent$$00000007) for _printf_ll
    _printf_lli.o(.ARM.Collect$$_printf_percent$$0000000D) refers (Weak) to _printf_longlong_dec.o(.text) for _printf_longlong_dec
    _printf_lld.o(.ARM.Collect$$_printf_percent$$0000000E) refers (Special) to _printf_ll.o(.ARM.Collect$$_printf_percent$$00000007) for _printf_ll
    _printf_lld.o(.ARM.Collect$$_printf_percent$$0000000E) refers (Weak) to _printf_longlong_dec.o(.text) for _printf_longlong_dec
    _printf_llu.o(.ARM.Collect$$_printf_percent$$0000000F) refers (Special) to _printf_ll.o(.ARM.Collect$$_printf_percent$$00000007) for _printf_ll
    _printf_llu.o(.ARM.Collect$$_printf_percent$$0000000F) refers (Weak) to _printf_longlong_dec.o(.text) for _printf_longlong_dec
    _printf_lc.o(.ARM.Collect$$_printf_percent$$00000015) refers (Special) to _printf_l.o(.ARM.Collect$$_printf_percent$$00000012) for _printf_l
    _printf_lc.o(.ARM.Collect$$_printf_percent$$00000015) refers (Weak) to _printf_wchar.o(.text) for _printf_wchar
    _printf_ls.o(.ARM.Collect$$_printf_percent$$00000016) refers (Special) to _printf_l.o(.ARM.Collect$$_printf_percent$$00000012) for _printf_l
    _printf_ls.o(.ARM.Collect$$_printf_percent$$00000016) refers (Weak) to _printf_wchar.o(.text) for _printf_wstring
    _printf_llo.o(.ARM.Collect$$_printf_percent$$00000010) refers (Special) to _printf_ll.o(.ARM.Collect$$_printf_percent$$00000007) for _printf_ll
    _printf_llo.o(.ARM.Collect$$_printf_percent$$00000010) refers (Weak) to _printf_oct_int_ll.o(.text) for _printf_ll_oct
    _printf_llx.o(.ARM.Collect$$_printf_percent$$00000011) refers (Special) to _printf_ll.o(.ARM.Collect$$_printf_percent$$00000007) for _printf_ll
    _printf_llx.o(.ARM.Collect$$_printf_percent$$00000011) refers (Weak) to _printf_hex_int_ll_ptr.o(.text) for _printf_ll_hex
    _scanf_longlong.o(.text) refers to _chval.o(.text) for _chval
    _scanf_int.o(.text) refers to _chval.o(.text) for _chval
    scanf_char.o(.text) refers to _scanf.o(.text) for __vfscanf
    scanf_char.o(.text) refers to isspace.o(.text) for isspace
    _scanf_mbtowc.o(.text) refers to _mbrtowc.o(.text) for _mbrtowc
    _scanf_wctomb.o(.text) refers to _wcrtomb.o(.text) for _wcrtomb
    _scanf_wctomb.o(.text) refers to _scanf_wcharmap.o(.text) for _scanf_wcharmap
    _scanf_wstr.o(.text) refers to _scanf_wcharmap.o(.text) for _scanf_wcharmap
    initio.o(.text) refers (Special) to libinit2.o(.ARM.Collect$$libinit$$00000024) for __rt_lib_init_stdio_2
    initio.o(.text) refers (Special) to libshutdown2.o(.ARM.Collect$$libshutdown$$00000003) for __rt_lib_shutdown_stdio_2
    initio.o(.text) refers to rt_memclr_w.o(.text) for __aeabi_memclr4
    initio.o(.text) refers to fopen.o(.text) for freopen
    initio.o(.text) refers to defsig_rtred_outer.o(.text) for __rt_SIGRTRED
    initio.o(.text) refers to setvbuf.o(.text) for setvbuf
    initio.o(.text) refers to fclose.o(.text) for _fclose_internal
    initio.o(.text) refers to h1_free.o(.text) for free
    initio.o(.text) refers to stdio_streams.o(.bss) for __stdin
    initio.o(.text) refers to stdio_streams.o(.bss) for __stdout
    initio.o(.text) refers to stdio_streams.o(.bss) for __stderr
    initio.o(.text) refers to stdio_streams.o(.data) for __aeabi_stdin
    initio.o(.text) refers to stdio_streams.o(.data) for __aeabi_stdout
    initio.o(.text) refers to stdio_streams.o(.data) for __aeabi_stderr
    initio.o(.text) refers to sys_io.o(.constdata) for __stdin_name
    initio.o(.text) refers to sys_io.o(.constdata) for __stdout_name
    initio.o(.text) refers to sys_io.o(.constdata) for __stderr_name
    initio_locked.o(.text) refers (Special) to libinit2.o(.ARM.Collect$$libinit$$00000024) for __rt_lib_init_stdio_2
    initio_locked.o(.text) refers (Special) to libshutdown2.o(.ARM.Collect$$libshutdown$$00000003) for __rt_lib_shutdown_stdio_2
    initio_locked.o(.text) refers to rt_memclr_w.o(.text) for __aeabi_memclr4
    initio_locked.o(.text) refers to fopen.o(.text) for freopen
    initio_locked.o(.text) refers to defsig_rtred_outer.o(.text) for __rt_SIGRTRED
    initio_locked.o(.text) refers to setvbuf.o(.text) for setvbuf
    initio_locked.o(.text) refers to fclose.o(.text) for _fclose_internal
    initio_locked.o(.text) refers to h1_free.o(.text) for free
    initio_locked.o(.text) refers to stdio_streams.o(.bss) for __stdin
    initio_locked.o(.text) refers to stdio_streams.o(.bss) for __stdout
    initio_locked.o(.text) refers to stdio_streams.o(.bss) for __stderr
    initio_locked.o(.text) refers to stdio_streams.o(.data) for __aeabi_stdin
    initio_locked.o(.text) refers to stdio_streams.o(.data) for __aeabi_stdout
    initio_locked.o(.text) refers to stdio_streams.o(.data) for __aeabi_stderr
    initio_locked.o(.text) refers to streamlock.o(.data) for _stream_list_lock
    initio_locked.o(.text) refers to sys_io.o(.constdata) for __stdin_name
    initio_locked.o(.text) refers to sys_io.o(.constdata) for __stdout_name
    initio_locked.o(.text) refers to sys_io.o(.constdata) for __stderr_name
    locale.o(.text) refers to locale_r.o(.text) for _setlocale_r
    locale.o(.text) refers to locale.o(.bss) for .bss
    localeconv.o(.text) refers to _lconv.o(.text) for _get_lconv
    localeconv.o(.text) refers to localeconv.o(.bss) for .bss
    mbrtowc.o(.text) refers to _mbrtowc.o(.text) for _mbrtowc
    mbrtowc.o(.text) refers to rt_errno_addr_intlibspace.o(.text) for __aeabi_errno_addr
    wcrtomb.o(.text) refers to _wcrtomb.o(.text) for _wcrtomb
    wcrtomb.o(.text) refers to rt_memcpy_v6.o(.text) for __aeabi_memcpy
    wcrtomb.o(.text) refers to rt_errno_addr_intlibspace.o(.text) for __aeabi_errno_addr
    _mbcurmax.o(.text) refers to rt_ctype_table.o(.text) for __rt_ctype_table
    exit.o(.text) refers to rtexit.o(.ARM.Collect$$rtexit$$00000000) for __rt_exit
    atexit_aeabi.o(.text) refers to aeabi_atexit.o(.text) for __aeabi_atexit
    atexit_aeabi.o(.ARM.exidx) refers to atexit_aeabi.o(.text) for .text
    aeabi_atexit.o(.text) refers (Special) to cxa_finalize.o(.text) for __cxa_finalize
    aeabi_atexit.o(.text) refers to h1_alloc.o(.text) for malloc
    aeabi_atexit.o(.text) refers to rt_ddtor_pointer_addr_intlibspace.o(.text) for __rt_ddtor_pointer_addr
    aeabi_atexit.o(.ARM.exidx) refers (Special) to cxa_finalize.o(.text) for __cxa_finalize
    aeabi_atexit.o(.ARM.exidx) refers to aeabi_atexit.o(.text) for .text
    defsig_abrt_outer.o(.text) refers to defsig_abrt_inner.o(.text) for __rt_SIGABRT_inner
    defsig_abrt_outer.o(.text) refers to defsig_exit.o(.text) for __sig_exit
    defsig_abrt_formal.o(.text) refers to rt_raise.o(.text) for __rt_raise
    defsig_fpe_outer.o(.text) refers to defsig_fpe_inner.o(.text) for __rt_SIGFPE_inner
    defsig_fpe_outer.o(.text) refers to defsig_exit.o(.text) for __sig_exit
    defsig_fpe_formal.o(.text) refers to rt_raise.o(.text) for __rt_raise
    defsig_rtmem_outer.o(.text) refers to defsig_rtmem_inner.o(.text) for __rt_SIGRTMEM_inner
    defsig_rtmem_outer.o(.text) refers to defsig_exit.o(.text) for __sig_exit
    defsig_rtmem_formal.o(.text) refers to rt_raise.o(.text) for __rt_raise
    strcoll.o(.text) refers (Special) to lc_collate_c.o(locale$$code) for _get_lc_collate
    strcoll.o(.text) refers to rt_locale_intlibspace.o(.text) for __rt_locale
    strcoll.o(.text) refers to strcmpv7m.o(.text) for strcmp
    strxfrm.o(.text) refers (Special) to lc_collate_c.o(locale$$code) for _get_lc_collate
    strxfrm.o(.text) refers to strlen.o(.text) for strlen
    strxfrm.o(.text) refers to rt_locale_intlibspace.o(.text) for __rt_locale
    memcpy.o(.text) refers to rt_memcpy_v6.o(.text) for __aeabi_memcpy
    heapauxa.o(.text) refers to heapauxa.o(.data) for .data
    _get_argv_nomalloc.o(.text) refers (Special) to hrguard.o(.text) for __heap_region$guard
    _get_argv_nomalloc.o(.text) refers to defsig_rtmem_outer.o(.text) for __rt_SIGRTMEM
    _get_argv_nomalloc.o(.text) refers to sys_command.o(.text) for _sys_command_string
    libinit.o(.ARM.Collect$$libinit$$00000000) refers (Special) to libinit2.o(.ARM.Collect$$libinit$$0000002E) for __rt_lib_init_alloca_1
    libinit.o(.ARM.Collect$$libinit$$00000000) refers (Special) to libinit2.o(.ARM.Collect$$libinit$$0000002C) for __rt_lib_init_argv_1
    libinit.o(.ARM.Collect$$libinit$$00000000) refers (Special) to libinit2.o(.ARM.Collect$$libinit$$0000001B) for __rt_lib_init_atexit_1
    libinit.o(.ARM.Collect$$libinit$$00000000) refers (Special) to libinit2.o(.ARM.Collect$$libinit$$00000021) for __rt_lib_init_clock_1
    libinit.o(.ARM.Collect$$libinit$$00000000) refers (Special) to libinit2.o(.ARM.Collect$$libinit$$00000032) for __rt_lib_init_cpp_1
    libinit.o(.ARM.Collect$$libinit$$00000000) refers (Special) to libinit2.o(.ARM.Collect$$libinit$$00000030) for __rt_lib_init_exceptions_1
    libinit.o(.ARM.Collect$$libinit$$00000000) refers (Special) to libinit2.o(.ARM.Collect$$libinit$$00000001) for __rt_lib_init_fp_1
    libinit.o(.ARM.Collect$$libinit$$00000000) refers (Special) to libinit2.o(.ARM.Collect$$libinit$$0000001F) for __rt_lib_init_fp_trap_1
    libinit.o(.ARM.Collect$$libinit$$00000000) refers (Special) to libinit2.o(.ARM.Collect$$libinit$$00000023) for __rt_lib_init_getenv_1
    libinit.o(.ARM.Collect$$libinit$$00000000) refers (Special) to libinit2.o(.ARM.Collect$$libinit$$0000000A) for __rt_lib_init_heap_1
    libinit.o(.ARM.Collect$$libinit$$00000000) refers (Special) to libinit2.o(.ARM.Collect$$libinit$$00000011) for __rt_lib_init_lc_collate_1
    libinit.o(.ARM.Collect$$libinit$$00000000) refers (Special) to libinit2.o(.ARM.Collect$$libinit$$00000013) for __rt_lib_init_lc_ctype_1
    libinit.o(.ARM.Collect$$libinit$$00000000) refers (Special) to libinit2.o(.ARM.Collect$$libinit$$00000015) for __rt_lib_init_lc_monetary_1
    libinit.o(.ARM.Collect$$libinit$$00000000) refers (Special) to libinit2.o(.ARM.Collect$$libinit$$00000017) for __rt_lib_init_lc_numeric_1
    libinit.o(.ARM.Collect$$libinit$$00000000) refers (Special) to libinit2.o(.ARM.Collect$$libinit$$00000019) for __rt_lib_init_lc_time_1
    libinit.o(.ARM.Collect$$libinit$$00000000) refers (Special) to libinit2.o(.ARM.Collect$$libinit$$00000004) for __rt_lib_init_preinit_1
    libinit.o(.ARM.Collect$$libinit$$00000000) refers (Special) to libinit2.o(.ARM.Collect$$libinit$$0000000E) for __rt_lib_init_rand_1
    libinit.o(.ARM.Collect$$libinit$$00000000) refers (Special) to libinit2.o(.ARM.Collect$$libinit$$00000033) for __rt_lib_init_return
    libinit.o(.ARM.Collect$$libinit$$00000000) refers (Special) to libinit2.o(.ARM.Collect$$libinit$$0000001D) for __rt_lib_init_signal_1
    libinit.o(.ARM.Collect$$libinit$$00000000) refers (Special) to libinit2.o(.ARM.Collect$$libinit$$00000025) for __rt_lib_init_stdio_1
    libinit.o(.ARM.Collect$$libinit$$00000000) refers (Special) to libinit2.o(.ARM.Collect$$libinit$$0000000C) for __rt_lib_init_user_alloc_1
    rwcats.o(i._Z7catgetsPN4__rw8__rw_catEiiPKc) refers to rwcats.o(i._ZN4__rw9__catfindEPNS_8__rw_catE) for __rw::__catfind(__rw::__rw_cat*)
    rwcats.o(i._Z7catgetsPN4__rw8__rw_catEiiPKc) refers to rwcats.o(.data) for .data
    rwcats.o(i._Z7catopenPKci) refers to new.o(i._Znwj) for operator new(unsigned)
    rwcats.o(i._Z7catopenPKci) refers to delete.o(i._ZdlPv) for operator delete (void*)
    rwcats.o(i._Z7catopenPKci.clean) refers to arm_exceptions_cleanup.o(.emb_text) for __cxa_end_cleanup
    rwcats.o(i._Z8catclosePN4__rw8__rw_catE) refers to rwcats.o(i._ZN4__rw9__catfindEPNS_8__rw_catE) for __rw::__catfind(__rw::__rw_cat*)
    rwcats.o(i._Z8catclosePN4__rw8__rw_catE) refers to delete.o(i._ZdlPv) for operator delete (void*)
    rwcats.o(i._Z8catclosePN4__rw8__rw_catE) refers to rwcats.o(.data) for .data
    rwcats.o(i._ZN4__rw9__catfindEPNS_8__rw_catE) refers to rwcats.o(.data) for .data
    rwcats.o(i.__sti___10_rwcats_cpp_64e8068e) refers to array_new.o(i._Znaj) for operator new[] (unsigned)
    rwcats.o(i.__sti___10_rwcats_cpp_64e8068e) refers to aeabi_atexit.o(.text) for __aeabi_atexit
    rwcats.o(i.__sti___10_rwcats_cpp_64e8068e) refers to rwcats.o(.data) for .data
    rwcats.o(i.__sti___10_rwcats_cpp_64e8068e) refers to rwcats.o(t._ZN4__rw18__rw_locale_vectorIPNS_8__rw_catEED1Ev) for __rw::__rw_locale_vector<__rw::__rw_cat*>::~__rw_locale_vector()
    rwcats.o(.ARM.exidx) refers to rwcats.o(i._Z7catopenPKci) for i._Z7catopenPKci
    rwcats.o(.ARM.exidx) refers to unwind_pr0.o(.text) for __aeabi_unwind_cpp_pr0
    rwcats.o(.ARM.exidx) refers to rwcats.o(.ARM.extab) for .extab._Z7catopenPKci
    rwcats.o(.ARM.exidx) refers to rwcats.o(i._Z7catopenPKci.clean) for i._Z7catopenPKci.clean
    rwcats.o(.ARM.exidx) refers to rwcats.o(i._ZN4__rw9__catfindEPNS_8__rw_catE) for i._ZN4__rw9__catfindEPNS_8__rw_catE
    rwcats.o(.ARM.exidx) refers to rwcats.o(i._Z7catgetsPN4__rw8__rw_catEiiPKc) for i._Z7catgetsPN4__rw8__rw_catEiiPKc
    rwcats.o(.ARM.exidx) refers to unwind_pr0.o(.text) for __aeabi_unwind_cpp_pr0
    rwcats.o(.ARM.exidx) refers to rwcats.o(.ARM.extab) for .extab._Z7catgetsPN4__rw8__rw_catEiiPKc
    rwcats.o(.ARM.exidx) refers to rwcats.o(i._Z8catclosePN4__rw8__rw_catE) for i._Z8catclosePN4__rw8__rw_catE
    rwcats.o(.ARM.exidx) refers to unwind_pr0.o(.text) for __aeabi_unwind_cpp_pr0
    rwcats.o(.ARM.exidx) refers to rwcats.o(i.__sti___10_rwcats_cpp_64e8068e) for i.__sti___10_rwcats_cpp_64e8068e
    rwcats.o(.ARM.exidx) refers to unwind_pr0.o(.text) for __aeabi_unwind_cpp_pr0
    rwcats.o(.ARM.extab) refers to rwcats.o(i._Z7catopenPKci) for i._Z7catopenPKci
    rwcats.o(.ARM.extab) refers to rwcats.o(i._Z7catgetsPN4__rw8__rw_catEiiPKc) for i._Z7catgetsPN4__rw8__rw_catEiiPKc
    rwcats.o(.init_array) refers to rwcats.o(i.__sti___10_rwcats_cpp_64e8068e) for __sti___10_rwcats_cpp_64e8068e
    rwcats.o(.init_array) refers to init_aeabi.o(.text) for __cpp_initialize__aeabi_
    rwthrowproc_impl_noex.o(i._ZN4__rw25__rw_throw_exception_noexEiPc) refers to fprintf.o(.text) for fprintf
    rwthrowproc_impl_noex.o(i._ZN4__rw25__rw_throw_exception_noexEiPc) refers to array_del.o(i._ZdaPv) for operator delete[] (void*)
    rwthrowproc_impl_noex.o(i._ZN4__rw25__rw_throw_exception_noexEiPc) refers to abort.o(.text) for abort
    rwthrowproc_impl_noex.o(i._ZN4__rw25__rw_throw_exception_noexEiPc) refers to stdio_streams.o(.bss) for __stderr
    rwthrowproc_impl_noex.o(.ARM.exidx) refers to rwthrowproc_impl_noex.o(i._ZN4__rw25__rw_throw_exception_noexEiPc) for i._ZN4__rw25__rw_throw_exception_noexEiPc
    vendor.o(i._ZN4__rw15__rw_locale_imp13_C_parse_nameERNS_18__rw_locale_vectorISsEEPKc) refers to locale.o(.text) for setlocale
    vendor.o(i._ZN4__rw15__rw_locale_imp13_C_parse_nameERNS_18__rw_locale_vectorISsEEPKc) refers to strlen.o(.text) for strlen
    vendor.o(i._ZN4__rw15__rw_locale_imp13_C_parse_nameERNS_18__rw_locale_vectorISsEEPKc) refers to locale.o(t._ZNSs11_C_allocateEjjj) for std::basic_string<char, std::char_traits<char>, std::allocator<char>>::_C_allocate(unsigned, unsigned, unsigned)
    vendor.o(i._ZN4__rw15__rw_locale_imp13_C_parse_nameERNS_18__rw_locale_vectorISsEEPKc) refers to char.o(i._ZNSt11char_traitsIcE4copyEPcPKcj) for std::char_traits<char>::copy(char*, const char*, unsigned)
    vendor.o(i._ZN4__rw15__rw_locale_imp13_C_parse_nameERNS_18__rw_locale_vectorISsEEPKc) refers to locale.o(t._ZNSsaSEPKc) for std::basic_string<char, std::char_traits<char>, std::allocator<char>>::operator =(const char*)
    vendor.o(i._ZN4__rw15__rw_locale_imp13_C_parse_nameERNS_18__rw_locale_vectorISsEEPKc) refers to char.o(t._ZNSsD1Ev) for std::basic_string<char, std::char_traits<char>, std::allocator<char>>::~basic_string()
    vendor.o(i._ZN4__rw15__rw_locale_imp13_C_parse_nameERNS_18__rw_locale_vectorISsEEPKc) refers to vendor.o(.bss__ZNSs9__nullrefE) for std::basic_string<char, std::char_traits<char>, std::allocator<char>>::__nullref
    vendor.o(i._ZN4__rw15__rw_locale_imp13_C_parse_nameERNS_18__rw_locale_vectorISsEEPKc.clean) refers to char.o(t._ZNSsD1Ev) for std::basic_string<char, std::char_traits<char>, std::allocator<char>>::~basic_string()
    vendor.o(i._ZN4__rw15__rw_locale_imp13_C_parse_nameERNS_18__rw_locale_vectorISsEEPKc.clean) refers to arm_exceptions_cleanup.o(.emb_text) for __cxa_end_cleanup
    vendor.o(i._ZN4__rw22__rw_digit_reader_base10_C_reallocERPcS1_Rj) refers to array_new.o(i._Znaj) for operator new[] (unsigned)
    vendor.o(i._ZN4__rw22__rw_digit_reader_base10_C_reallocERPcS1_Rj) refers to array_del.o(i._ZdaPv) for operator delete[] (void*)
    vendor.o(i._ZN4__rw22__rw_digit_reader_base10_C_reallocERPcS1_Rj) refers to arm_rethrow_noexceptions.o(.text) for __cxa_rethrow
    vendor.o(i._ZN4__rw22__rw_digit_reader_base10_C_reallocERPcS1_Rj.clean) refers to arm_exceptions_cleanup.o(.emb_text) for __cxa_end_cleanup
    vendor.o(i._ZN4__rw22__rw_digit_reader_base14_C_parse_floatEPKcS2_Pv) refers to vendor.o(i._ZN4__rw22__rw_digit_reader_base10_C_reallocERPcS1_Rj) for __rw::__rw_digit_reader_base::_C_realloc(char*&, char*, unsigned&)
    vendor.o(i._ZN4__rw22__rw_digit_reader_base14_C_parse_floatEPKcS2_Pv) refers to locale.o(i._ZN4__rw21__rw_use_c_lib_localeC1EPKci) for __rw::__rw_use_c_lib_locale::__rw_use_c_lib_locale(const char*, int)
    vendor.o(i._ZN4__rw22__rw_digit_reader_base14_C_parse_floatEPKcS2_Pv) refers to char.o(i._ZN4__rw21__rw_use_c_lib_localeD1Ev) for __rw::__rw_use_c_lib_locale::~__rw_use_c_lib_locale()
    vendor.o(i._ZN4__rw22__rw_digit_reader_base14_C_parse_floatEPKcS2_Pv) refers to sscanf.o(.text) for sscanf
    vendor.o(i._ZN4__rw22__rw_digit_reader_base14_C_parse_floatEPKcS2_Pv) refers to array_del.o(i._ZdaPv) for operator delete[] (void*)
    vendor.o(i._ZN4__rw22__rw_digit_reader_base14_C_parse_floatEPKcS2_Pv) refers to locale.o(.constdata) for __rw::__rw_digit_map_base::_C_digit_chars
    vendor.o(i._ZN4__rw22__rw_digit_reader_base8_C_parseEPKcPv) refers to vendor.o(i._ZN4__rw22__rw_digit_reader_base10_C_reallocERPcS1_Rj) for __rw::__rw_digit_reader_base::_C_realloc(char*&, char*, unsigned&)
    vendor.o(i._ZN4__rw22__rw_digit_reader_base8_C_parseEPKcPv) refers to sscanf.o(.text) for sscanf
    vendor.o(i._ZN4__rw22__rw_digit_reader_base8_C_parseEPKcPv) refers to array_del.o(i._ZdaPv) for operator delete[] (void*)
    vendor.o(i._ZN4__rw22__rw_digit_reader_base8_C_parseEPKcPv) refers to locale.o(.constdata) for __rw::__rw_digit_map_base::_C_digit_chars
    vendor.o(i._ZN4__rw22__rw_digit_reader_base8_C_parseEPKcm) refers to vendor.o(i._ZN4__rw22__rw_digit_reader_base16_C_parse_decimalEPKcS2_) for __rw::__rw_digit_reader_base::_C_parse_decimal(const char*, const char*)
    vendor.o(i._ZN4__rw22__rw_digit_reader_base8_C_parseEPKcy) refers to vendor.o(i._ZN4__rw22__rw_digit_reader_base10_C_reallocERPcS1_Rj) for __rw::__rw_digit_reader_base::_C_realloc(char*&, char*, unsigned&)
    vendor.o(i._ZN4__rw22__rw_digit_reader_base8_C_parseEPKcy) refers to strtoull.o(.text) for strtoull
    vendor.o(i._ZN4__rw22__rw_digit_reader_base8_C_parseEPKcy) refers to array_del.o(i._ZdaPv) for operator delete[] (void*)
    vendor.o(i._ZN4__rw22__rw_digit_writer_base11_C_digitizeEPKv) refers to sprintf.o(.text) for sprintf
    vendor.o(i._ZN4__rw22__rw_digit_writer_base11_C_digitizeEPKv) refers to rt_memmove_v6.o(.text) for __aeabi_memmove
    vendor.o(i._ZN4__rw22__rw_digit_writer_base11_C_digitizeEd) refers to _printf_pad.o(.text) for _printf_pre_padding
    vendor.o(i._ZN4__rw22__rw_digit_writer_base11_C_digitizeEd) refers to _printf_truncate.o(.text) for _printf_truncate_unsigned
    vendor.o(i._ZN4__rw22__rw_digit_writer_base11_C_digitizeEd) refers to _printf_percent.o(.ARM.Collect$$_printf_percent$$00000000) for _printf_percent
    vendor.o(i._ZN4__rw22__rw_digit_writer_base11_C_digitizeEd) refers to _printf_d.o(.ARM.Collect$$_printf_percent$$00000009) for _printf_d
    vendor.o(i._ZN4__rw22__rw_digit_writer_base11_C_digitizeEd) refers to _printf_i.o(.ARM.Collect$$_printf_percent$$00000008) for _printf_i
    vendor.o(i._ZN4__rw22__rw_digit_writer_base11_C_digitizeEd) refers to _printf_u.o(.ARM.Collect$$_printf_percent$$0000000A) for _printf_u
    vendor.o(i._ZN4__rw22__rw_digit_writer_base11_C_digitizeEd) refers to _printf_o.o(.ARM.Collect$$_printf_percent$$0000000B) for _printf_o
    vendor.o(i._ZN4__rw22__rw_digit_writer_base11_C_digitizeEd) refers to _printf_x.o(.ARM.Collect$$_printf_percent$$0000000C) for _printf_x
    vendor.o(i._ZN4__rw22__rw_digit_writer_base11_C_digitizeEd) refers to _printf_f.o(.ARM.Collect$$_printf_percent$$00000003) for _printf_f
    vendor.o(i._ZN4__rw22__rw_digit_writer_base11_C_digitizeEd) refers to _printf_e.o(.ARM.Collect$$_printf_percent$$00000004) for _printf_e
    vendor.o(i._ZN4__rw22__rw_digit_writer_base11_C_digitizeEd) refers to _printf_g.o(.ARM.Collect$$_printf_percent$$00000005) for _printf_g
    vendor.o(i._ZN4__rw22__rw_digit_writer_base11_C_digitizeEd) refers to _printf_c.o(.ARM.Collect$$_printf_percent$$00000013) for _printf_c
    vendor.o(i._ZN4__rw22__rw_digit_writer_base11_C_digitizeEd) refers to _printf_lc.o(.ARM.Collect$$_printf_percent$$00000015) for _printf_lc
    vendor.o(i._ZN4__rw22__rw_digit_writer_base11_C_digitizeEd) refers to _printf_a.o(.ARM.Collect$$_printf_percent$$00000006) for _printf_a
    vendor.o(i._ZN4__rw22__rw_digit_writer_base11_C_digitizeEd) refers to printf2.o(x$fpl$printf2) for _printf_fp_hex
    vendor.o(i._ZN4__rw22__rw_digit_writer_base11_C_digitizeEd) refers to _printf_dec.o(.text) for _printf_int_dec
    vendor.o(i._ZN4__rw22__rw_digit_writer_base11_C_digitizeEd) refers to _printf_oct_int_ll.o(.text) for _printf_longlong_oct
    vendor.o(i._ZN4__rw22__rw_digit_writer_base11_C_digitizeEd) refers to _printf_hex_int_ll_ptr.o(.text) for _printf_longlong_hex
    vendor.o(i._ZN4__rw22__rw_digit_writer_base11_C_digitizeEd) refers to printf1.o(x$fpl$printf1) for _printf_fp_dec
    vendor.o(i._ZN4__rw22__rw_digit_writer_base11_C_digitizeEd) refers to _printf_str.o(.text) for _printf_str
    vendor.o(i._ZN4__rw22__rw_digit_writer_base11_C_digitizeEd) refers to _printf_wctomb.o(.text) for _printf_wctomb
    vendor.o(i._ZN4__rw22__rw_digit_writer_base11_C_digitizeEd) refers to vendor.o(i._ZN4__rw22__rw_digit_writer_base16_C_get_f_patternEPcc) for __rw::__rw_digit_writer_base::_C_get_f_pattern(char*, char)
    vendor.o(i._ZN4__rw22__rw_digit_writer_base11_C_digitizeEd) refers to deqf.o(x$fpl$deqf) for __aeabi_cdcmpeq
    vendor.o(i._ZN4__rw22__rw_digit_writer_base11_C_digitizeEd) refers to dleqf.o(x$fpl$dleqf) for __aeabi_cdcmple
    vendor.o(i._ZN4__rw22__rw_digit_writer_base11_C_digitizeEd) refers to array_new.o(i._Znaj) for operator new[] (unsigned)
    vendor.o(i._ZN4__rw22__rw_digit_writer_base11_C_digitizeEd) refers to __2sprintf.o(.text) for __2sprintf
    vendor.o(i._ZN4__rw22__rw_digit_writer_base11_C_digitizeEe) refers to _printf_pad.o(.text) for _printf_pre_padding
    vendor.o(i._ZN4__rw22__rw_digit_writer_base11_C_digitizeEe) refers to _printf_truncate.o(.text) for _printf_truncate_unsigned
    vendor.o(i._ZN4__rw22__rw_digit_writer_base11_C_digitizeEe) refers to _printf_percent.o(.ARM.Collect$$_printf_percent$$00000000) for _printf_percent
    vendor.o(i._ZN4__rw22__rw_digit_writer_base11_C_digitizeEe) refers to _printf_d.o(.ARM.Collect$$_printf_percent$$00000009) for _printf_d
    vendor.o(i._ZN4__rw22__rw_digit_writer_base11_C_digitizeEe) refers to _printf_i.o(.ARM.Collect$$_printf_percent$$00000008) for _printf_i
    vendor.o(i._ZN4__rw22__rw_digit_writer_base11_C_digitizeEe) refers to _printf_u.o(.ARM.Collect$$_printf_percent$$0000000A) for _printf_u
    vendor.o(i._ZN4__rw22__rw_digit_writer_base11_C_digitizeEe) refers to _printf_o.o(.ARM.Collect$$_printf_percent$$0000000B) for _printf_o
    vendor.o(i._ZN4__rw22__rw_digit_writer_base11_C_digitizeEe) refers to _printf_x.o(.ARM.Collect$$_printf_percent$$0000000C) for _printf_x
    vendor.o(i._ZN4__rw22__rw_digit_writer_base11_C_digitizeEe) refers to _printf_f.o(.ARM.Collect$$_printf_percent$$00000003) for _printf_f
    vendor.o(i._ZN4__rw22__rw_digit_writer_base11_C_digitizeEe) refers to _printf_e.o(.ARM.Collect$$_printf_percent$$00000004) for _printf_e
    vendor.o(i._ZN4__rw22__rw_digit_writer_base11_C_digitizeEe) refers to _printf_g.o(.ARM.Collect$$_printf_percent$$00000005) for _printf_g
    vendor.o(i._ZN4__rw22__rw_digit_writer_base11_C_digitizeEe) refers to _printf_c.o(.ARM.Collect$$_printf_percent$$00000013) for _printf_c
    vendor.o(i._ZN4__rw22__rw_digit_writer_base11_C_digitizeEe) refers to _printf_lc.o(.ARM.Collect$$_printf_percent$$00000015) for _printf_lc
    vendor.o(i._ZN4__rw22__rw_digit_writer_base11_C_digitizeEe) refers to _printf_a.o(.ARM.Collect$$_printf_percent$$00000006) for _printf_a
    vendor.o(i._ZN4__rw22__rw_digit_writer_base11_C_digitizeEe) refers to printf2.o(x$fpl$printf2) for _printf_fp_hex
    vendor.o(i._ZN4__rw22__rw_digit_writer_base11_C_digitizeEe) refers to _printf_dec.o(.text) for _printf_int_dec
    vendor.o(i._ZN4__rw22__rw_digit_writer_base11_C_digitizeEe) refers to _printf_oct_int_ll.o(.text) for _printf_longlong_oct
    vendor.o(i._ZN4__rw22__rw_digit_writer_base11_C_digitizeEe) refers to _printf_hex_int_ll_ptr.o(.text) for _printf_longlong_hex
    vendor.o(i._ZN4__rw22__rw_digit_writer_base11_C_digitizeEe) refers to printf1.o(x$fpl$printf1) for _printf_fp_dec
    vendor.o(i._ZN4__rw22__rw_digit_writer_base11_C_digitizeEe) refers to _printf_str.o(.text) for _printf_str
    vendor.o(i._ZN4__rw22__rw_digit_writer_base11_C_digitizeEe) refers to _printf_wctomb.o(.text) for _printf_wctomb
    vendor.o(i._ZN4__rw22__rw_digit_writer_base11_C_digitizeEe) refers to vendor.o(i._ZN4__rw22__rw_digit_writer_base16_C_get_f_patternEPcc) for __rw::__rw_digit_writer_base::_C_get_f_pattern(char*, char)
    vendor.o(i._ZN4__rw22__rw_digit_writer_base11_C_digitizeEe) refers to deqf.o(x$fpl$deqf) for __aeabi_cdcmpeq
    vendor.o(i._ZN4__rw22__rw_digit_writer_base11_C_digitizeEe) refers to dleqf.o(x$fpl$dleqf) for __aeabi_cdcmple
    vendor.o(i._ZN4__rw22__rw_digit_writer_base11_C_digitizeEe) refers to array_new.o(i._Znaj) for operator new[] (unsigned)
    vendor.o(i._ZN4__rw22__rw_digit_writer_base11_C_digitizeEe) refers to __2sprintf.o(.text) for __2sprintf
    vendor.o(i._ZN4__rw22__rw_digit_writer_base11_C_digitizeEmbPKc) refers to _printf_pad.o(.text) for _printf_pre_padding
    vendor.o(i._ZN4__rw22__rw_digit_writer_base11_C_digitizeEmbPKc) refers to _printf_truncate.o(.text) for _printf_truncate_unsigned
    vendor.o(i._ZN4__rw22__rw_digit_writer_base11_C_digitizeEmbPKc) refers to _printf_percent.o(.ARM.Collect$$_printf_percent$$00000000) for _printf_percent
    vendor.o(i._ZN4__rw22__rw_digit_writer_base11_C_digitizeEmbPKc) refers to _printf_d.o(.ARM.Collect$$_printf_percent$$00000009) for _printf_d
    vendor.o(i._ZN4__rw22__rw_digit_writer_base11_C_digitizeEmbPKc) refers to _printf_i.o(.ARM.Collect$$_printf_percent$$00000008) for _printf_i
    vendor.o(i._ZN4__rw22__rw_digit_writer_base11_C_digitizeEmbPKc) refers to _printf_u.o(.ARM.Collect$$_printf_percent$$0000000A) for _printf_u
    vendor.o(i._ZN4__rw22__rw_digit_writer_base11_C_digitizeEmbPKc) refers to _printf_o.o(.ARM.Collect$$_printf_percent$$0000000B) for _printf_o
    vendor.o(i._ZN4__rw22__rw_digit_writer_base11_C_digitizeEmbPKc) refers to _printf_x.o(.ARM.Collect$$_printf_percent$$0000000C) for _printf_x
    vendor.o(i._ZN4__rw22__rw_digit_writer_base11_C_digitizeEmbPKc) refers to _printf_c.o(.ARM.Collect$$_printf_percent$$00000013) for _printf_c
    vendor.o(i._ZN4__rw22__rw_digit_writer_base11_C_digitizeEmbPKc) refers to _printf_lc.o(.ARM.Collect$$_printf_percent$$00000015) for _printf_lc
    vendor.o(i._ZN4__rw22__rw_digit_writer_base11_C_digitizeEmbPKc) refers to _printf_dec.o(.text) for _printf_int_dec
    vendor.o(i._ZN4__rw22__rw_digit_writer_base11_C_digitizeEmbPKc) refers to _printf_oct_int_ll.o(.text) for _printf_longlong_oct
    vendor.o(i._ZN4__rw22__rw_digit_writer_base11_C_digitizeEmbPKc) refers to _printf_hex_int_ll_ptr.o(.text) for _printf_longlong_hex
    vendor.o(i._ZN4__rw22__rw_digit_writer_base11_C_digitizeEmbPKc) refers to _printf_str.o(.text) for _printf_str
    vendor.o(i._ZN4__rw22__rw_digit_writer_base11_C_digitizeEmbPKc) refers to _printf_wctomb.o(.text) for _printf_wctomb
    vendor.o(i._ZN4__rw22__rw_digit_writer_base11_C_digitizeEmbPKc) refers to vendor.o(i._ZN4__rw22__rw_digit_writer_base14_C_get_patternEPcPKcb) for __rw::__rw_digit_writer_base::_C_get_pattern(char*, const char*, bool)
    vendor.o(i._ZN4__rw22__rw_digit_writer_base11_C_digitizeEmbPKc) refers to __2sprintf.o(.text) for __2sprintf
    vendor.o(i._ZN4__rw22__rw_digit_writer_base11_C_digitizeEmbPKc) refers to vendor.o(i._ZN4__rw22__rw_digit_writer_base12_C_to_binaryEm) for __rw::__rw_digit_writer_base::_C_to_binary(unsigned long)
    vendor.o(i._ZN4__rw22__rw_digit_writer_base11_C_digitizeEyb) refers to _printf_pad.o(.text) for _printf_pre_padding
    vendor.o(i._ZN4__rw22__rw_digit_writer_base11_C_digitizeEyb) refers to _printf_truncate.o(.text) for _printf_truncate_unsigned
    vendor.o(i._ZN4__rw22__rw_digit_writer_base11_C_digitizeEyb) refers to _printf_percent.o(.ARM.Collect$$_printf_percent$$00000000) for _printf_percent
    vendor.o(i._ZN4__rw22__rw_digit_writer_base11_C_digitizeEyb) refers to _printf_d.o(.ARM.Collect$$_printf_percent$$00000009) for _printf_d
    vendor.o(i._ZN4__rw22__rw_digit_writer_base11_C_digitizeEyb) refers to _printf_i.o(.ARM.Collect$$_printf_percent$$00000008) for _printf_i
    vendor.o(i._ZN4__rw22__rw_digit_writer_base11_C_digitizeEyb) refers to _printf_u.o(.ARM.Collect$$_printf_percent$$0000000A) for _printf_u
    vendor.o(i._ZN4__rw22__rw_digit_writer_base11_C_digitizeEyb) refers to _printf_lld.o(.ARM.Collect$$_printf_percent$$0000000E) for _printf_lld
    vendor.o(i._ZN4__rw22__rw_digit_writer_base11_C_digitizeEyb) refers to _printf_lli.o(.ARM.Collect$$_printf_percent$$0000000D) for _printf_lli
    vendor.o(i._ZN4__rw22__rw_digit_writer_base11_C_digitizeEyb) refers to _printf_llu.o(.ARM.Collect$$_printf_percent$$0000000F) for _printf_llu
    vendor.o(i._ZN4__rw22__rw_digit_writer_base11_C_digitizeEyb) refers to _printf_o.o(.ARM.Collect$$_printf_percent$$0000000B) for _printf_o
    vendor.o(i._ZN4__rw22__rw_digit_writer_base11_C_digitizeEyb) refers to _printf_llo.o(.ARM.Collect$$_printf_percent$$00000010) for _printf_llo
    vendor.o(i._ZN4__rw22__rw_digit_writer_base11_C_digitizeEyb) refers to _printf_x.o(.ARM.Collect$$_printf_percent$$0000000C) for _printf_x
    vendor.o(i._ZN4__rw22__rw_digit_writer_base11_C_digitizeEyb) refers to _printf_llx.o(.ARM.Collect$$_printf_percent$$00000011) for _printf_llx
    vendor.o(i._ZN4__rw22__rw_digit_writer_base11_C_digitizeEyb) refers to _printf_c.o(.ARM.Collect$$_printf_percent$$00000013) for _printf_c
    vendor.o(i._ZN4__rw22__rw_digit_writer_base11_C_digitizeEyb) refers to _printf_lc.o(.ARM.Collect$$_printf_percent$$00000015) for _printf_lc
    vendor.o(i._ZN4__rw22__rw_digit_writer_base11_C_digitizeEyb) refers to _printf_dec.o(.text) for _printf_int_dec
    vendor.o(i._ZN4__rw22__rw_digit_writer_base11_C_digitizeEyb) refers to _printf_longlong_dec.o(.text) for _printf_longlong_dec
    vendor.o(i._ZN4__rw22__rw_digit_writer_base11_C_digitizeEyb) refers to _printf_oct_int_ll.o(.text) for _printf_longlong_oct
    vendor.o(i._ZN4__rw22__rw_digit_writer_base11_C_digitizeEyb) refers to _printf_hex_int_ll_ptr.o(.text) for _printf_longlong_hex
    vendor.o(i._ZN4__rw22__rw_digit_writer_base11_C_digitizeEyb) refers to _printf_str.o(.text) for _printf_str
    vendor.o(i._ZN4__rw22__rw_digit_writer_base11_C_digitizeEyb) refers to _printf_wctomb.o(.text) for _printf_wctomb
    vendor.o(i._ZN4__rw22__rw_digit_writer_base11_C_digitizeEyb) refers to vendor.o(i._ZN4__rw22__rw_digit_writer_base14_C_get_patternEPcPKcb) for __rw::__rw_digit_writer_base::_C_get_pattern(char*, const char*, bool)
    vendor.o(i._ZN4__rw22__rw_digit_writer_base11_C_digitizeEyb) refers to __2sprintf.o(.text) for __2sprintf
    vendor.o(i._ZN4__rw22__rw_digit_writer_base11_C_digitizeEyb) refers to vendor.o(i._ZN4__rw22__rw_digit_writer_base12_C_to_binaryEy) for __rw::__rw_digit_writer_base::_C_to_binary(unsigned long long)
    vendor.o(i._ZN4__rw22__rw_digit_writer_base12_C_to_binaryEy) refers to vendor.o(.data) for .data
    vendor.o(i._ZN4__rw22__rw_digit_writer_base12_C_to_binaryEy) refers to locale.o(.constdata) for __rw::__rw_digit_map_base::_C_digit_chars
    vendor.o(.ARM.exidx) refers to vendor.o(i._ZN4__rw15__rw_locale_imp15_C_map_categoryEi) for i._ZN4__rw15__rw_locale_imp15_C_map_categoryEi
    vendor.o(.ARM.exidx) refers to vendor.o(i._ZN4__rw15__rw_locale_imp13_C_parse_nameERNS_18__rw_locale_vectorISsEEPKc) for i._ZN4__rw15__rw_locale_imp13_C_parse_nameERNS_18__rw_locale_vectorISsEEPKc
    vendor.o(.ARM.exidx) refers to unwind_pr0.o(.text) for __aeabi_unwind_cpp_pr0
    vendor.o(.ARM.exidx) refers to vendor.o(.ARM.extab) for .extab._ZN4__rw15__rw_locale_imp13_C_parse_nameERNS_18__rw_locale_vectorISsEEPKc
    vendor.o(.ARM.exidx) refers to vendor.o(i._ZN4__rw15__rw_locale_imp13_C_parse_nameERNS_18__rw_locale_vectorISsEEPKc.clean) for i._ZN4__rw15__rw_locale_imp13_C_parse_nameERNS_18__rw_locale_vectorISsEEPKc.clean
    vendor.o(.ARM.exidx) refers to vendor.o(i._ZN4__rw22__rw_digit_reader_base16_C_parse_decimalEPKcS2_) for i._ZN4__rw22__rw_digit_reader_base16_C_parse_decimalEPKcS2_
    vendor.o(.ARM.exidx) refers to vendor.o(i._ZN4__rw22__rw_digit_reader_base8_C_parseEPKcm) for i._ZN4__rw22__rw_digit_reader_base8_C_parseEPKcm
    vendor.o(.ARM.exidx) refers to unwind_pr0.o(.text) for __aeabi_unwind_cpp_pr0
    vendor.o(.ARM.exidx) refers to vendor.o(i._ZN4__rw22__rw_digit_reader_base10_C_reallocERPcS1_Rj) for i._ZN4__rw22__rw_digit_reader_base10_C_reallocERPcS1_Rj
    vendor.o(.ARM.exidx) refers to unwind_pr0.o(.text) for __aeabi_unwind_cpp_pr0
    vendor.o(.ARM.exidx) refers to vendor.o(.ARM.extab) for .extab._ZN4__rw22__rw_digit_reader_base10_C_reallocERPcS1_Rj
    vendor.o(.ARM.exidx) refers to vendor.o(i._ZN4__rw22__rw_digit_reader_base10_C_reallocERPcS1_Rj.clean) for i._ZN4__rw22__rw_digit_reader_base10_C_reallocERPcS1_Rj.clean
    vendor.o(.ARM.exidx) refers to vendor.o(i._ZN4__rw22__rw_digit_reader_base8_C_parseEPKcy) for i._ZN4__rw22__rw_digit_reader_base8_C_parseEPKcy
    vendor.o(.ARM.exidx) refers to unwind_pr0.o(.text) for __aeabi_unwind_cpp_pr0
    vendor.o(.ARM.exidx) refers to vendor.o(i._ZN4__rw22__rw_digit_reader_base8_C_parseEPKcPv) for i._ZN4__rw22__rw_digit_reader_base8_C_parseEPKcPv
    vendor.o(.ARM.exidx) refers to unwind_pr0.o(.text) for __aeabi_unwind_cpp_pr0
    vendor.o(.ARM.exidx) refers to vendor.o(i._ZN4__rw22__rw_digit_reader_base14_C_parse_floatEPKcS2_Pv) for i._ZN4__rw22__rw_digit_reader_base14_C_parse_floatEPKcS2_Pv
    vendor.o(.ARM.exidx) refers to unwind_pr0.o(.text) for __aeabi_unwind_cpp_pr0
    vendor.o(.ARM.exidx) refers to vendor.o(i._ZN4__rw22__rw_digit_writer_base14_C_get_patternEPcPKcb) for i._ZN4__rw22__rw_digit_writer_base14_C_get_patternEPcPKcb
    vendor.o(.ARM.exidx) refers to vendor.o(i._ZN4__rw22__rw_digit_writer_base16_C_get_f_patternEPcc) for i._ZN4__rw22__rw_digit_writer_base16_C_get_f_patternEPcc
    vendor.o(.ARM.exidx) refers to vendor.o(i._ZN4__rw22__rw_digit_writer_base12_C_to_binaryEm) for i._ZN4__rw22__rw_digit_writer_base12_C_to_binaryEm
    vendor.o(.ARM.exidx) refers to vendor.o(i._ZN4__rw22__rw_digit_writer_base11_C_digitizeEmbPKc) for i._ZN4__rw22__rw_digit_writer_base11_C_digitizeEmbPKc
    vendor.o(.ARM.exidx) refers to unwind_pr0.o(.text) for __aeabi_unwind_cpp_pr0
    vendor.o(.ARM.exidx) refers to vendor.o(i._ZN4__rw22__rw_digit_writer_base11_C_digitizeEPKv) for i._ZN4__rw22__rw_digit_writer_base11_C_digitizeEPKv
    vendor.o(.ARM.exidx) refers to vendor.o(i._ZN4__rw22__rw_digit_writer_base12_C_to_binaryEy) for i._ZN4__rw22__rw_digit_writer_base12_C_to_binaryEy
    vendor.o(.ARM.exidx) refers to vendor.o(i._ZN4__rw22__rw_digit_writer_base11_C_digitizeEyb) for i._ZN4__rw22__rw_digit_writer_base11_C_digitizeEyb
    vendor.o(.ARM.exidx) refers to unwind_pr0.o(.text) for __aeabi_unwind_cpp_pr0
    vendor.o(.ARM.exidx) refers to vendor.o(i._ZN4__rw22__rw_digit_writer_base11_C_digitizeEd) for i._ZN4__rw22__rw_digit_writer_base11_C_digitizeEd
    vendor.o(.ARM.exidx) refers to unwind_pr0.o(.text) for __aeabi_unwind_cpp_pr0
    vendor.o(.ARM.exidx) refers to vendor.o(i._ZN4__rw22__rw_digit_writer_base11_C_digitizeEe) for i._ZN4__rw22__rw_digit_writer_base11_C_digitizeEe
    vendor.o(.ARM.exidx) refers to unwind_pr0.o(.text) for __aeabi_unwind_cpp_pr0
    vendor.o(.ARM.exidx) refers to vendor.o(i._ZN4__rw22__rw_digit_writer_base14_C_calc_groupsEiPKc) for i._ZN4__rw22__rw_digit_writer_base14_C_calc_groupsEiPKc
    vendor.o(.ARM.extab) refers to vendor.o(i._ZN4__rw15__rw_locale_imp13_C_parse_nameERNS_18__rw_locale_vectorISsEEPKc.clean) for i._ZN4__rw15__rw_locale_imp13_C_parse_nameERNS_18__rw_locale_vectorISsEEPKc.clean
    vendor.o(.ARM.extab) refers to vendor.o(i._ZN4__rw22__rw_digit_reader_base10_C_reallocERPcS1_Rj) for i._ZN4__rw22__rw_digit_reader_base10_C_reallocERPcS1_Rj
    vendor.o(.ARM.extab) refers to vendor.o(i._ZN4__rw22__rw_digit_reader_base10_C_reallocERPcS1_Rj.clean) for i._ZN4__rw22__rw_digit_reader_base10_C_reallocERPcS1_Rj.clean
    cxa_guard_abort.o(.ARM.exidx) refers to cxa_guard_abort.o(i.__cxa_guard_abort) for i.__cxa_guard_abort
    cxa_throw_bad_array_new_length.o(.ARM.exidx) refers to cxa_throw_bad_array_new_length.o(i.__cxa_throw_bad_array_new_length) for i.__cxa_throw_bad_array_new_length
    exception_what.o(.ARM.exidx) refers to exception_what.o(i._ZNKSt9exception4whatEv) for i._ZNKSt9exception4whatEv
    aeabi_vec_new_cookie.o(i.__aeabi_vec_new_cookie) refers to cxa_vec_new.o(i.__cxa_vec_new) for __cxa_vec_new
    aeabi_vec_new_cookie.o(.ARM.exidx) refers to aeabi_vec_new_cookie.o(i.__aeabi_vec_new_cookie) for i.__aeabi_vec_new_cookie
    aeabi_vec_new_cookie.o(.ARM.exidx) refers to unwind_pr0.o(.text) for __aeabi_unwind_cpp_pr0
    aeabi_vec_dtor_cookie.o(i.__aeabi_vec_dtor_cookie) refers to aeabi_vec_dtor_noexceptions.o(.text) for __aeabi_vec_dtor
    aeabi_vec_dtor_cookie.o(.ARM.exidx) refers to aeabi_vec_dtor_cookie.o(i.__aeabi_vec_dtor_cookie) for i.__aeabi_vec_dtor_cookie
    arm_exceptions_alloc.o(.text) refers to arm_exceptions_globs.o(.text) for __cxa_get_globals
    arm_exceptions_alloc.o(.text) refers to h1_alloc.o(.text) for malloc
    arm_exceptions_alloc.o(.text) refers to arm_exceptions_mem.o(.text) for __ARM_exceptions_buffer_allocate
    arm_exceptions_alloc.o(.text) refers to arm_exceptions_callterm.o(.text) for __ARM::call_terminate_handler(_Unwind_Control_Block*)
    arm_exceptions_alloc.o(.ARM.exidx) refers to arm_exceptions_alloc.o(.text) for .text
    arm_exceptions_mem.o(.text) refers to h1_alloc.o(.text) for malloc
    arm_exceptions_mem.o(.ARM.exidx) refers to arm_exceptions_mem.o(.text) for .text
    unwinder.o(.emb_text) refers to unwinder.o(.text) for __ARM_Unwind_RaiseException
    unwinder.o(.text) refers to bsearchnoex.o(.text) for bsearch
    unwinder.o(.text) refers to unwind_activity.o(.emb_text) for _Unwind_Activity
    unwinder.o(.text) refers to abort.o(.text) for abort
    unwinder.o(.text) refers to unwinder.o(.emb_text) for __ARM_Unwind_VRS_corerestore
    unwinder.o(.text) refers to h1_alloc.o(.text) for malloc
    unwinder.o(.text) refers to rt_memcpy_w.o(.text) for __aeabi_memcpy4
    unwinder.o(.text) refers to h1_free.o(.text) for free
    unwinder.o(.text) refers (Weak) to unwind_pr0.o(.text) for __aeabi_unwind_cpp_pr0
    unwinder.o(.text) refers (Weak) to unwind_pr1.o(.text) for __aeabi_unwind_cpp_pr1
    unwinder.o(.ARM.exidx) refers to unwinder.o(.text) for .text
    printf1.o(x$fpl$printf1) refers to _printf_fp_dec.o(.text) for _printf_fp_dec_real
    printf2.o(x$fpl$printf2) refers to _printf_fp_hex.o(.text) for _printf_fp_hex_real
    printf2b.o(x$fpl$printf2) refers to _printf_fp_hex.o(.text) for _printf_fp_hex_real
    retnan.o(x$fpl$retnan) refers (Special) to usenofp.o(x$fpl$usenofp) for __I$use$fp
    retnan.o(x$fpl$retnan) refers to trapv.o(x$fpl$trapveneer) for __fpl_cmpreturn
    scanf1.o(x$fpl$scanf1) refers to scanf_fp.o(.text) for _scanf_really_real
    sys_io.o(.text) refers (Special) to use_no_semi.o(.text) for __I$use$semihosting
    sys_io.o(.text) refers (Special) to indicate_semi.o(.text) for __semihosting_library_function
    sys_io.o(.text) refers to strlen.o(.text) for strlen
    sys_io.o(.constdata) refers (Special) to use_no_semi.o(.text) for __I$use$semihosting
    sys_io.o(.constdata) refers (Special) to indicate_semi.o(.text) for __semihosting_library_function
    sys_io.o(.constdata) refers (Special) to use_no_semi.o(.text) for __I$use$semihosting
    sys_io.o(.constdata) refers (Special) to indicate_semi.o(.text) for __semihosting_library_function
    sys_io.o(.constdata) refers (Special) to use_no_semi.o(.text) for __I$use$semihosting
    sys_io.o(.constdata) refers (Special) to indicate_semi.o(.text) for __semihosting_library_function
    rtexit.o(.ARM.Collect$$rtexit$$00000000) refers (Special) to rtexit2.o(.ARM.Collect$$rtexit$$00000004) for __rt_exit_exit
    rtexit.o(.ARM.Collect$$rtexit$$00000000) refers (Special) to rtexit2.o(.ARM.Collect$$rtexit$$00000003) for __rt_exit_ls
    rtexit.o(.ARM.Collect$$rtexit$$00000000) refers (Special) to rtexit2.o(.ARM.Collect$$rtexit$$00000002) for __rt_exit_prels_1
    rtexit.o(.ARM.exidx) refers (Special) to rtexit2.o(.ARM.Collect$$rtexit$$00000004) for __rt_exit_exit
    rtexit.o(.ARM.exidx) refers (Special) to rtexit2.o(.ARM.Collect$$rtexit$$00000003) for __rt_exit_ls
    rtexit.o(.ARM.exidx) refers (Special) to rtexit2.o(.ARM.Collect$$rtexit$$00000002) for __rt_exit_prels_1
    rtexit.o(.ARM.exidx) refers to rtexit.o(.ARM.Collect$$rtexit$$00000000) for .ARM.Collect$$rtexit$$00000000
    rt_raise.o(.text) refers to __raise.o(.text) for __raise
    rt_raise.o(.text) refers to sys_exit.o(.text) for _sys_exit
    rt_locale.o(.text) refers to rt_locale.o(.bss) for __rt_locale_data
    rt_locale_intlibspace.o(.text) refers to libspace.o(.bss) for __libspace_start
    rt_ddtor_pointer_addr.o(.text) refers to rt_ddtor_pointer_addr.o(.bss) for __rt_ddtor_pointer_addr_data
    rt_ddtor_pointer_addr_intlibspace.o(.text) refers to libspace.o(.bss) for __libspace_start
    term_alloc.o(.text) refers (Special) to libshutdown2.o(.ARM.Collect$$libshutdown$$0000000E) for __rt_lib_shutdown_heap_2
    term_alloc.o(.text) refers to rt_heap_descriptor_intlibspace.o(.text) for __rt_heap_descriptor
    term_alloc.o(.text) refers to h1_final.o(.text) for __Heap_Finalize
    isspace.o(.text) refers to rt_ctype_table.o(.text) for __rt_ctype_table
    sprintf.o(.text) refers (Special) to _printf_a.o(.ARM.Collect$$_printf_percent$$00000006) for _printf_a
    sprintf.o(.text) refers (Special) to _printf_c.o(.ARM.Collect$$_printf_percent$$00000013) for _printf_c
    sprintf.o(.text) refers (Special) to _printf_charcount.o(.text) for _printf_charcount
    sprintf.o(.text) refers (Special) to _printf_d.o(.ARM.Collect$$_printf_percent$$00000009) for _printf_d
    sprintf.o(.text) refers (Special) to _printf_e.o(.ARM.Collect$$_printf_percent$$00000004) for _printf_e
    sprintf.o(.text) refers (Special) to _printf_f.o(.ARM.Collect$$_printf_percent$$00000003) for _printf_f
    sprintf.o(.text) refers (Special) to printf1.o(x$fpl$printf1) for _printf_fp_dec
    sprintf.o(.text) refers (Special) to printf2.o(x$fpl$printf2) for _printf_fp_hex
    sprintf.o(.text) refers (Special) to _printf_g.o(.ARM.Collect$$_printf_percent$$00000005) for _printf_g
    sprintf.o(.text) refers (Special) to _printf_i.o(.ARM.Collect$$_printf_percent$$00000008) for _printf_i
    sprintf.o(.text) refers (Special) to _printf_dec.o(.text) for _printf_int_dec
    sprintf.o(.text) refers (Special) to _printf_l.o(.ARM.Collect$$_printf_percent$$00000012) for _printf_l
    sprintf.o(.text) refers (Special) to _printf_lc.o(.ARM.Collect$$_printf_percent$$00000015) for _printf_lc
    sprintf.o(.text) refers (Special) to _printf_ll.o(.ARM.Collect$$_printf_percent$$00000007) for _printf_ll
    sprintf.o(.text) refers (Special) to _printf_lld.o(.ARM.Collect$$_printf_percent$$0000000E) for _printf_lld
    sprintf.o(.text) refers (Special) to _printf_lli.o(.ARM.Collect$$_printf_percent$$0000000D) for _printf_lli
    sprintf.o(.text) refers (Special) to _printf_llo.o(.ARM.Collect$$_printf_percent$$00000010) for _printf_llo
    sprintf.o(.text) refers (Special) to _printf_llu.o(.ARM.Collect$$_printf_percent$$0000000F) for _printf_llu
    sprintf.o(.text) refers (Special) to _printf_llx.o(.ARM.Collect$$_printf_percent$$00000011) for _printf_llx
    sprintf.o(.text) refers (Special) to _printf_longlong_dec.o(.text) for _printf_longlong_dec
    sprintf.o(.text) refers (Special) to _printf_hex_int_ll_ptr.o(.text) for _printf_longlong_hex
    sprintf.o(.text) refers (Special) to _printf_oct_int_ll.o(.text) for _printf_longlong_oct
    sprintf.o(.text) refers (Special) to _printf_ls.o(.ARM.Collect$$_printf_percent$$00000016) for _printf_ls
    sprintf.o(.text) refers (Special) to _printf_n.o(.ARM.Collect$$_printf_percent$$00000001) for _printf_n
    sprintf.o(.text) refers (Special) to _printf_o.o(.ARM.Collect$$_printf_percent$$0000000B) for _printf_o
    sprintf.o(.text) refers (Special) to _printf_p.o(.ARM.Collect$$_printf_percent$$00000002) for _printf_p
    sprintf.o(.text) refers (Special) to _printf_percent.o(.ARM.Collect$$_printf_percent$$00000000) for _printf_percent
    sprintf.o(.text) refers (Special) to _printf_pad.o(.text) for _printf_post_padding
    sprintf.o(.text) refers (Special) to _printf_s.o(.ARM.Collect$$_printf_percent$$00000014) for _printf_s
    sprintf.o(.text) refers (Special) to _printf_str.o(.text) for _printf_str
    sprintf.o(.text) refers (Special) to _printf_truncate.o(.text) for _printf_truncate_signed
    sprintf.o(.text) refers (Special) to _printf_u.o(.ARM.Collect$$_printf_percent$$0000000A) for _printf_u
    sprintf.o(.text) refers (Special) to _printf_wctomb.o(.text) for _printf_wctomb
    sprintf.o(.text) refers (Special) to _printf_x.o(.ARM.Collect$$_printf_percent$$0000000C) for _printf_x
    sprintf.o(.text) refers to _printf_char_common.o(.text) for _printf_char_common
    sprintf.o(.text) refers to _sputc.o(.text) for _sputc
    __2sprintf.o(.text) refers to _printf_char_common.o(.text) for _printf_char_common
    __2sprintf.o(.text) refers to _sputc.o(.text) for _sputc
    noretval__2sprintf.o(.text) refers to _printf_char_common.o(.text) for _printf_char_common
    noretval__2sprintf.o(.text) refers to _sputc.o(.text) for _sputc
    _printf_intcommon.o(.text) refers (Weak) to _printf_pad.o(.text) for _printf_pre_padding
    _printf_intcommon.o(.text) refers (Weak) to _printf_pad.o(.text) for _printf_pre_padding
    _printf_intcommon.o(.text) refers (Weak) to _printf_pad.o(.text) for _printf_post_padding
    _printf_fp_dec.o(.text) refers (Special) to usenofp.o(x$fpl$usenofp) for __I$use$fp
    _printf_fp_dec.o(.text) refers (Special) to lc_numeric_c.o(locale$$code) for _get_lc_numeric
    _printf_fp_dec.o(.text) refers to bigflt0.o(.text) for _btod_etento
    _printf_fp_dec.o(.text) refers to btod.o(CL$$btod_d2e) for _btod_d2e
    _printf_fp_dec.o(.text) refers to btod.o(CL$$btod_ediv) for _btod_ediv
    _printf_fp_dec.o(.text) refers to btod.o(CL$$btod_emul) for _btod_emul
    _printf_fp_dec.o(.text) refers to lludiv10.o(.text) for _ll_udiv10
    _printf_fp_dec.o(.text) refers to fpclassify.o(i.__ARM_fpclassify) for __ARM_fpclassify
    _printf_fp_dec.o(.text) refers to _printf_fp_infnan.o(.text) for _printf_fp_infnan
    _printf_fp_dec.o(.text) refers (Weak) to _printf_pad.o(.text) for _printf_pre_padding
    _printf_fp_dec.o(.text) refers (Weak) to _printf_pad.o(.text) for _printf_pre_padding
    _printf_fp_dec.o(.text) refers to rt_locale_intlibspace.o(.text) for __rt_locale
    _printf_fp_dec.o(.text) refers (Weak) to _printf_pad.o(.text) for _printf_post_padding
    _printf_fp_hex.o(.text) refers (Special) to usenofp.o(x$fpl$usenofp) for __I$use$fp
    _printf_fp_hex.o(.text) refers to fpclassify.o(i.__ARM_fpclassify) for __ARM_fpclassify
    _printf_fp_hex.o(.text) refers to _printf_fp_infnan.o(.text) for _printf_fp_infnan
    _printf_fp_hex.o(.text) refers (Weak) to _printf_pad.o(.text) for _printf_pre_padding
    _printf_fp_hex.o(.text) refers (Weak) to _printf_pad.o(.text) for _printf_pre_padding
    _printf_fp_hex.o(.text) refers (Weak) to _printf_pad.o(.text) for _printf_post_padding
    _printf_fp_hex.o(.text) refers to _printf_fp_hex.o(.constdata) for .constdata
    _printf_fp_hex.o(.constdata) refers (Special) to usenofp.o(x$fpl$usenofp) for __I$use$fp
    _printf_char.o(.text) refers (Weak) to _printf_str.o(.text) for _printf_str
    _printf_wchar.o(.text) refers (Weak) to _printf_wctomb.o(.text) for _printf_wctomb
    _scanf.o(.text) refers (Weak) to scanf1.o(x$fpl$scanf1) for _scanf_real
    _scanf.o(.text) refers (Weak) to _scanf_longlong.o(.text) for _scanf_longlong
    _scanf.o(.text) refers (Weak) to _scanf_int.o(.text) for _scanf_int
    _scanf.o(.text) refers (Weak) to _scanf_wstr.o(.text) for _scanf_wstring
    _scanf.o(.text) refers (Weak) to _scanf_mbtowc.o(.text) for _scanf_mbtowc
    _scanf.o(.text) refers (Weak) to _scanf_str.o(.text) for _scanf_string
    _scanf.o(.text) refers (Weak) to _scanf_wctomb.o(.text) for _scanf_wctomb
    scanf_fp.o(.text) refers (Special) to usenofp.o(x$fpl$usenofp) for __I$use$fp
    scanf_fp.o(.text) refers (Special) to lc_numeric_c.o(locale$$code) for _get_lc_numeric
    scanf_fp.o(.text) refers to rt_errno_addr_intlibspace.o(.text) for __aeabi_errno_addr
    scanf_fp.o(.text) refers to istatus.o(x$fpl$ieeestatus) for __ieee_status
    scanf_fp.o(.text) refers to bigflt0.o(.text) for _btod_etento
    scanf_fp.o(.text) refers to btod.o(CL$$btod_emuld) for _btod_emuld
    scanf_fp.o(.text) refers to btod.o(CL$$btod_edivd) for _btod_edivd
    scanf_fp.o(.text) refers to rt_locale_intlibspace.o(.text) for __rt_locale
    scanf_fp.o(.text) refers to scanf2.o(x$fpl$scanf2) for _scanf_infnan
    scanf_fp.o(.text) refers to __printf_wp.o(i._is_digit) for _is_digit
    scanf_fp.o(.text) refers to fpconst.o(c$$dmax) for __dbl_max
    scanf_fp.o(.text) refers to fpconst.o(c$$dinf) for __huge_val
    scanf_fp.o(.text) refers to narrow.o(i.__mathlib_narrow) for __mathlib_narrow
    strtoull.o(.text) refers to __strtoull.o(.text) for __strtoull
    fputc.o(i.fputc) refers to flsbuf.o(.text) for __flsbuf_byte
    streamlock.o(.data) refers (Special) to initio.o(.text) for _initio
    fopen.o(.text) refers to fclose.o(.text) for _fclose_internal
    fopen.o(.text) refers to sys_io.o(.text) for _sys_open
    fopen.o(.text) refers to fseek.o(.text) for _fseek
    fopen.o(.text) refers to h1_alloc.o(.text) for malloc
    fopen.o(.text) refers to rt_memclr_w.o(.text) for __aeabi_memclr4
    fopen.o(.text) refers to stdio_streams.o(.bss) for __stdin
    fclose.o(.text) refers to stdio.o(.text) for _fflush
    fclose.o(.text) refers to sys_io.o(.text) for _sys_close
    fclose.o(.text) refers to h1_free.o(.text) for free
    fclose.o(.text) refers to rt_memclr_w.o(.text) for __aeabi_memclr4
    fopen_locked.o(.text) refers to fclose.o(.text) for _fclose_internal
    fopen_locked.o(.text) refers to sys_io.o(.text) for _sys_open
    fopen_locked.o(.text) refers to fseek.o(.text) for _fseek
    fopen_locked.o(.text) refers to h1_alloc.o(.text) for malloc
    fopen_locked.o(.text) refers to rt_memclr_w.o(.text) for __aeabi_memclr4
    fopen_locked.o(.text) refers to streamlock.o(.data) for _stream_list_lock
    fopen_locked.o(.text) refers to stdio_streams.o(.bss) for __stdin
    _lconv.o(.text) refers (Special) to lc_monetary_c.o(locale$$code) for _get_lc_monetary
    _lconv.o(.text) refers (Special) to lc_numeric_c.o(locale$$code) for _get_lc_numeric
    _lconv.o(.text) refers to rt_locale_intlibspace.o(.text) for __rt_locale
    locale_r.o(.text) refers to rt_locale_intlibspace.o(.text) for __rt_locale
    locale_r.o(.text) refers (Weak) to lc_ctype_c.o(locale$$code) for _get_lc_ctype
    locale_r.o(.text) refers (Weak) to lc_collate_c.o(locale$$code) for _get_lc_collate
    locale_r.o(.text) refers (Weak) to lc_monetary_c.o(locale$$code) for _get_lc_monetary
    locale_r.o(.text) refers (Weak) to lc_numeric_c.o(locale$$code) for _get_lc_numeric
    locale_r.o(.text) refers to null_locale.o(locale$$data) for __lcnull_start
    _mbrtowc.o(.text) refers to rt_ctype_table.o(.text) for __rt_ctype_table
    _wcrtomb.o(.text) refers to rt_ctype_table.o(.text) for __rt_ctype_table
    lc_ctype_c.o(locale$$data) refers (Special) to libinit2.o(.ARM.Collect$$libinit$$00000012) for __rt_lib_init_lc_ctype_2
    lc_ctype_c.o(locale$$code) refers (Special) to libinit2.o(.ARM.Collect$$libinit$$00000012) for __rt_lib_init_lc_ctype_2
    lc_ctype_c.o(locale$$code) refers to strcmpv7m.o(.text) for strcmp
    lc_ctype_c.o(locale$$code) refers to lc_ctype_c.o(locale$$data) for __lcctype_c_name
    lc_collate_c.o(locale$$data) refers (Special) to libinit2.o(.ARM.Collect$$libinit$$00000010) for __rt_lib_init_lc_collate_2
    lc_collate_c.o(locale$$code) refers (Special) to libinit2.o(.ARM.Collect$$libinit$$00000010) for __rt_lib_init_lc_collate_2
    lc_collate_c.o(locale$$code) refers to strcmpv7m.o(.text) for strcmp
    lc_collate_c.o(locale$$code) refers to lc_collate_c.o(locale$$data) for __lccoll_c_name
    cxa_finalize.o(.text) refers (Special) to libshutdown2.o(.ARM.Collect$$libshutdown$$00000001) for __rt_lib_shutdown_cpp_2
    cxa_finalize.o(.text) refers to rt_ddtor_pointer_addr_intlibspace.o(.text) for __rt_ddtor_pointer_addr
    cxa_finalize.o(.text) refers to h1_free.o(.text) for free
    cxa_finalize.o(.ARM.exidx) refers (Special) to libshutdown2.o(.ARM.Collect$$libshutdown$$00000001) for __rt_lib_shutdown_cpp_2
    cxa_finalize.o(.ARM.exidx) refers to cxa_finalize.o(.text) for .text
    defsig_exit.o(.text) refers to sys_exit.o(.text) for _sys_exit
    defsig_abrt_inner.o(.text) refers to defsig_general.o(.text) for __default_signal_display
    defsig_fpe_inner.o(.text) refers to defsig_general.o(.text) for __default_signal_display
    defsig_rtred_outer.o(.text) refers to defsig_rtred_inner.o(.text) for __rt_SIGRTRED_inner
    defsig_rtred_outer.o(.text) refers to defsig_exit.o(.text) for __sig_exit
    defsig_rtred_formal.o(.text) refers to rt_raise.o(.text) for __rt_raise
    defsig_rtmem_inner.o(.text) refers to defsig_general.o(.text) for __default_signal_display
    libshutdown2.o(.ARM.Collect$$libshutdown$$00000001) refers (Weak) to cxa_finalize.o(.text) for __cxa_finalize
    libshutdown2.o(.ARM.Collect$$libshutdown$$00000003) refers (Weak) to initio.o(.text) for _terminateio
    libshutdown2.o(.ARM.Collect$$libshutdown$$0000000D) refers (Weak) to term_alloc.o(.text) for _terminate_alloc
    arm_rethrow_noexceptions.o(.ARM.exidx) refers to arm_rethrow_noexceptions.o(.text) for .text
    cxa_vec_new.o(i.__cxa_vec_new) refers to array_new_general.o(i.__ARM_array_new_general) for __ARM_array_new_general
    cxa_vec_new.o(i.__cxa_vec_new) refers to array_del.o(i._ZdaPv) for operator delete[] (void*)
    cxa_vec_new.o(.ARM.exidx) refers to cxa_vec_new.o(i.__cxa_vec_new) for i.__cxa_vec_new
    cxa_vec_new.o(.ARM.exidx) refers to unwind_pr0.o(.text) for __aeabi_unwind_cpp_pr0
    aeabi_vec_dtor_noexceptions.o(.ARM.exidx) refers to aeabi_vec_dtor_noexceptions.o(.text) for .text
    trapv.o(x$fpl$trapveneer) refers (Special) to usenofp.o(x$fpl$usenofp) for __I$use$fp
    rtexit2.o(.ARM.Collect$$rtexit$$00000003) refers to libshutdown.o(.ARM.Collect$$libshutdown$$00000000) for __rt_lib_shutdown
    rtexit2.o(.ARM.Collect$$rtexit$$00000004) refers to sys_exit.o(.text) for _sys_exit
    rtexit2.o(.ARM.exidx) refers to rtexit2.o(.ARM.Collect$$rtexit$$00000001) for .ARM.Collect$$rtexit$$00000001
    rtexit2.o(.ARM.exidx) refers to rtexit2.o(.ARM.Collect$$rtexit$$00000003) for .ARM.Collect$$rtexit$$00000003
    rtexit2.o(.ARM.exidx) refers to rtexit2.o(.ARM.Collect$$rtexit$$00000004) for .ARM.Collect$$rtexit$$00000004
    _printf_fp_infnan.o(.text) refers (Weak) to _printf_pad.o(.text) for _printf_pre_padding
    _printf_fp_infnan.o(.text) refers (Weak) to _printf_pad.o(.text) for _printf_post_padding
    __strtoull.o(.text) refers to rt_errno_addr_intlibspace.o(.text) for __aeabi_errno_addr
    __strtoull.o(.text) refers to rt_ctype_table.o(.text) for __rt_ctype_table
    __strtoull.o(.text) refers to _strtoull.o(.text) for _strtoull
    bigflt0.o(.text) refers (Special) to usenofp.o(x$fpl$usenofp) for __I$use$fp
    bigflt0.o(.text) refers to btod.o(CL$$btod_emul) for _btod_emul
    bigflt0.o(.text) refers to btod.o(CL$$btod_ediv) for _btod_ediv
    bigflt0.o(.text) refers to bigflt0.o(.constdata) for .constdata
    bigflt0.o(.constdata) refers (Special) to usenofp.o(x$fpl$usenofp) for __I$use$fp
    btod.o(CL$$btod_d2e) refers (Special) to usenofp.o(x$fpl$usenofp) for __I$use$fp
    btod.o(CL$$btod_d2e) refers to btod.o(CL$$btod_d2e_norm_op1) for _d2e_norm_op1
    btod.o(CL$$btod_d2e_norm_op1) refers (Special) to usenofp.o(x$fpl$usenofp) for __I$use$fp
    btod.o(CL$$btod_d2e_norm_op1) refers to btod.o(CL$$btod_d2e_denorm_low) for _d2e_denorm_low
    btod.o(CL$$btod_d2e_denorm_low) refers (Special) to usenofp.o(x$fpl$usenofp) for __I$use$fp
    btod.o(CL$$btod_emul) refers (Special) to usenofp.o(x$fpl$usenofp) for __I$use$fp
    btod.o(CL$$btod_emul) refers to btod.o(CL$$btod_mult_common) for __btod_mult_common
    btod.o(CL$$btod_emul) refers to btod.o(CL$$btod_e2e) for _e2e
    btod.o(CL$$btod_ediv) refers (Special) to usenofp.o(x$fpl$usenofp) for __I$use$fp
    btod.o(CL$$btod_ediv) refers to btod.o(CL$$btod_div_common) for __btod_div_common
    btod.o(CL$$btod_ediv) refers to btod.o(CL$$btod_e2e) for _e2e
    btod.o(CL$$btod_emuld) refers (Special) to usenofp.o(x$fpl$usenofp) for __I$use$fp
    btod.o(CL$$btod_emuld) refers to btod.o(CL$$btod_mult_common) for __btod_mult_common
    btod.o(CL$$btod_emuld) refers to btod.o(CL$$btod_e2d) for _e2d
    btod.o(CL$$btod_edivd) refers (Special) to usenofp.o(x$fpl$usenofp) for __I$use$fp
    btod.o(CL$$btod_edivd) refers to btod.o(CL$$btod_div_common) for __btod_div_common
    btod.o(CL$$btod_edivd) refers to btod.o(CL$$btod_e2d) for _e2d
    btod.o(CL$$btod_e2e) refers (Special) to usenofp.o(x$fpl$usenofp) for __I$use$fp
    btod.o(CL$$btod_e2d) refers (Special) to usenofp.o(x$fpl$usenofp) for __I$use$fp
    btod.o(CL$$btod_e2d) refers to btod.o(CL$$btod_e2e) for _e2e
    btod.o(CL$$btod_mult_common) refers (Special) to usenofp.o(x$fpl$usenofp) for __I$use$fp
    btod.o(CL$$btod_div_common) refers (Special) to usenofp.o(x$fpl$usenofp) for __I$use$fp
    flsbuf.o(.text) refers to stdio.o(.text) for _deferredlazyseek
    flsbuf.o(.text) refers to sys_io.o(.text) for _sys_flen
    flsbuf.o(.text) refers to h1_alloc.o(.text) for malloc
    fseek.o(.text) refers to sys_io.o(.text) for _sys_istty
    fseek.o(.text) refers to ftell.o(.text) for _ftell_internal
    fseek.o(.text) refers to stdio.o(.text) for _seterr
    stdio.o(.text) refers to sys_io.o(.text) for _sys_seek
    lc_monetary_c.o(locale$$data) refers (Special) to libinit2.o(.ARM.Collect$$libinit$$00000014) for __rt_lib_init_lc_monetary_2
    lc_monetary_c.o(locale$$code) refers (Special) to libinit2.o(.ARM.Collect$$libinit$$00000014) for __rt_lib_init_lc_monetary_2
    lc_monetary_c.o(locale$$code) refers to strcmpv7m.o(.text) for strcmp
    lc_monetary_c.o(locale$$code) refers to lc_monetary_c.o(locale$$data) for __lcmon_c_name
    lc_numeric_c.o(locale$$data) refers (Special) to libinit2.o(.ARM.Collect$$libinit$$00000016) for __rt_lib_init_lc_numeric_2
    lc_numeric_c.o(locale$$code) refers (Special) to libinit2.o(.ARM.Collect$$libinit$$00000016) for __rt_lib_init_lc_numeric_2
    lc_numeric_c.o(locale$$code) refers to strcmpv7m.o(.text) for strcmp
    lc_numeric_c.o(locale$$code) refers to lc_numeric_c.o(locale$$data) for __lcnum_c_name
    __raise.o(.text) refers to defsig.o(CL$$defsig) for __default_signal_handler
    defsig_general.o(.text) refers to sys_wrch.o(.text) for _ttywrch
    defsig_rtred_inner.o(.text) refers to defsig_general.o(.text) for __default_signal_display
    flsbuf_fwide.o(.text) refers to flsbuf.o(.text) for __flsbuf
    array_new_general.o(i.__ARM_array_new_general) refers to array_new.o(i._Znaj) for operator new[] (unsigned)
    array_new_general.o(i.__ARM_array_new_general) refers to ARM_vec_cleanup_noexceptions.o(.text) for __ARM_vec_cleanup
    array_new_general.o(i.__ARM_array_new_general) refers to arm_exceptions_terminate.o(.text) for std::terminate()
    array_new_general.o(i.__ARM_array_new_general) refers to arm_rethrow_noexceptions.o(.text) for __cxa_rethrow
    array_new_general.o(i.__ARM_array_new_general.clean) refers to arm_exceptions_cleanup.o(.emb_text) for __cxa_end_cleanup
    array_new_general.o(.ARM.exidx) refers to array_new_general.o(i.__ARM_array_new_general) for i.__ARM_array_new_general
    array_new_general.o(.ARM.exidx) refers to unwind_pr0.o(.text) for __aeabi_unwind_cpp_pr0
    array_new_general.o(.ARM.exidx) refers to array_new_general.o(.ARM.extab) for .extab.__ARM_array_new_general
    array_new_general.o(.ARM.exidx) refers to array_new_general.o(i.__ARM_array_new_general.clean) for i.__ARM_array_new_general.clean
    array_new_general.o(.ARM.extab) refers to array_new_general.o(i.__ARM_array_new_general) for i.__ARM_array_new_general
    array_new_general.o(.ARM.extab) refers to array_new_general.o(i.__ARM_array_new_general.clean) for i.__ARM_array_new_general.clean
    fpconst.o(c$$dinf) refers (Special) to usenofp.o(x$fpl$usenofp) for __I$use$fp
    fpconst.o(c$$dnan) refers (Special) to usenofp.o(x$fpl$usenofp) for __I$use$fp
    fpconst.o(c$$finf) refers (Special) to usenofp.o(x$fpl$usenofp) for __I$use$fp
    fpconst.o(c$$dmax) refers (Special) to usenofp.o(x$fpl$usenofp) for __I$use$fp
    istatus.o(x$fpl$ieeestatus) refers (Special) to usenofp.o(x$fpl$usenofp) for __I$use$fp
    scanf2.o(x$fpl$scanf2) refers to scanf_hexfp.o(.text) for _scanf_really_hex_real
    scanf2.o(x$fpl$scanf2) refers to scanf_infnan.o(.text) for _scanf_really_infnan
    scanf2b.o(x$fpl$scanf2) refers to scanf_hexfp.o(.text) for _scanf_really_hex_real
    scanf2b.o(x$fpl$scanf2) refers to scanf_infnan.o(.text) for _scanf_really_infnan
    narrow.o(i.__hardfp___mathlib_tofloat) refers (Special) to usenofp.o(x$fpl$usenofp) for __I$use$fp
    narrow.o(i.__hardfp___mathlib_tofloat) refers to frexp.o(i.frexp) for frexp
    narrow.o(i.__hardfp___mathlib_tofloat) refers to deqf.o(x$fpl$deqf) for __aeabi_cdcmpeq
    narrow.o(i.__hardfp___mathlib_tofloat) refers to d2f.o(x$fpl$d2f) for __aeabi_d2f
    narrow.o(i.__hardfp___mathlib_tofloat) refers to _rserrno.o(.text) for __set_errno
    narrow.o(i.__hardfp___mathlib_tofloat) refers to drleqf.o(x$fpl$drleqf) for __aeabi_cdrcmple
    narrow.o(i.__mathlib_narrow) refers (Special) to usenofp.o(x$fpl$usenofp) for __I$use$fp
    narrow.o(i.__mathlib_narrow) refers to narrow.o(i.__hardfp___mathlib_tofloat) for __hardfp___mathlib_tofloat
    narrow.o(i.__mathlib_tofloat) refers (Special) to usenofp.o(x$fpl$usenofp) for __I$use$fp
    narrow.o(i.__mathlib_tofloat) refers to narrow.o(i.__hardfp___mathlib_tofloat) for __hardfp___mathlib_tofloat
    narrow.o(i.__softfp___mathlib_tofloat) refers (Special) to usenofp.o(x$fpl$usenofp) for __I$use$fp
    narrow.o(i.__softfp___mathlib_tofloat) refers to narrow.o(i.__hardfp___mathlib_tofloat) for __hardfp___mathlib_tofloat
    sys_wrch.o(.text) refers (Special) to use_no_semi.o(.text) for __I$use$semihosting
    sys_wrch.o(.text) refers (Special) to indicate_semi.o(.text) for __semihosting_library_function
    _printf_char_file_locked.o(.text) refers to _printf_char_common.o(.text) for _printf_char_common
    _printf_char_file_locked.o(.text) refers to fputc.o(i._fputc$unlocked) for _fputc$unlocked
    scanf_hexfp.o(.text) refers to _chval.o(.text) for _chval
    scanf_hexfp.o(.text) refers to llshl.o(.text) for __aeabi_llsl
    scanf_hexfp.o(.text) refers to ldexp.o(i.__support_ldexp) for __support_ldexp
    scanf_hexfp.o(.text) refers to narrow.o(i.__mathlib_narrow) for __mathlib_narrow
    _strtoull.o(.text) refers to _chval.o(.text) for _chval
    _strtoull.o(.text) refers to rt_errno_addr_intlibspace.o(.text) for __aeabi_errno_addr
    ftell.o(.text) refers to rt_errno_addr_intlibspace.o(.text) for __aeabi_errno_addr
    fwritefast.o(.text) refers to stdio.o(.text) for _writebuf
    fwritefast.o(.text) refers to flsbuf.o(.text) for __flsbuf_byte
    fwritefast.o(.text) refers to rt_memcpy_v6.o(.text) for __aeabi_memcpy
    fwritefast_locked.o(.text) refers to stdio.o(.text) for _writebuf
    fwritefast_locked.o(.text) refers to flsbuf.o(.text) for __flsbuf_byte
    fwritefast_locked.o(.text) refers to rt_memcpy_v6.o(.text) for __aeabi_memcpy
    defsig.o(CL$$defsig) refers to defsig_abrt_inner.o(.text) for __rt_SIGABRT_inner
    defsig.o(CL$$defsig) refers to defsig_fpe_inner.o(.text) for __rt_SIGFPE_inner
    defsig.o(CL$$defsig) refers to defsig_rtred_inner.o(.text) for __rt_SIGRTRED_inner
    defsig.o(CL$$defsig) refers to defsig_rtmem_inner.o(.text) for __rt_SIGRTMEM_inner
    assert_stdio.o(.text) refers to fputs.o(.text) for fputs
    assert_stdio.o(.text) refers to fflush.o(.text) for fflush
    assert_stdio.o(.text) refers to stdio_streams.o(.bss) for __stderr
    libshutdown.o(.ARM.Collect$$libshutdown$$00000000) refers (Special) to libshutdown2.o(.ARM.Collect$$libshutdown$$00000002) for __rt_lib_shutdown_cpp_1
    libshutdown.o(.ARM.Collect$$libshutdown$$00000000) refers (Special) to libshutdown2.o(.ARM.Collect$$libshutdown$$00000007) for __rt_lib_shutdown_fp_trap_1
    libshutdown.o(.ARM.Collect$$libshutdown$$00000000) refers (Special) to libshutdown2.o(.ARM.Collect$$libshutdown$$0000000F) for __rt_lib_shutdown_heap_1
    libshutdown.o(.ARM.Collect$$libshutdown$$00000000) refers (Special) to libshutdown2.o(.ARM.Collect$$libshutdown$$00000010) for __rt_lib_shutdown_return
    libshutdown.o(.ARM.Collect$$libshutdown$$00000000) refers (Special) to libshutdown2.o(.ARM.Collect$$libshutdown$$0000000A) for __rt_lib_shutdown_signal_1
    libshutdown.o(.ARM.Collect$$libshutdown$$00000000) refers (Special) to libshutdown2.o(.ARM.Collect$$libshutdown$$00000004) for __rt_lib_shutdown_stdio_1
    libshutdown.o(.ARM.Collect$$libshutdown$$00000000) refers (Special) to libshutdown2.o(.ARM.Collect$$libshutdown$$0000000C) for __rt_lib_shutdown_user_alloc_1
    ARM_vec_cleanup_noexceptions.o(.ARM.exidx) refers to ARM_vec_cleanup_noexceptions.o(.text) for .text
    frexp.o(i.__hardfp_frexp) refers (Special) to usenofp.o(x$fpl$usenofp) for __I$use$fp
    frexp.o(i.__hardfp_frexp) refers to dmul.o(x$fpl$dmul) for __aeabi_dmul
    frexp.o(i.__softfp_frexp) refers (Special) to usenofp.o(x$fpl$usenofp) for __I$use$fp
    frexp.o(i.__softfp_frexp) refers to dmul.o(x$fpl$dmul) for __aeabi_dmul
    frexp.o(i.frexp) refers (Special) to usenofp.o(x$fpl$usenofp) for __I$use$fp
    frexp.o(i.frexp) refers to dmul.o(x$fpl$dmul) for __aeabi_dmul
    fflush.o(.text) refers to stdio.o(.text) for _fflush
    fflush.o(.text) refers to fseek.o(.text) for _fseek
    fflush.o(.text) refers to stdio_streams.o(.bss) for __stdin
    fputs.o(.text) refers to fputc.o(i.fputc) for fputc
    fflush_locked.o(.text) refers to stdio.o(.text) for _fflush
    fflush_locked.o(.text) refers to fseek.o(.text) for _fseek
    fflush_locked.o(.text) refers to fflush.o(.text) for _do_fflush
    fflush_locked.o(.text) refers to streamlock.o(.data) for _stream_list_lock
    fflush_locked.o(.text) refers to stdio_streams.o(.bss) for __stdin
    defsig_stak_inner.o(.text) refers to defsig_general.o(.text) for __default_signal_display
    defsig_pvfn_inner.o(.text) refers to defsig_general.o(.text) for __default_signal_display
    defsig_cppl_inner.o(.text) refers to defsig_general.o(.text) for __default_signal_display
    defsig_segv_inner.o(.text) refers to defsig_general.o(.text) for __default_signal_display
    defsig_other.o(.text) refers to defsig_general.o(.text) for __default_signal_display
    ldexp.o(i.__hardfp_ldexp) refers (Special) to usenofp.o(x$fpl$usenofp) for __I$use$fp
    ldexp.o(i.__hardfp_ldexp) refers to deqf.o(x$fpl$deqf) for __aeabi_cdcmpeq
    ldexp.o(i.__hardfp_ldexp) refers to scalbn.o(x$fpl$scalbn) for __ARM_scalbn
    ldexp.o(i.__hardfp_ldexp) refers to _rserrno.o(.text) for __set_errno
    ldexp.o(i.__hardfp_ldexp) refers to dunder.o(i.__mathlib_dbl_underflow) for __mathlib_dbl_underflow
    ldexp.o(i.__hardfp_ldexp) refers to dunder.o(i.__mathlib_dbl_overflow) for __mathlib_dbl_overflow
    ldexp.o(i.__softfp_ldexp) refers (Special) to usenofp.o(x$fpl$usenofp) for __I$use$fp
    ldexp.o(i.__softfp_ldexp) refers to ldexp.o(i.__hardfp_ldexp) for __hardfp_ldexp
    ldexp.o(i.__support_ldexp) refers (Special) to usenofp.o(x$fpl$usenofp) for __I$use$fp
    ldexp.o(i.__support_ldexp) refers to ldexp.o(i.__hardfp_ldexp) for __hardfp_ldexp
    ldexp.o(i.ldexp) refers (Special) to usenofp.o(x$fpl$usenofp) for __I$use$fp
    ldexp.o(i.ldexp) refers to ldexp.o(i.__hardfp_ldexp) for __hardfp_ldexp
    ldexp_x.o(i.____hardfp_ldexp$lsc) refers (Special) to usenofp.o(x$fpl$usenofp) for __I$use$fp
    ldexp_x.o(i.____hardfp_ldexp$lsc) refers to deqf.o(x$fpl$deqf) for __aeabi_cdcmpeq
    ldexp_x.o(i.____hardfp_ldexp$lsc) refers to scalbn.o(x$fpl$scalbn) for __ARM_scalbn
    ldexp_x.o(i.____hardfp_ldexp$lsc) refers to _rserrno.o(.text) for __set_errno
    ldexp_x.o(i.____hardfp_ldexp$lsc) refers to qnan.o(.constdata) for __mathlib_zero
    ldexp_x.o(i.____softfp_ldexp$lsc) refers (Special) to usenofp.o(x$fpl$usenofp) for __I$use$fp
    ldexp_x.o(i.____softfp_ldexp$lsc) refers to ldexp_x.o(i.____hardfp_ldexp$lsc) for ____hardfp_ldexp$lsc
    ldexp_x.o(i.____support_ldexp$lsc) refers (Special) to usenofp.o(x$fpl$usenofp) for __I$use$fp
    ldexp_x.o(i.____support_ldexp$lsc) refers to ldexp_x.o(i.____hardfp_ldexp$lsc) for ____hardfp_ldexp$lsc
    ldexp_x.o(i.__ldexp$lsc) refers (Special) to usenofp.o(x$fpl$usenofp) for __I$use$fp
    ldexp_x.o(i.__ldexp$lsc) refers to ldexp_x.o(i.____hardfp_ldexp$lsc) for ____hardfp_ldexp$lsc
    main.o(i._Z7initPinthhh) refers to stm32f407_pin.o(i._Z7initPinP12GPIO_TypeDefthhh) for initPin(GPIO_TypeDef*, unsigned short, unsigned char, unsigned char, unsigned char)
    main.o(.ARM.exidx) refers to main.o(i._Z7initPinthhh) for i._Z7initPinthhh
    main.o(i._Z6setPintb) refers to main.o(i._Z6setPinP12GPIO_TypeDeftb) for setPin(GPIO_TypeDef*, unsigned short, bool)
    main.o(.ARM.exidx) refers to main.o(i._Z6setPintb) for i._Z6setPintb
    main.o(.ARM.exidx) refers to main.o(t._Z4crc8IhET_PS0_i) for t._Z4crc8IhET_PS0_i
    main.o(.ARM.exidx) refers to main.o(t._Z4crc8IcET_PS0_i) for t._Z4crc8IcET_PS0_i
    main.o(.ARM.exidx) refers to main.o(t._Z4crc8IiET_PS0_i) for t._Z4crc8IiET_PS0_i
    main.o(.ARM.exidx) refers to main.o(t._Z4min2IiET_S0_S0_) for t._Z4min2IiET_S0_S0_
    main.o(t._Z7toPrintIiEPcT_s) refers to array_new.o(i._Znaj) for operator new[] (unsigned)
    main.o(t._Z7toPrintIiEPcT_s) refers to llsdiv.o(.text) for __aeabi_ldivmod
    main.o(t._Z7toPrintIiEPcT_s) refers to delete.o(i._ZdlPv) for operator delete (void*)
    main.o(.ARM.exidx) refers to main.o(t._Z7toPrintIiEPcT_s) for t._Z7toPrintIiEPcT_s
    main.o(t._Z8printTmlIiEvR7SSD1306T_iii) refers to main.o(t._Z7toPrintIiEPcT_s) for char* toPrint<int>(T1, short)
    main.o(t._Z8printTmlIiEvR7SSD1306T_iii) refers to main.o(i._Z10drawStringR7SSD1306Pcjj) for drawString(SSD1306&, char*, unsigned, unsigned)
    main.o(t._Z8printTmlIiEvR7SSD1306T_iii) refers to delete.o(i._ZdlPv) for operator delete (void*)
    main.o(.ARM.exidx) refers to main.o(t._Z8printTmlIiEvR7SSD1306T_iii) for t._Z8printTmlIiEvR7SSD1306T_iii
    main.o(t._Z7toPrintIjEPcT_s) refers to array_new.o(i._Znaj) for operator new[] (unsigned)
    main.o(t._Z7toPrintIjEPcT_s) refers to llsdiv.o(.text) for __aeabi_ldivmod
    main.o(t._Z7toPrintIjEPcT_s) refers to delete.o(i._ZdlPv) for operator delete (void*)
    main.o(.ARM.exidx) refers to main.o(t._Z7toPrintIjEPcT_s) for t._Z7toPrintIjEPcT_s
    main.o(t._Z8printTmlIjEvR7SSD1306T_iii) refers to main.o(t._Z7toPrintIjEPcT_s) for char* toPrint<unsigned>(T1, short)
    main.o(t._Z8printTmlIjEvR7SSD1306T_iii) refers to main.o(i._Z10drawStringR7SSD1306Pcjj) for drawString(SSD1306&, char*, unsigned, unsigned)
    main.o(t._Z8printTmlIjEvR7SSD1306T_iii) refers to delete.o(i._ZdlPv) for operator delete (void*)
    main.o(.ARM.exidx) refers to main.o(t._Z8printTmlIjEvR7SSD1306T_iii) for t._Z8printTmlIjEvR7SSD1306T_iii
    main.o(t._Z7toPrintIxEPcT_s) refers to array_new.o(i._Znaj) for operator new[] (unsigned)
    main.o(t._Z7toPrintIxEPcT_s) refers to llsdiv.o(.text) for __aeabi_ldivmod
    main.o(t._Z7toPrintIxEPcT_s) refers to delete.o(i._ZdlPv) for operator delete (void*)
    main.o(.ARM.exidx) refers to main.o(t._Z7toPrintIxEPcT_s) for t._Z7toPrintIxEPcT_s
    main.o(t._Z8printTmlIxEvR7SSD1306T_iii) refers to main.o(t._Z7toPrintIxEPcT_s) for char* toPrint<long long>(T1, short)
    main.o(t._Z8printTmlIxEvR7SSD1306T_iii) refers to main.o(i._Z10drawStringR7SSD1306Pcjj) for drawString(SSD1306&, char*, unsigned, unsigned)
    main.o(t._Z8printTmlIxEvR7SSD1306T_iii) refers to delete.o(i._ZdlPv) for operator delete (void*)
    main.o(.ARM.exidx) refers to main.o(t._Z8printTmlIxEvR7SSD1306T_iii) for t._Z8printTmlIxEvR7SSD1306T_iii
    main.o(t._Z7toPrintIyEPcT_s) refers to array_new.o(i._Znaj) for operator new[] (unsigned)
    main.o(t._Z7toPrintIyEPcT_s) refers to lludivv7m.o(.text) for __aeabi_uldivmod
    main.o(t._Z7toPrintIyEPcT_s) refers to llsdiv.o(.text) for __aeabi_ldivmod
    main.o(t._Z7toPrintIyEPcT_s) refers to delete.o(i._ZdlPv) for operator delete (void*)
    main.o(.ARM.exidx) refers to main.o(t._Z7toPrintIyEPcT_s) for t._Z7toPrintIyEPcT_s
    main.o(t._Z8printTmlIyEvR7SSD1306T_iii) refers to main.o(t._Z7toPrintIyEPcT_s) for char* toPrint<unsigned long long>(T1, short)
    main.o(t._Z8printTmlIyEvR7SSD1306T_iii) refers to main.o(i._Z10drawStringR7SSD1306Pcjj) for drawString(SSD1306&, char*, unsigned, unsigned)
    main.o(t._Z8printTmlIyEvR7SSD1306T_iii) refers to delete.o(i._ZdlPv) for operator delete (void*)
    main.o(.ARM.exidx) refers to main.o(t._Z8printTmlIyEvR7SSD1306T_iii) for t._Z8printTmlIyEvR7SSD1306T_iii
    main.o(t._Z7toPrintIdEPcT_s) refers to dleqf.o(x$fpl$dleqf) for __aeabi_cdcmple
    main.o(t._Z7toPrintIdEPcT_s) refers to basic.o(x$fpl$basic) for __aeabi_dneg
    main.o(t._Z7toPrintIdEPcT_s) refers to dfltll_clz.o(x$fpl$dfltll) for __aeabi_l2d
    main.o(t._Z7toPrintIdEPcT_s) refers to array_new.o(i._Znaj) for operator new[] (unsigned)
    main.o(t._Z7toPrintIdEPcT_s) refers to ddiv.o(x$fpl$ddiv) for __aeabi_ddiv
    main.o(t._Z7toPrintIdEPcT_s) refers to dfixll.o(x$fpl$llsfromd) for __aeabi_d2lz
    main.o(t._Z7toPrintIdEPcT_s) refers to llsdiv.o(.text) for __aeabi_ldivmod
    main.o(t._Z7toPrintIdEPcT_s) refers to deqf.o(x$fpl$deqf) for __aeabi_cdcmpeq
    main.o(t._Z7toPrintIdEPcT_s) refers to delete.o(i._ZdlPv) for operator delete (void*)
    main.o(t._Z7toPrintIdEPcT_s) refers to daddsub_clz.o(x$fpl$drsb) for __aeabi_drsub
    main.o(t._Z7toPrintIdEPcT_s) refers to dmul.o(x$fpl$dmul) for __aeabi_dmul
    main.o(.ARM.exidx) refers to main.o(t._Z7toPrintIdEPcT_s) for t._Z7toPrintIdEPcT_s
    main.o(t._Z8printTmlIdEvR7SSD1306T_iii) refers to main.o(t._Z7toPrintIdEPcT_s) for char* toPrint<double>(T1, short)
    main.o(t._Z8printTmlIdEvR7SSD1306T_iii) refers to main.o(i._Z10drawStringR7SSD1306Pcjj) for drawString(SSD1306&, char*, unsigned, unsigned)
    main.o(t._Z8printTmlIdEvR7SSD1306T_iii) refers to delete.o(i._ZdlPv) for operator delete (void*)
    main.o(.ARM.exidx) refers to main.o(t._Z8printTmlIdEvR7SSD1306T_iii) for t._Z8printTmlIdEvR7SSD1306T_iii
    main.o(t._Z7toPrintIfEPcT_s) refers to ffltll_clz.o(x$fpl$ffltll) for __aeabi_l2f
    main.o(t._Z7toPrintIfEPcT_s) refers to array_new.o(i._Znaj) for operator new[] (unsigned)
    main.o(t._Z7toPrintIfEPcT_s) refers to ffixll.o(x$fpl$llsfromf) for __aeabi_f2lz
    main.o(t._Z7toPrintIfEPcT_s) refers to llsdiv.o(.text) for __aeabi_ldivmod
    main.o(t._Z7toPrintIfEPcT_s) refers to delete.o(i._ZdlPv) for operator delete (void*)
    main.o(.ARM.exidx) refers to main.o(t._Z7toPrintIfEPcT_s) for t._Z7toPrintIfEPcT_s
    main.o(t._Z8printTmlIfEvR7SSD1306T_iii) refers to main.o(t._Z7toPrintIfEPcT_s) for char* toPrint<float>(T1, short)
    main.o(t._Z8printTmlIfEvR7SSD1306T_iii) refers to main.o(i._Z10drawStringR7SSD1306Pcjj) for drawString(SSD1306&, char*, unsigned, unsigned)
    main.o(t._Z8printTmlIfEvR7SSD1306T_iii) refers to delete.o(i._ZdlPv) for operator delete (void*)
    main.o(.ARM.exidx) refers to main.o(t._Z8printTmlIfEvR7SSD1306T_iii) for t._Z8printTmlIfEvR7SSD1306T_iii
    main.o(t._Z4min2IdET_S0_S0_) refers to dleqf.o(x$fpl$dleqf) for __aeabi_cdcmple
    main.o(.ARM.exidx) refers to main.o(t._Z4min2IdET_S0_S0_) for t._Z4min2IdET_S0_S0_
    main.o(t._Z3sgnIdET_S0_) refers to drleqf.o(x$fpl$drleqf) for __aeabi_cdrcmple
    main.o(t._Z3sgnIdET_S0_) refers to dleqf.o(x$fpl$dleqf) for __aeabi_cdcmple
    main.o(.ARM.exidx) refers to main.o(t._Z3sgnIdET_S0_) for t._Z3sgnIdET_S0_
    main.o(t._ZNSt15__rw_deque_iterISt4pairIS0_IddEjEiPS2_RS2_SaIS2_EEC1ES3_PS3_) refers to main.o(t._ZN4__rw17__rw_new_capacityISt5dequeISt4pairIS2_IddEjESaIS4_EEEEjjPKT_) for unsigned __rw::__rw_new_capacity<std::deque<std::pair<std::pair<double, double>, unsigned>, std::allocator<std::pair<std::pair<double, double>, unsigned>>>>(unsigned, const T1*)
    main.o(.ARM.exidx) refers to main.o(t._ZNSt15__rw_deque_iterISt4pairIS0_IddEjEiPS2_RS2_SaIS2_EEC1ES3_PS3_) for t._ZNSt15__rw_deque_iterISt4pairIS0_IddEjEiPS2_RS2_SaIS2_EEC1ES3_PS3_
    main.o(t._ZNSt5dequeISt4pairIS0_IddEjESaIS2_EE16_C_free_at_beginEv) refers to main.o(t._ZNSt5dequeISt4pairIS0_IddEjESaIS2_EE10_C_bufsizeEv) for std::deque<std::pair<std::pair<double, double>, unsigned>, std::allocator<std::pair<std::pair<double, double>, unsigned>>>::_C_bufsize()
    main.o(t._ZNSt5dequeISt4pairIS0_IddEjESaIS2_EE16_C_free_at_beginEv) refers to rwalloc.o(i._ZN4__rw15__rw_deallocateEPvji) for __rw::__rw_deallocate(void*, unsigned, int)
    main.o(t._ZNSt5dequeISt4pairIS0_IddEjESaIS2_EE16_C_free_at_beginEv) refers to main.o(t._ZNKSt5dequeISt4pairIS0_IddEjESaIS2_EE5emptyEv) for std::deque<std::pair<std::pair<double, double>, unsigned>, std::allocator<std::pair<std::pair<double, double>, unsigned>>>::empty() const
    main.o(t._ZNSt5dequeISt4pairIS0_IddEjESaIS2_EE16_C_free_at_beginEv) refers to main.o(t._ZNSt15__rw_deque_iterISt4pairIS0_IddEjEiPS2_RS2_SaIS2_EEC1ES3_PS3_) for std::__rw_deque_iter<std::pair<std::pair<double, double>, unsigned>, int, std::pair<std::pair<double, double>, unsigned>*, std::pair<std::pair<double, double>, unsigned>&, std::allocator<std::pair<std::pair<double, double>, unsigned>>>::__rw_deque_iter(std::pair<std::pair<double, double>, unsigned>*, std::pair<std::pair<double, double>, unsigned>**)
    main.o(.ARM.exidx) refers to main.o(t._ZNSt5dequeISt4pairIS0_IddEjESaIS2_EE16_C_free_at_beginEv) for t._ZNSt5dequeISt4pairIS0_IddEjESaIS2_EE16_C_free_at_beginEv
    main.o(t._ZNSt5dequeISt4pairIS0_IddEjESaIS2_EE9pop_frontEv) refers to main.o(t._ZNSt15__rw_deque_iterISt4pairIS0_IddEjEiPS2_RS2_SaIS2_EEC1ERKS6_) for std::__rw_deque_iter<std::pair<std::pair<double, double>, unsigned>, int, std::pair<std::pair<double, double>, unsigned>*, std::pair<std::pair<double, double>, unsigned>&, std::allocator<std::pair<std::pair<double, double>, unsigned>>>::__rw_deque_iter(const std::__rw_deque_iter<std::pair<std::pair<double, double>, unsigned>, int, std::pair<std::pair<double, double>, unsigned>*, std::pair<std::pair<double, double>, unsigned>&, std::allocator<std::pair<std::pair<double, double>, unsigned>>>&)
    main.o(t._ZNSt5dequeISt4pairIS0_IddEjESaIS2_EE9pop_frontEv) refers to main.o(t._ZNKSt5dequeISt4pairIS0_IddEjESaIS2_EE5emptyEv) for std::deque<std::pair<std::pair<double, double>, unsigned>, std::allocator<std::pair<std::pair<double, double>, unsigned>>>::empty() const
    main.o(t._ZNSt5dequeISt4pairIS0_IddEjESaIS2_EE9pop_frontEv) refers to main.o(t._ZNSt5dequeISt4pairIS0_IddEjESaIS2_EE16_C_free_at_beginEv) for std::deque<std::pair<std::pair<double, double>, unsigned>, std::allocator<std::pair<std::pair<double, double>, unsigned>>>::_C_free_at_begin()
    main.o(.ARM.exidx) refers to main.o(t._ZNSt5dequeISt4pairIS0_IddEjESaIS2_EE9pop_frontEv) for t._ZNSt5dequeISt4pairIS0_IddEjESaIS2_EE9pop_frontEv
    main.o(t._ZNSt5dequeISt4pairIS0_IddEjESaIS2_EE7_C_initEv) refers to main.o(t._ZNSt15__rw_deque_iterISt4pairIS0_IddEjEiPS2_RS2_SaIS2_EEC1ES3_PS3_) for std::__rw_deque_iter<std::pair<std::pair<double, double>, unsigned>, int, std::pair<std::pair<double, double>, unsigned>*, std::pair<std::pair<double, double>, unsigned>&, std::allocator<std::pair<std::pair<double, double>, unsigned>>>::__rw_deque_iter(std::pair<std::pair<double, double>, unsigned>*, std::pair<std::pair<double, double>, unsigned>**)
    main.o(.ARM.exidx) refers to main.o(t._ZNSt5dequeISt4pairIS0_IddEjESaIS2_EE7_C_initEv) for t._ZNSt5dequeISt4pairIS0_IddEjESaIS2_EE7_C_initEv
    main.o(t._ZNSt5dequeISt4pairIS0_IddEjESaIS2_EE15_C_alloc_at_endEv) refers to main.o(t._ZNSt5dequeISt4pairIS0_IddEjESaIS2_EE10_C_bufsizeEv) for std::deque<std::pair<std::pair<double, double>, unsigned>, std::allocator<std::pair<std::pair<double, double>, unsigned>>>::_C_bufsize()
    main.o(t._ZNSt5dequeISt4pairIS0_IddEjESaIS2_EE15_C_alloc_at_endEv) refers to rwalloc.o(i._ZN4__rw13__rw_allocateEji) for __rw::__rw_allocate(unsigned, int)
    main.o(t._ZNSt5dequeISt4pairIS0_IddEjESaIS2_EE15_C_alloc_at_endEv) refers to main.o(t._ZNKSt5dequeISt4pairIS0_IddEjESaIS2_EE5emptyEv) for std::deque<std::pair<std::pair<double, double>, unsigned>, std::allocator<std::pair<std::pair<double, double>, unsigned>>>::empty() const
    main.o(t._ZNSt5dequeISt4pairIS0_IddEjESaIS2_EE15_C_alloc_at_endEv) refers to main.o(t._ZNSaIPSt4pairIS_IddEjEE8allocateEjPKv) for std::allocator<std::pair<std::pair<double, double>, unsigned>*>::allocate(unsigned, const void*)
    main.o(t._ZNSt5dequeISt4pairIS0_IddEjESaIS2_EE15_C_alloc_at_endEv) refers to main.o(t._ZNSt15__rw_deque_iterISt4pairIS0_IddEjEiPS2_RS2_SaIS2_EEC1ES3_PS3_) for std::__rw_deque_iter<std::pair<std::pair<double, double>, unsigned>, int, std::pair<std::pair<double, double>, unsigned>*, std::pair<std::pair<double, double>, unsigned>&, std::allocator<std::pair<std::pair<double, double>, unsigned>>>::__rw_deque_iter(std::pair<std::pair<double, double>, unsigned>*, std::pair<std::pair<double, double>, unsigned>**)
    main.o(t._ZNSt5dequeISt4pairIS0_IddEjESaIS2_EE15_C_alloc_at_endEv) refers to rwalloc.o(i._ZN4__rw15__rw_deallocateEPvji) for __rw::__rw_deallocate(void*, unsigned, int)
    main.o(.ARM.exidx) refers to main.o(t._ZNSt5dequeISt4pairIS0_IddEjESaIS2_EE15_C_alloc_at_endEv) for t._ZNSt5dequeISt4pairIS0_IddEjESaIS2_EE15_C_alloc_at_endEv
    main.o(t._ZNSt5dequeISt4pairIS0_IddEjESaIS2_EE9push_backERKS2_) refers to main.o(t._ZNKSt5dequeISt4pairIS0_IddEjESaIS2_EE5emptyEv) for std::deque<std::pair<std::pair<double, double>, unsigned>, std::allocator<std::pair<std::pair<double, double>, unsigned>>>::empty() const
    main.o(t._ZNSt5dequeISt4pairIS0_IddEjESaIS2_EE9push_backERKS2_) refers to main.o(t._ZNSt5dequeISt4pairIS0_IddEjESaIS2_EE15_C_alloc_at_endEv) for std::deque<std::pair<std::pair<double, double>, unsigned>, std::allocator<std::pair<std::pair<double, double>, unsigned>>>::_C_alloc_at_end()
    main.o(t._ZNSt5dequeISt4pairIS0_IddEjESaIS2_EE9push_backERKS2_) refers to main.o(t._ZNSt4pairIddEC1ERKS0_) for std::pair<double, double>::pair(const std::pair<double, double>&)
    main.o(.ARM.exidx) refers to main.o(t._ZNSt5dequeISt4pairIS0_IddEjESaIS2_EE9push_backERKS2_) for t._ZNSt5dequeISt4pairIS0_IddEjESaIS2_EE9push_backERKS2_
    main.o(i._ZN9PairSaverC1Ev) refers to main.o(t._ZNSt5dequeISt4pairIS0_IddEjESaIS2_EE7_C_initEv) for std::deque<std::pair<std::pair<double, double>, unsigned>, std::allocator<std::pair<std::pair<double, double>, unsigned>>>::_C_init()
    main.o(i._ZN9PairSaverC1Ev) refers to main.o(t._ZNSt15__rw_deque_iterISt4pairIS0_IddEjEiPKS2_RS3_SaIS2_EEC1ERKS_IS2_iPS2_RS2_S6_E) for std::__rw_deque_iter<std::pair<std::pair<double, double>, unsigned>, int, const std::pair<std::pair<double, double>, unsigned>*, const std::pair<std::pair<double, double>, unsigned>&, std::allocator<std::pair<std::pair<double, double>, unsigned>>>::__rw_deque_iter(const std::__rw_deque_iter<std::pair<std::pair<double, double>, unsigned>, int, std::pair<std::pair<double, double>, unsigned>*, std::pair<std::pair<double, double>, unsigned>&, std::allocator<std::pair<std::pair<double, double>, unsigned>>>&)
    main.o(i._ZN9PairSaverC1Ev) refers to main.o(t._ZNKSt5dequeISt4pairIS0_IddEjESaIS2_EE12_C_make_iterERKSt15__rw_deque_iterIS2_iPKS2_RS6_S3_E) for std::deque<std::pair<std::pair<double, double>, unsigned>, std::allocator<std::pair<std::pair<double, double>, unsigned>>>::_C_make_iter(const std::__rw_deque_iter<std::pair<std::pair<double, double>, unsigned>, int, const std::pair<std::pair<double, double>, unsigned>*, const std::pair<std::pair<double, double>, unsigned>&, std::allocator<std::pair<std::pair<double, double>, unsigned>>>&) const
    main.o(i._ZN9PairSaverC1Ev) refers to main.o(t._ZSt4copyISt15__rw_deque_iterISt4pairIS1_IddEjEiPKS3_RS4_SaIS3_EESt20back_insert_iteratorISt5dequeIS3_S7_EEET0_T_SE_SD_) for T2 std::copy<std::__rw_deque_iter<std::pair<std::pair<double, double>, unsigned>, int, const std::pair<std::pair<double, double>, unsigned>*, const std::pair<std::pair<double, double>, unsigned>&, std::allocator<std::pair<std::pair<double, double>, unsigned>>>, std::back_insert_iterator<std::deque<std::pair<std::pair<double, double>, unsigned>, std::allocator<std::pair<std::pair<double, double>, unsigned>>>>>(T1, T1, T2)
    main.o(i._ZN9PairSaverC1Ev) refers to main.o(t._ZNSt5dequeISt4pairIS0_IddEjESaIS2_EE9pop_frontEv) for std::deque<std::pair<std::pair<double, double>, unsigned>, std::allocator<std::pair<std::pair<double, double>, unsigned>>>::pop_front()
    main.o(i._ZN9PairSaverC1Ev) refers to main.o(t._ZNKSt5dequeISt4pairIS0_IddEjESaIS2_EE5emptyEv) for std::deque<std::pair<std::pair<double, double>, unsigned>, std::allocator<std::pair<std::pair<double, double>, unsigned>>>::empty() const
    main.o(.ARM.exidx) refers to main.o(i._ZN9PairSaverC1Ev) for i._ZN9PairSaverC1Ev
    main.o(.ARM.exidx) refers to main.o(i._Z6setPinP12GPIO_TypeDeftb) for i._Z6setPinP12GPIO_TypeDeftb
    main.o(.ARM.exidx) refers to main.o(i._Z7readPinP12GPIO_TypeDeft) for i._Z7readPinP12GPIO_TypeDeft
    main.o(.ARM.exidx) refers to main.o(t._ZNSt4pairIddEC1Ev) for t._ZNSt4pairIddEC1Ev
    main.o(.ARM.exidx) refers to main.o(t._ZN4__rw17__rw_new_capacityISt5dequeISt4pairIS2_IddEjESaIS4_EEEEjjPKT_) for t._ZN4__rw17__rw_new_capacityISt5dequeISt4pairIS2_IddEjESaIS4_EEEEjjPKT_
    main.o(.ARM.exidx) refers to main.o(t._ZNKSt5dequeISt4pairIS0_IddEjESaIS2_EE5emptyEv) for t._ZNKSt5dequeISt4pairIS0_IddEjESaIS2_EE5emptyEv
    main.o(t._ZNSt5dequeISt4pairIS0_IddEjESaIS2_EE10_C_bufsizeEv) refers to main.o(t._ZN4__rw17__rw_new_capacityISt5dequeISt4pairIS2_IddEjESaIS4_EEEEjjPKT_) for unsigned __rw::__rw_new_capacity<std::deque<std::pair<std::pair<double, double>, unsigned>, std::allocator<std::pair<std::pair<double, double>, unsigned>>>>(unsigned, const T1*)
    main.o(.ARM.exidx) refers to main.o(t._ZNSt5dequeISt4pairIS0_IddEjESaIS2_EE10_C_bufsizeEv) for t._ZNSt5dequeISt4pairIS0_IddEjESaIS2_EE10_C_bufsizeEv
    main.o(.ARM.exidx) refers to main.o(t._ZNSt15__rw_deque_iterISt4pairIS0_IddEjEiPS2_RS2_SaIS2_EEC1ERKS6_) for t._ZNSt15__rw_deque_iterISt4pairIS0_IddEjEiPS2_RS2_SaIS2_EEC1ERKS6_
    main.o(.ARM.exidx) refers to main.o(t._ZNSt15__rw_deque_iterISt4pairIS0_IddEjEiPKS2_RS3_SaIS2_EEC1ERKS_IS2_iPS2_RS2_S6_E) for t._ZNSt15__rw_deque_iterISt4pairIS0_IddEjEiPKS2_RS3_SaIS2_EEC1ERKS_IS2_iPS2_RS2_S6_E
    main.o(.ARM.exidx) refers to main.o(t._ZNKSt5dequeISt4pairIS0_IddEjESaIS2_EE12_C_make_iterERKSt15__rw_deque_iterIS2_iPKS2_RS6_S3_E) for t._ZNKSt5dequeISt4pairIS0_IddEjESaIS2_EE12_C_make_iterERKSt15__rw_deque_iterIS2_iPKS2_RS6_S3_E
    main.o(.ARM.exidx) refers to main.o(t._ZNSt4pairIddEC1ERKS0_) for t._ZNSt4pairIddEC1ERKS0_
    main.o(t._ZNSaIPSt4pairIS_IddEjEE8allocateEjPKv) refers to rwalloc.o(i._ZN4__rw13__rw_allocateEji) for __rw::__rw_allocate(unsigned, int)
    main.o(.ARM.exidx) refers to main.o(t._ZNSaIPSt4pairIS_IddEjEE8allocateEjPKv) for t._ZNSaIPSt4pairIS_IddEjEE8allocateEjPKv
    main.o(t._ZSt4copyISt15__rw_deque_iterISt4pairIS1_IddEjEiPKS3_RS4_SaIS3_EESt20back_insert_iteratorISt5dequeIS3_S7_EEET0_T_SE_SD_) refers to main.o(t._ZNSt5dequeISt4pairIS0_IddEjESaIS2_EE9push_backERKS2_) for std::deque<std::pair<std::pair<double, double>, unsigned>, std::allocator<std::pair<std::pair<double, double>, unsigned>>>::push_back(const std::pair<std::pair<double, double>, unsigned>&)
    main.o(t._ZSt4copyISt15__rw_deque_iterISt4pairIS1_IddEjEiPKS3_RS4_SaIS3_EESt20back_insert_iteratorISt5dequeIS3_S7_EEET0_T_SE_SD_) refers to main.o(t._ZN4__rw17__rw_new_capacityISt5dequeISt4pairIS2_IddEjESaIS4_EEEEjjPKT_) for unsigned __rw::__rw_new_capacity<std::deque<std::pair<std::pair<double, double>, unsigned>, std::allocator<std::pair<std::pair<double, double>, unsigned>>>>(unsigned, const T1*)
    main.o(.ARM.exidx) refers to main.o(t._ZSt4copyISt15__rw_deque_iterISt4pairIS1_IddEjEiPKS3_RS4_SaIS3_EESt20back_insert_iteratorISt5dequeIS3_S7_EEET0_T_SE_SD_) for t._ZSt4copyISt15__rw_deque_iterISt4pairIS1_IddEjEiPKS3_RS4_SaIS3_EESt20back_insert_iteratorISt5dequeIS3_S7_EEET0_T_SE_SD_
    main.o(i._ZN12CameraObjectC1Ev) refers to main.o(t._ZNSt4pairIddEC1Ev) for std::pair<double, double>::pair()
    main.o(.ARM.exidx) refers to main.o(i._ZN12CameraObjectC1Ev) for i._ZN12CameraObjectC1Ev
    main.o(.ARM.exidx) refers to main.o(t._ZNSt4pairIiiEC1Ev) for t._ZNSt4pairIiiEC1Ev
    main.o(.ARM.exidx) refers to main.o(i._ZN7Display6addEscE7Command) for i._ZN7Display6addEscE7Command
    main.o(.ARM.exidx) refers to main.o(i._ZN7Display11addToScreenE7Command) for i._ZN7Display11addToScreenE7Command
    main.o(i._ZN6ScreenC1Ev) refers to aeabi_vec_ctor_nocookie_nodtor.o(i.__aeabi_vec_ctor_nocookie_nodtor) for __aeabi_vec_ctor_nocookie_nodtor
    main.o(i._ZN6ScreenC1Ev) refers to main.o(i._ZN7CommandC1Ev) for Command::Command()
    main.o(.ARM.exidx) refers to main.o(i._ZN6ScreenC1Ev) for i._ZN6ScreenC1Ev
    main.o(.ARM.exidx) refers to main.o(i._ZN7Buttons12ButtonStructC1Ev) for i._ZN7Buttons12ButtonStructC1Ev
    main.o(i._ZSt3absd) refers to fabs.o(i.__hardfp_fabs) for __hardfp_fabs
    main.o(.ARM.exidx) refers to main.o(i._ZSt3absd) for i._ZSt3absd
    main.o(t._ZNSt5queueISt4pairIS0_IddEjESt5dequeIS2_SaIS2_EEE5frontEv) refers to main.o(t._ZNSt15__rw_deque_iterISt4pairIS0_IddEjEiPS2_RS2_SaIS2_EEC1ERKS6_) for std::__rw_deque_iter<std::pair<std::pair<double, double>, unsigned>, int, std::pair<std::pair<double, double>, unsigned>*, std::pair<std::pair<double, double>, unsigned>&, std::allocator<std::pair<std::pair<double, double>, unsigned>>>::__rw_deque_iter(const std::__rw_deque_iter<std::pair<std::pair<double, double>, unsigned>, int, std::pair<std::pair<double, double>, unsigned>*, std::pair<std::pair<double, double>, unsigned>&, std::allocator<std::pair<std::pair<double, double>, unsigned>>>&)
    main.o(.ARM.exidx) refers to main.o(t._ZNSt5queueISt4pairIS0_IddEjESt5dequeIS2_SaIS2_EEE5frontEv) for t._ZNSt5queueISt4pairIS0_IddEjESt5dequeIS2_SaIS2_EEE5frontEv
    main.o(.ARM.exidx) refers to main.o(i._ZN7CommandC1Ev) for i._ZN7CommandC1Ev
    ssd1306.o(.constdata__ZTV7SSD1306) refers to ssd1306.o(.constdata__ZTI7SSD1306) for typeinfo for SSD1306
    ssd1306.o(.constdata__ZTV7SSD1306) refers to ssd1306.o(i._ZN7SSD130613drawFastVLineEssst) for SSD1306::drawFastVLine(short, short, short, unsigned short)
    ssd1306.o(.constdata__ZTV7SSD1306) refers to ssd1306.o(i._ZN7SSD130613drawFastHLineEssst) for SSD1306::drawFastHLine(short, short, short, unsigned short)
    ssd1306.o(.constdata__ZTI7SSD1306) refers to lib_rtti_impl.o(.constdata__ZTVN10__cxxabiv117__class_type_infoE) for vtable for __cxxabiv1::__class_type_info
    ssd1306.o(.constdata__ZTI7SSD1306) refers to ssd1306.o(.constdata__ZTS7SSD1306) for typeinfo name for SSD1306
    mpu9250.o(.ARM.exidx) refers to mpu9250.o(i._ZN7mpu92507convertEth) for i._ZN7mpu92507convertEth
    lib_rtti_impl.o(.constdata__ZTVN10__cxxabiv123__fundamental_type_infoE) refers to lib_rtti_impl.o(.constdata__ZTIN10__cxxabiv123__fundamental_type_infoE) for typeinfo for __cxxabiv1::__fundamental_type_info
    lib_rtti_impl.o(.constdata__ZTVN10__cxxabiv123__fundamental_type_infoE) refers to lib_rtti_impl.o(i._ZN10__cxxabiv123__fundamental_type_infoD1Ev) for __cxxabiv1::__fundamental_type_info::~__fundamental_type_info()
    lib_rtti_impl.o(.constdata__ZTVN10__cxxabiv123__fundamental_type_infoE) refers to lib_rtti_impl.o(i._ZN10__cxxabiv123__fundamental_type_infoD0Ev) for __cxxabiv1::__fundamental_type_info::~__fundamental_type_info__deallocating()
    lib_rtti_impl.o(.constdata__ZTVN10__cxxabiv117__array_type_infoE) refers to lib_rtti_impl.o(.constdata__ZTIN10__cxxabiv117__array_type_infoE) for typeinfo for __cxxabiv1::__array_type_info
    lib_rtti_impl.o(.constdata__ZTVN10__cxxabiv117__array_type_infoE) refers to lib_rtti_impl.o(i._ZN10__cxxabiv117__array_type_infoD1Ev) for __cxxabiv1::__array_type_info::~__array_type_info()
    lib_rtti_impl.o(.constdata__ZTVN10__cxxabiv117__array_type_infoE) refers to lib_rtti_impl.o(i._ZN10__cxxabiv117__array_type_infoD0Ev) for __cxxabiv1::__array_type_info::~__array_type_info__deallocating()
    lib_rtti_impl.o(.constdata__ZTVN10__cxxabiv120__function_type_infoE) refers to lib_rtti_impl.o(.constdata__ZTIN10__cxxabiv120__function_type_infoE) for typeinfo for __cxxabiv1::__function_type_info
    lib_rtti_impl.o(.constdata__ZTVN10__cxxabiv120__function_type_infoE) refers to lib_rtti_impl.o(i._ZN10__cxxabiv120__function_type_infoD1Ev) for __cxxabiv1::__function_type_info::~__function_type_info()
    lib_rtti_impl.o(.constdata__ZTVN10__cxxabiv120__function_type_infoE) refers to lib_rtti_impl.o(i._ZN10__cxxabiv120__function_type_infoD0Ev) for __cxxabiv1::__function_type_info::~__function_type_info__deallocating()
    lib_rtti_impl.o(.constdata__ZTVN10__cxxabiv116__enum_type_infoE) refers to lib_rtti_impl.o(.constdata__ZTIN10__cxxabiv116__enum_type_infoE) for typeinfo for __cxxabiv1::__enum_type_info
    lib_rtti_impl.o(.constdata__ZTVN10__cxxabiv116__enum_type_infoE) refers to lib_rtti_impl.o(i._ZN10__cxxabiv116__enum_type_infoD1Ev) for __cxxabiv1::__enum_type_info::~__enum_type_info()
    lib_rtti_impl.o(.constdata__ZTVN10__cxxabiv116__enum_type_infoE) refers to lib_rtti_impl.o(i._ZN10__cxxabiv116__enum_type_infoD0Ev) for __cxxabiv1::__enum_type_info::~__enum_type_info__deallocating()
    lib_rtti_impl.o(.constdata__ZTVN10__cxxabiv117__class_type_infoE) refers to lib_rtti_impl.o(.constdata__ZTIN10__cxxabiv117__class_type_infoE) for typeinfo for __cxxabiv1::__class_type_info
    lib_rtti_impl.o(.constdata__ZTVN10__cxxabiv117__class_type_infoE) refers to lib_rtti_impl.o(i._ZN10__cxxabiv117__class_type_infoD1Ev) for __cxxabiv1::__class_type_info::~__class_type_info()
    lib_rtti_impl.o(.constdata__ZTVN10__cxxabiv117__class_type_infoE) refers to lib_rtti_impl.o(i._ZN10__cxxabiv117__class_type_infoD0Ev) for __cxxabiv1::__class_type_info::~__class_type_info__deallocating()
    lib_rtti_impl.o(.constdata__ZTVN10__cxxabiv120__si_class_type_infoE) refers to lib_rtti_impl.o(.constdata__ZTIN10__cxxabiv120__si_class_type_infoE) for typeinfo for __cxxabiv1::__si_class_type_info
    lib_rtti_impl.o(.constdata__ZTVN10__cxxabiv120__si_class_type_infoE) refers to lib_rtti_impl.o(i._ZN10__cxxabiv120__si_class_type_infoD1Ev) for __cxxabiv1::__si_class_type_info::~__si_class_type_info()
    lib_rtti_impl.o(.constdata__ZTVN10__cxxabiv120__si_class_type_infoE) refers to lib_rtti_impl.o(i._ZN10__cxxabiv120__si_class_type_infoD0Ev) for __cxxabiv1::__si_class_type_info::~__si_class_type_info__deallocating()
    lib_rtti_impl.o(.constdata__ZTVN10__cxxabiv121__vmi_class_type_infoE) refers to lib_rtti_impl.o(.constdata__ZTIN10__cxxabiv121__vmi_class_type_infoE) for typeinfo for __cxxabiv1::__vmi_class_type_info
    lib_rtti_impl.o(.constdata__ZTVN10__cxxabiv121__vmi_class_type_infoE) refers to lib_rtti_impl.o(i._ZN10__cxxabiv121__vmi_class_type_infoD1Ev) for __cxxabiv1::__vmi_class_type_info::~__vmi_class_type_info()
    lib_rtti_impl.o(.constdata__ZTVN10__cxxabiv121__vmi_class_type_infoE) refers to lib_rtti_impl.o(i._ZN10__cxxabiv121__vmi_class_type_infoD0Ev) for __cxxabiv1::__vmi_class_type_info::~__vmi_class_type_info__deallocating()
    lib_rtti_impl.o(.constdata__ZTVN10__cxxabiv117__pbase_type_infoE) refers to lib_rtti_impl.o(.constdata__ZTIN10__cxxabiv117__pbase_type_infoE) for typeinfo for __cxxabiv1::__pbase_type_info
    lib_rtti_impl.o(.constdata__ZTVN10__cxxabiv117__pbase_type_infoE) refers to lib_rtti_impl.o(i._ZN10__cxxabiv117__pbase_type_infoD1Ev) for __cxxabiv1::__pbase_type_info::~__pbase_type_info()
    lib_rtti_impl.o(.constdata__ZTVN10__cxxabiv117__pbase_type_infoE) refers to lib_rtti_impl.o(i._ZN10__cxxabiv117__pbase_type_infoD0Ev) for __cxxabiv1::__pbase_type_info::~__pbase_type_info__deallocating()
    lib_rtti_impl.o(.constdata__ZTVN10__cxxabiv119__pointer_type_infoE) refers to lib_rtti_impl.o(.constdata__ZTIN10__cxxabiv119__pointer_type_infoE) for typeinfo for __cxxabiv1::__pointer_type_info
    lib_rtti_impl.o(.constdata__ZTVN10__cxxabiv119__pointer_type_infoE) refers to lib_rtti_impl.o(i._ZN10__cxxabiv119__pointer_type_infoD1Ev) for __cxxabiv1::__pointer_type_info::~__pointer_type_info()
    lib_rtti_impl.o(.constdata__ZTVN10__cxxabiv119__pointer_type_infoE) refers to lib_rtti_impl.o(i._ZN10__cxxabiv119__pointer_type_infoD0Ev) for __cxxabiv1::__pointer_type_info::~__pointer_type_info__deallocating()
    lib_rtti_impl.o(.constdata__ZTVN10__cxxabiv129__pointer_to_member_type_infoE) refers to lib_rtti_impl.o(.constdata__ZTIN10__cxxabiv129__pointer_to_member_type_infoE) for typeinfo for __cxxabiv1::__pointer_to_member_type_info
    lib_rtti_impl.o(.constdata__ZTVN10__cxxabiv129__pointer_to_member_type_infoE) refers to lib_rtti_impl.o(i._ZN10__cxxabiv129__pointer_to_member_type_infoD1Ev) for __cxxabiv1::__pointer_to_member_type_info::~__pointer_to_member_type_info()
    lib_rtti_impl.o(.constdata__ZTVN10__cxxabiv129__pointer_to_member_type_infoE) refers to lib_rtti_impl.o(i._ZN10__cxxabiv129__pointer_to_member_type_infoD0Ev) for __cxxabiv1::__pointer_to_member_type_info::~__pointer_to_member_type_info__deallocating()
    lib_rtti_impl.o(.ARM.exidx) refers to lib_rtti_impl.o(i._ZNSt9type_infodlEPv) for i._ZNSt9type_infodlEPv
    lib_rtti_impl.o(.constdata__ZTIN10__cxxabiv123__fundamental_type_infoE) refers to lib_rtti_impl.o(.constdata__ZTVN10__cxxabiv120__si_class_type_infoE) for vtable for __cxxabiv1::__si_class_type_info
    lib_rtti_impl.o(.constdata__ZTIN10__cxxabiv123__fundamental_type_infoE) refers to lib_rtti_impl.o(.constdata__ZTSN10__cxxabiv123__fundamental_type_infoE) for typeinfo name for __cxxabiv1::__fundamental_type_info
    lib_rtti_impl.o(.constdata__ZTIN10__cxxabiv123__fundamental_type_infoE) refers to type_info_dtor.o(.constdata__ZTISt9type_info) for typeinfo for std::type_info
    lib_rtti_impl.o(.constdata__ZTIN10__cxxabiv117__array_type_infoE) refers to lib_rtti_impl.o(.constdata__ZTVN10__cxxabiv120__si_class_type_infoE) for vtable for __cxxabiv1::__si_class_type_info
    lib_rtti_impl.o(.constdata__ZTIN10__cxxabiv117__array_type_infoE) refers to lib_rtti_impl.o(.constdata__ZTSN10__cxxabiv117__array_type_infoE) for typeinfo name for __cxxabiv1::__array_type_info
    lib_rtti_impl.o(.constdata__ZTIN10__cxxabiv117__array_type_infoE) refers to type_info_dtor.o(.constdata__ZTISt9type_info) for typeinfo for std::type_info
    lib_rtti_impl.o(.constdata__ZTIN10__cxxabiv120__function_type_infoE) refers to lib_rtti_impl.o(.constdata__ZTVN10__cxxabiv120__si_class_type_infoE) for vtable for __cxxabiv1::__si_class_type_info
    lib_rtti_impl.o(.constdata__ZTIN10__cxxabiv120__function_type_infoE) refers to lib_rtti_impl.o(.constdata__ZTSN10__cxxabiv120__function_type_infoE) for typeinfo name for __cxxabiv1::__function_type_info
    lib_rtti_impl.o(.constdata__ZTIN10__cxxabiv120__function_type_infoE) refers to type_info_dtor.o(.constdata__ZTISt9type_info) for typeinfo for std::type_info
    lib_rtti_impl.o(.constdata__ZTIN10__cxxabiv116__enum_type_infoE) refers to lib_rtti_impl.o(.constdata__ZTVN10__cxxabiv120__si_class_type_infoE) for vtable for __cxxabiv1::__si_class_type_info
    lib_rtti_impl.o(.constdata__ZTIN10__cxxabiv116__enum_type_infoE) refers to lib_rtti_impl.o(.constdata__ZTSN10__cxxabiv116__enum_type_infoE) for typeinfo name for __cxxabiv1::__enum_type_info
    lib_rtti_impl.o(.constdata__ZTIN10__cxxabiv116__enum_type_infoE) refers to type_info_dtor.o(.constdata__ZTISt9type_info) for typeinfo for std::type_info
    lib_rtti_impl.o(.constdata__ZTIN10__cxxabiv117__class_type_infoE) refers to lib_rtti_impl.o(.constdata__ZTVN10__cxxabiv120__si_class_type_infoE) for vtable for __cxxabiv1::__si_class_type_info
    lib_rtti_impl.o(.constdata__ZTIN10__cxxabiv117__class_type_infoE) refers to lib_rtti_impl.o(.constdata__ZTSN10__cxxabiv117__class_type_infoE) for typeinfo name for __cxxabiv1::__class_type_info
    lib_rtti_impl.o(.constdata__ZTIN10__cxxabiv117__class_type_infoE) refers to type_info_dtor.o(.constdata__ZTISt9type_info) for typeinfo for std::type_info
    lib_rtti_impl.o(.constdata__ZTIN10__cxxabiv120__si_class_type_infoE) refers to lib_rtti_impl.o(.constdata__ZTVN10__cxxabiv120__si_class_type_infoE) for vtable for __cxxabiv1::__si_class_type_info
    lib_rtti_impl.o(.constdata__ZTIN10__cxxabiv120__si_class_type_infoE) refers to lib_rtti_impl.o(.constdata__ZTSN10__cxxabiv120__si_class_type_infoE) for typeinfo name for __cxxabiv1::__si_class_type_info
    lib_rtti_impl.o(.constdata__ZTIN10__cxxabiv120__si_class_type_infoE) refers to lib_rtti_impl.o(.constdata__ZTIN10__cxxabiv117__class_type_infoE) for typeinfo for __cxxabiv1::__class_type_info
    lib_rtti_impl.o(.constdata__ZTIN10__cxxabiv121__vmi_class_type_infoE) refers to lib_rtti_impl.o(.constdata__ZTVN10__cxxabiv120__si_class_type_infoE) for vtable for __cxxabiv1::__si_class_type_info
    lib_rtti_impl.o(.constdata__ZTIN10__cxxabiv121__vmi_class_type_infoE) refers to lib_rtti_impl.o(.constdata__ZTSN10__cxxabiv121__vmi_class_type_infoE) for typeinfo name for __cxxabiv1::__vmi_class_type_info
    lib_rtti_impl.o(.constdata__ZTIN10__cxxabiv121__vmi_class_type_infoE) refers to lib_rtti_impl.o(.constdata__ZTIN10__cxxabiv117__class_type_infoE) for typeinfo for __cxxabiv1::__class_type_info
    lib_rtti_impl.o(.constdata__ZTIN10__cxxabiv117__pbase_type_infoE) refers to lib_rtti_impl.o(.constdata__ZTVN10__cxxabiv120__si_class_type_infoE) for vtable for __cxxabiv1::__si_class_type_info
    lib_rtti_impl.o(.constdata__ZTIN10__cxxabiv117__pbase_type_infoE) refers to lib_rtti_impl.o(.constdata__ZTSN10__cxxabiv117__pbase_type_infoE) for typeinfo name for __cxxabiv1::__pbase_type_info
    lib_rtti_impl.o(.constdata__ZTIN10__cxxabiv117__pbase_type_infoE) refers to type_info_dtor.o(.constdata__ZTISt9type_info) for typeinfo for std::type_info
    lib_rtti_impl.o(.constdata__ZTIN10__cxxabiv119__pointer_type_infoE) refers to lib_rtti_impl.o(.constdata__ZTVN10__cxxabiv120__si_class_type_infoE) for vtable for __cxxabiv1::__si_class_type_info
    lib_rtti_impl.o(.constdata__ZTIN10__cxxabiv119__pointer_type_infoE) refers to lib_rtti_impl.o(.constdata__ZTSN10__cxxabiv119__pointer_type_infoE) for typeinfo name for __cxxabiv1::__pointer_type_info
    lib_rtti_impl.o(.constdata__ZTIN10__cxxabiv119__pointer_type_infoE) refers to lib_rtti_impl.o(.constdata__ZTIN10__cxxabiv117__pbase_type_infoE) for typeinfo for __cxxabiv1::__pbase_type_info
    lib_rtti_impl.o(.constdata__ZTIN10__cxxabiv129__pointer_to_member_type_infoE) refers to lib_rtti_impl.o(.constdata__ZTVN10__cxxabiv120__si_class_type_infoE) for vtable for __cxxabiv1::__si_class_type_info
    lib_rtti_impl.o(.constdata__ZTIN10__cxxabiv129__pointer_to_member_type_infoE) refers to lib_rtti_impl.o(.constdata__ZTSN10__cxxabiv129__pointer_to_member_type_infoE) for typeinfo name for __cxxabiv1::__pointer_to_member_type_info
    lib_rtti_impl.o(.constdata__ZTIN10__cxxabiv129__pointer_to_member_type_infoE) refers to lib_rtti_impl.o(.constdata__ZTIN10__cxxabiv117__pbase_type_infoE) for typeinfo for __cxxabiv1::__pbase_type_info
    rwstdexcept.o(.constdata__ZTVSt8messagesIcE) refers to rwstdexcept.o(.constdata__ZTISt8messagesIcE) for typeinfo for std::messages<char>
    rwstdexcept.o(.constdata__ZTVSt8messagesIcE) refers to rwstdexcept.o(i._ZNSt8messagesIcED1Ev) for std::messages<char>::~messages()
    rwstdexcept.o(.constdata__ZTVSt8messagesIcE) refers to rwstdexcept.o(i._ZNSt8messagesIcED0Ev) for std::messages<char>::~messages__deallocating()
    rwstdexcept.o(.constdata__ZTVSt8messagesIcE) refers to char.o(i._ZN4__rw15__rw_facet_base12_C_initfacetERKSt6locale) for __rw::__rw_facet_base::_C_initfacet(const std::locale&)
    rwstdexcept.o(.constdata__ZTVSt8messagesIcE) refers to rwstdexcept.o(t._ZNKSt8messagesIcE7do_openERKSsRKSt6locale) for std::messages<char>::do_open(const std::basic_string<char, std::char_traits<char>, std::allocator<char>>&, const std::locale&) const
    rwstdexcept.o(.constdata__ZTVSt8messagesIcE) refers to rwstdexcept.o(t._ZNKSt8messagesIcE6do_getEiiiRKSs) for std::messages<char>::do_get(int, int, int, const std::basic_string<char, std::char_traits<char>, std::allocator<char>>&) const
    rwstdexcept.o(.constdata__ZTVSt8messagesIcE) refers to rwstdexcept.o(t._ZNKSt8messagesIcE8do_closeEi) for std::messages<char>::do_close(int) const
    rwstdexcept.o(t._ZNKSt8messagesIcE6do_getEiiiRKSs) refers to messages.o(i._ZNKSt18__rw_messages_base14_C_get_messageEiii) for std::__rw_messages_base::_C_get_message(int, int, int) const
    rwstdexcept.o(t._ZNKSt8messagesIcE6do_getEiiiRKSs) refers to messages.o(i._ZNKSt18__rw_messages_base13_C_get_localeEi) for std::__rw_messages_base::_C_get_locale(int) const
    rwstdexcept.o(t._ZNKSt8messagesIcE6do_getEiiiRKSs) refers to locale.o(i._ZNKSt6locale13_C_make_facetERKNS_2idEbiPFPN4__rw15__rw_facet_baseEiPKcjE) for std::locale::_C_make_facet(const std::locale::id&, bool, int, __rw::__rw_facet_base*(*)(int, const char*, unsigned)) const
    rwstdexcept.o(t._ZNKSt8messagesIcE6do_getEiiiRKSs) refers to locale.o(t._ZNSsC1EPKcRKSaIcE) for std::basic_string<char, std::char_traits<char>, std::allocator<char>>::basic_string(const char*, const std::allocator<char>&)
    rwstdexcept.o(t._ZNKSt8messagesIcE6do_getEiiiRKSs) refers to char.o(t._ZNSsC1ERKSs) for std::basic_string<char, std::char_traits<char>, std::allocator<char>>::basic_string(const std::basic_string<char, std::char_traits<char>, std::allocator<char>>&)
    rwstdexcept.o(t._ZNKSt8messagesIcE6do_getEiiiRKSs) refers to char.o(t._ZNSsD1Ev) for std::basic_string<char, std::char_traits<char>, std::allocator<char>>::~basic_string()
    rwstdexcept.o(t._ZNKSt8messagesIcE6do_getEiiiRKSs) refers to char.o(.data) for std::ctype<char>::id
    rwstdexcept.o(t._ZNKSt8messagesIcE6do_getEiiiRKSs) refers to rwstdexcept.o(t._ZN4__rw16__rw_facet_makerISt5ctypeIcEE13_C_maker_funcEiPKcj) for __rw::__rw_facet_maker<std::ctype<char>>::_C_maker_func(int, const char*, unsigned)
    rwstdexcept.o(t._ZNKSt8messagesIcE6do_getEiiiRKSs.clean) refers to char.o(t._ZNSsD1Ev) for std::basic_string<char, std::char_traits<char>, std::allocator<char>>::~basic_string()
    rwstdexcept.o(t._ZNKSt8messagesIcE6do_getEiiiRKSs.clean) refers to arm_exceptions_cleanup.o(.emb_text) for __cxa_end_cleanup
    rwstdexcept.o(.ARM.extab) refers to rwstdexcept.o(t._ZNKSt8messagesIcE6do_getEiiiRKSs.clean) for t._ZNKSt8messagesIcE6do_getEiiiRKSs.clean
    rwstdexcept.o(.ARM.exidx) refers to rwstdexcept.o(t._ZNKSt8messagesIcE6do_getEiiiRKSs) for t._ZNKSt8messagesIcE6do_getEiiiRKSs
    rwstdexcept.o(.ARM.exidx) refers to unwind_pr0.o(.text) for __aeabi_unwind_cpp_pr0
    rwstdexcept.o(.ARM.exidx) refers to rwstdexcept.o(.ARM.extab) for .extab._ZNKSt8messagesIcE6do_getEiiiRKSs
    rwstdexcept.o(.ARM.exidx) refers to rwstdexcept.o(t._ZNKSt8messagesIcE6do_getEiiiRKSs.clean) for t._ZNKSt8messagesIcE6do_getEiiiRKSs.clean
    rwstdexcept.o(i._ZNSt8messagesIcED1Ev) refers to rwstdexcept.o(i._ZNSt18__rw_messages_baseD1Ev) for std::__rw_messages_base::~__rw_messages_base()
    rwstdexcept.o(.ARM.exidx) refers to rwstdexcept.o(i._ZNSt8messagesIcED1Ev) for i._ZNSt8messagesIcED1Ev
    rwstdexcept.o(.ARM.exidx) refers to rwstdexcept.o(i._ZdlPvS_) for i._ZdlPvS_
    rwstdexcept.o(i._ZNSt6localeC1Ev) refers to locale.o(i._ZNSt6locale7_C_initEv) for std::locale::_C_init()
    rwstdexcept.o(i._ZNSt6localeC1Ev) refers to locale.o(.data) for std::locale::_C_global
    rwstdexcept.o(.ARM.extab) refers to arm_callunex_noexceptions.o(.text) for __cxa_call_unexpected
    rwstdexcept.o(.ARM.exidx) refers to rwstdexcept.o(i._ZNSt6localeC1Ev) for i._ZNSt6localeC1Ev
    rwstdexcept.o(.ARM.exidx) refers to unwind_pr0.o(.text) for __aeabi_unwind_cpp_pr0
    rwstdexcept.o(.ARM.exidx) refers to rwstdexcept.o(.ARM.extab) for .extab._ZNSt6localeC1Ev
    rwstdexcept.o(i._ZNSt18__rw_messages_baseD1Ev) refers to char.o(t._ZNSsD1Ev) for std::basic_string<char, std::char_traits<char>, std::allocator<char>>::~basic_string()
    rwstdexcept.o(.ARM.exidx) refers to rwstdexcept.o(i._ZNSt18__rw_messages_baseD1Ev) for i._ZNSt18__rw_messages_baseD1Ev
    rwstdexcept.o(i._ZNSt14__rw_exceptionC1Ev) refers to exception_ctor.o(i._ZNSt9exceptionC1Ev) for std::exception::exception()
    rwstdexcept.o(i._ZNSt14__rw_exceptionC1Ev) refers to rwstdexcept.o(.constdata__ZTVSt14__rw_exception) for vtable for std::__rw_exception
    rwstdexcept.o(.ARM.exidx) refers to rwstdexcept.o(i._ZNSt14__rw_exceptionC1Ev) for i._ZNSt14__rw_exceptionC1Ev
    rwstdexcept.o(t._ZNKSt8messagesIcE7do_openERKSsRKSt6locale) refers to messages.o(i._ZNKSt18__rw_messages_base11_C_cat_openERKSsRKSt6locale) for std::__rw_messages_base::_C_cat_open(const std::basic_string<char, std::char_traits<char>, std::allocator<char>>&, const std::locale&) const
    rwstdexcept.o(.ARM.exidx) refers to rwstdexcept.o(t._ZNKSt8messagesIcE7do_openERKSsRKSt6locale) for t._ZNKSt8messagesIcE7do_openERKSsRKSt6locale
    rwstdexcept.o(t._ZN4__rw16__rw_facet_makerISt5ctypeIcEE13_C_maker_funcEiPKcj) refers to new.o(i._Znwj) for operator new(unsigned)
    rwstdexcept.o(t._ZN4__rw16__rw_facet_makerISt5ctypeIcEE13_C_maker_funcEiPKcj) refers to char.o(i._ZNSt12ctype_bynameIcEC1EPKcj) for std::ctype_byname<char>::ctype_byname(const char*, unsigned)
    rwstdexcept.o(t._ZN4__rw16__rw_facet_makerISt5ctypeIcEE13_C_maker_funcEiPKcj) refers to char.o(i._ZNSt5ctypeIcEC1EPKNSt10ctype_base4maskEbj) for std::ctype<char>::ctype(const std::ctype_base::mask*, bool, unsigned)
    rwstdexcept.o(t._ZN4__rw16__rw_facet_makerISt5ctypeIcEE13_C_maker_funcEiPKcj.clean) refers to delete.o(i._ZdlPv) for operator delete (void*)
    rwstdexcept.o(t._ZN4__rw16__rw_facet_makerISt5ctypeIcEE13_C_maker_funcEiPKcj.clean) refers to arm_exceptions_cleanup.o(.emb_text) for __cxa_end_cleanup
    rwstdexcept.o(.ARM.extab) refers to rwstdexcept.o(t._ZN4__rw16__rw_facet_makerISt5ctypeIcEE13_C_maker_funcEiPKcj.clean) for t._ZN4__rw16__rw_facet_makerISt5ctypeIcEE13_C_maker_funcEiPKcj.clean
    rwstdexcept.o(.ARM.exidx) refers to rwstdexcept.o(t._ZN4__rw16__rw_facet_makerISt5ctypeIcEE13_C_maker_funcEiPKcj) for t._ZN4__rw16__rw_facet_makerISt5ctypeIcEE13_C_maker_funcEiPKcj
    rwstdexcept.o(.ARM.exidx) refers to unwind_pr0.o(.text) for __aeabi_unwind_cpp_pr0
    rwstdexcept.o(.ARM.exidx) refers to rwstdexcept.o(.ARM.extab) for .extab._ZN4__rw16__rw_facet_makerISt5ctypeIcEE13_C_maker_funcEiPKcj
    rwstdexcept.o(.ARM.exidx) refers to rwstdexcept.o(t._ZN4__rw16__rw_facet_makerISt5ctypeIcEE13_C_maker_funcEiPKcj.clean) for t._ZN4__rw16__rw_facet_makerISt5ctypeIcEE13_C_maker_funcEiPKcj.clean
    rwstdexcept.o(t._ZNKSt8messagesIcE8do_closeEi) refers to messages.o(i._ZNKSt18__rw_messages_base12_C_cat_closeEi) for std::__rw_messages_base::_C_cat_close(int) const
    rwstdexcept.o(.ARM.exidx) refers to rwstdexcept.o(t._ZNKSt8messagesIcE8do_closeEi) for t._ZNKSt8messagesIcE8do_closeEi
    rwstdexcept.o(i._ZNSt8messagesIcED0Ev) refers to rwstdexcept.o(i._ZNSt8messagesIcED1Ev) for std::messages<char>::~messages()
    rwstdexcept.o(i._ZNSt8messagesIcED0Ev) refers to delete.o(i._ZdlPv) for operator delete (void*)
    rwstdexcept.o(.ARM.exidx) refers to rwstdexcept.o(i._ZNSt8messagesIcED0Ev) for i._ZNSt8messagesIcED0Ev
    rwstdexcept.o(.constdata__ZTVNSt6locale5facetE) refers to char.o(.constdata__ZTINSt6locale5facetE) for typeinfo for std::locale::facet
    rwstdexcept.o(.constdata__ZTVNSt6locale5facetE) refers to char.o(i._ZNSt6locale5facetD1Ev) for std::locale::facet::~facet()
    rwstdexcept.o(.constdata__ZTVNSt6locale5facetE) refers to rwstdexcept.o(i._ZNSt6locale5facetD0Ev) for std::locale::facet::~facet__deallocating()
    rwstdexcept.o(.constdata__ZTVNSt6locale5facetE) refers to char.o(i._ZN4__rw15__rw_facet_base12_C_initfacetERKSt6locale) for __rw::__rw_facet_base::_C_initfacet(const std::locale&)
    rwstdexcept.o(.constdata__ZTVSt14__rw_exception) refers to rwstdexcept.o(.constdata__ZTISt14__rw_exception) for typeinfo for std::__rw_exception
    rwstdexcept.o(.constdata__ZTVSt14__rw_exception) refers to rwstdexcept.o(i._ZNSt14__rw_exceptionD1Ev) for std::__rw_exception::~__rw_exception()
    rwstdexcept.o(.constdata__ZTVSt14__rw_exception) refers to rwstdexcept.o(i._ZNSt14__rw_exceptionD0Ev) for std::__rw_exception::~__rw_exception__deallocating()
    rwstdexcept.o(.constdata__ZTVSt14__rw_exception) refers to rwstdexcept.o(i._ZNKSt14__rw_exception4whatEv) for std::__rw_exception::what() const
    rwstdexcept.o(.constdata__ZTISt8messagesIcE) refers to lib_rtti_impl.o(.constdata__ZTVN10__cxxabiv121__vmi_class_type_infoE) for vtable for __cxxabiv1::__vmi_class_type_info
    rwstdexcept.o(.constdata__ZTISt8messagesIcE) refers to rwstdexcept.o(.constdata__ZTSSt8messagesIcE) for typeinfo name for std::messages<char>
    rwstdexcept.o(.constdata__ZTISt8messagesIcE) refers to char.o(.constdata__ZTINSt6locale5facetE) for typeinfo for std::locale::facet
    rwstdexcept.o(.constdata__ZTISt8messagesIcE) refers to rwstdexcept.o(.constdata__ZTISt18__rw_messages_base) for typeinfo for std::__rw_messages_base
    rwstdexcept.o(.constdata__ZTISt14__rw_exception) refers to lib_rtti_impl.o(.constdata__ZTVN10__cxxabiv120__si_class_type_infoE) for vtable for __cxxabiv1::__si_class_type_info
    rwstdexcept.o(.constdata__ZTISt14__rw_exception) refers to rwstdexcept.o(.constdata__ZTSSt14__rw_exception) for typeinfo name for std::__rw_exception
    rwstdexcept.o(.constdata__ZTISt14__rw_exception) refers to exception_dtor.o(.constdata__ZTISt9exception) for typeinfo for std::exception
    rwstdexcept.o(.constdata__ZTISt18__rw_messages_base) refers to lib_rtti_impl.o(.constdata__ZTVN10__cxxabiv120__si_class_type_infoE) for vtable for __cxxabiv1::__si_class_type_info
    rwstdexcept.o(.constdata__ZTISt18__rw_messages_base) refers to rwstdexcept.o(.constdata__ZTSSt18__rw_messages_base) for typeinfo name for std::__rw_messages_base
    rwstdexcept.o(.constdata__ZTISt18__rw_messages_base) refers to rwstdexcept.o(.constdata__ZTISt13messages_base) for typeinfo for std::messages_base
    rwstdexcept.o(.constdata__ZTISt13messages_base) refers to lib_rtti_impl.o(.constdata__ZTVN10__cxxabiv117__class_type_infoE) for vtable for __cxxabiv1::__class_type_info
    rwstdexcept.o(.constdata__ZTISt13messages_base) refers to rwstdexcept.o(.constdata__ZTSSt13messages_base) for typeinfo name for std::messages_base
    rwstdexcept.o(i._ZNSt6locale5facetD0Ev) refers to delete.o(i._ZdlPv) for operator delete (void*)
    rwstdexcept.o(.ARM.exidx) refers to rwstdexcept.o(i._ZNSt6locale5facetD0Ev) for i._ZNSt6locale5facetD0Ev
    rwstdexcept.o(i._ZNSt14__rw_exceptionD1Ev) refers to array_del.o(i._ZdaPv) for operator delete[] (void*)
    rwstdexcept.o(i._ZNSt14__rw_exceptionD1Ev) refers to rwstdexcept.o(.constdata__ZTVSt14__rw_exception) for vtable for std::__rw_exception
    rwstdexcept.o(.ARM.exidx) refers to rwstdexcept.o(i._ZNSt14__rw_exceptionD1Ev) for i._ZNSt14__rw_exceptionD1Ev
    rwstdexcept.o(i._ZNSt14__rw_exceptionD0Ev) refers to rwstdexcept.o(i._ZNSt14__rw_exceptionD1Ev) for std::__rw_exception::~__rw_exception()
    rwstdexcept.o(i._ZNSt14__rw_exceptionD0Ev) refers to delete.o(i._ZdlPv) for operator delete (void*)
    rwstdexcept.o(.ARM.exidx) refers to rwstdexcept.o(i._ZNSt14__rw_exceptionD0Ev) for i._ZNSt14__rw_exceptionD0Ev
    rwstdexcept.o(.ARM.exidx) refers to rwstdexcept.o(i._ZNKSt14__rw_exception4whatEv) for i._ZNKSt14__rw_exception4whatEv
    bad_alloc_dtor.o(.constdata__ZTVSt9bad_alloc) refers to bad_alloc_dtor.o(.constdata__ZTISt9bad_alloc) for typeinfo for std::bad_alloc
    bad_alloc_dtor.o(.constdata__ZTVSt9bad_alloc) refers to bad_alloc_dtor.o(i._ZNSt9bad_allocD1Ev) for std::bad_alloc::~bad_alloc()
    bad_alloc_dtor.o(.constdata__ZTVSt9bad_alloc) refers to bad_alloc_dtor.o(i._ZNSt9bad_allocD0Ev) for std::bad_alloc::~bad_alloc__deallocating()
    bad_alloc_dtor.o(.constdata__ZTVSt9bad_alloc) refers to bad_alloc_what.o(i._ZNKSt9bad_alloc4whatEv) for std::bad_alloc::what() const
    bad_alloc_dtor.o(.constdata__ZTISt9bad_alloc) refers to lib_rtti_impl.o(.constdata__ZTVN10__cxxabiv120__si_class_type_infoE) for vtable for __cxxabiv1::__si_class_type_info
    bad_alloc_dtor.o(.constdata__ZTISt9bad_alloc) refers to bad_alloc_dtor.o(.constdata__ZTSSt9bad_alloc) for typeinfo name for std::bad_alloc
    bad_alloc_dtor.o(.constdata__ZTISt9bad_alloc) refers to exception_dtor.o(.constdata__ZTISt9exception) for typeinfo for std::exception
    type_info_dtor.o(.constdata__ZTVSt9type_info) refers to type_info_dtor.o(.constdata__ZTISt9type_info) for typeinfo for std::type_info
    type_info_dtor.o(.constdata__ZTVSt9type_info) refers to type_info_dtor.o(i._ZNSt9type_infoD1Ev) for std::type_info::~type_info()
    type_info_dtor.o(.constdata__ZTVSt9type_info) refers to type_info_dtor.o(i._ZNSt9type_infoD0Ev) for std::type_info::~type_info__deallocating()
    type_info_dtor.o(.constdata__ZTISt9type_info) refers to lib_rtti_impl.o(.constdata__ZTVN10__cxxabiv117__class_type_infoE) for vtable for __cxxabiv1::__class_type_info
    type_info_dtor.o(.constdata__ZTISt9type_info) refers to type_info_dtor.o(.constdata__ZTSSt9type_info) for typeinfo name for std::type_info
    char.o(.constdata__ZTVSt5ctypeIcE) refers to char.o(.constdata__ZTISt5ctypeIcE) for typeinfo for std::ctype<char>
    char.o(.constdata__ZTVSt5ctypeIcE) refers to char.o(i._ZNSt5ctypeIcED1Ev) for std::ctype<char>::~ctype()
    char.o(.constdata__ZTVSt5ctypeIcE) refers to char.o(i._ZNSt5ctypeIcED0Ev) for std::ctype<char>::~ctype__deallocating()
    char.o(.constdata__ZTVSt5ctypeIcE) refers to char.o(i._ZNSt5ctypeIcE12_C_initfacetERKSt6locale) for std::ctype<char>::_C_initfacet(const std::locale&)
    char.o(.constdata__ZTVSt5ctypeIcE) refers to char.o(i._ZNKSt5ctypeIcE10do_toupperEPcPKc) for std::ctype<char>::do_toupper(char*, const char*) const
    char.o(.constdata__ZTVSt5ctypeIcE) refers to char.o(i._ZNKSt5ctypeIcE10do_tolowerEPcPKc) for std::ctype<char>::do_tolower(char*, const char*) const
    char.o(.constdata__ZTVSt5ctypeIcE) refers to char.o(i._ZNKSt5ctypeIcE10do_toupperEc) for std::ctype<char>::do_toupper(char) const
    char.o(.constdata__ZTVSt5ctypeIcE) refers to char.o(i._ZNKSt5ctypeIcE10do_tolowerEc) for std::ctype<char>::do_tolower(char) const
    char.o(.constdata__ZTVSt5ctypeIcE) refers to char.o(i._ZNKSt5ctypeIcE8do_widenEc) for std::ctype<char>::do_widen(char) const
    char.o(.constdata__ZTVSt5ctypeIcE) refers to char.o(i._ZNKSt5ctypeIcE8do_widenEPKcS2_Pc) for std::ctype<char>::do_widen(const char*, const char*, char*) const
    char.o(.constdata__ZTVSt5ctypeIcE) refers to char.o(i._ZNKSt5ctypeIcE9do_narrowEcc) for std::ctype<char>::do_narrow(char, char) const
    char.o(.constdata__ZTVSt5ctypeIcE) refers to char.o(i._ZNKSt5ctypeIcE9do_narrowEPKcS2_cPc) for std::ctype<char>::do_narrow(const char*, const char*, char, char*) const
    char.o(.constdata__ZTVSt7collateIcE) refers to char.o(.constdata__ZTISt7collateIcE) for typeinfo for std::collate<char>
    char.o(.constdata__ZTVSt7collateIcE) refers to char.o(i._ZNSt7collateIcED1Ev) for std::collate<char>::~collate()
    char.o(.constdata__ZTVSt7collateIcE) refers to char.o(i._ZNSt7collateIcED0Ev) for std::collate<char>::~collate__deallocating()
    char.o(.constdata__ZTVSt7collateIcE) refers to char.o(i._ZN4__rw15__rw_facet_base12_C_initfacetERKSt6locale) for __rw::__rw_facet_base::_C_initfacet(const std::locale&)
    char.o(.constdata__ZTVSt7collateIcE) refers to char.o(t._ZNKSt7collateIcE10do_compareEPKcS2_S2_S2_) for std::collate<char>::do_compare(const char*, const char*, const char*, const char*) const
    char.o(.constdata__ZTVSt7collateIcE) refers to char.o(t._ZNKSt7collateIcE12do_transformEPKcS2_) for std::collate<char>::do_transform(const char*, const char*) const
    char.o(.constdata__ZTVSt7collateIcE) refers to char.o(t._ZNKSt7collateIcE7do_hashEPKcS2_) for std::collate<char>::do_hash(const char*, const char*) const
    char.o(.constdata__ZTVSt14collate_bynameIcE) refers to char.o(.constdata__ZTISt14collate_bynameIcE) for typeinfo for std::collate_byname<char>
    char.o(.constdata__ZTVSt14collate_bynameIcE) refers to char.o(i._ZNSt14collate_bynameIcED1Ev) for std::collate_byname<char>::~collate_byname()
    char.o(.constdata__ZTVSt14collate_bynameIcE) refers to char.o(i._ZNSt14collate_bynameIcED0Ev) for std::collate_byname<char>::~collate_byname__deallocating()
    char.o(.constdata__ZTVSt14collate_bynameIcE) refers to char.o(i._ZN4__rw15__rw_facet_base12_C_initfacetERKSt6locale) for __rw::__rw_facet_base::_C_initfacet(const std::locale&)
    char.o(.constdata__ZTVSt14collate_bynameIcE) refers to char.o(i._ZNKSt14collate_bynameIcE10do_compareEPKcS2_S2_S2_) for std::collate_byname<char>::do_compare(const char*, const char*, const char*, const char*) const
    char.o(.constdata__ZTVSt14collate_bynameIcE) refers to char.o(i._ZNKSt14collate_bynameIcE12do_transformEPKcS2_) for std::collate_byname<char>::do_transform(const char*, const char*) const
    char.o(.constdata__ZTVSt14collate_bynameIcE) refers to char.o(t._ZNKSt7collateIcE7do_hashEPKcS2_) for std::collate<char>::do_hash(const char*, const char*) const
    char.o(.constdata__ZTVSt8numpunctIcE) refers to char.o(.constdata__ZTISt8numpunctIcE) for typeinfo for std::numpunct<char>
    char.o(.constdata__ZTVSt8numpunctIcE) refers to char.o(i._ZNSt8numpunctIcED1Ev) for std::numpunct<char>::~numpunct()
    char.o(.constdata__ZTVSt8numpunctIcE) refers to char.o(i._ZNSt8numpunctIcED0Ev) for std::numpunct<char>::~numpunct__deallocating()
    char.o(.constdata__ZTVSt8numpunctIcE) refers to char.o(t._ZNSt8numpunctIcE12_C_initfacetERKSt6locale) for std::numpunct<char>::_C_initfacet(const std::locale&)
    char.o(.constdata__ZTVSt8numpunctIcE) refers to char.o(t._ZNKSt8numpunctIcE16do_decimal_pointEv) for std::numpunct<char>::do_decimal_point() const
    char.o(.constdata__ZTVSt8numpunctIcE) refers to char.o(t._ZNKSt8numpunctIcE16do_thousands_sepEv) for std::numpunct<char>::do_thousands_sep() const
    char.o(.constdata__ZTVSt8numpunctIcE) refers to char.o(t._ZNKSt8numpunctIcE11do_groupingEv) for std::numpunct<char>::do_grouping() const
    char.o(.constdata__ZTVSt8numpunctIcE) refers to char.o(t._ZNKSt8numpunctIcE11do_truenameEv) for std::numpunct<char>::do_truename() const
    char.o(.constdata__ZTVSt8numpunctIcE) refers to char.o(t._ZNKSt8numpunctIcE12do_falsenameEv) for std::numpunct<char>::do_falsename() const
    char.o(t._ZNSs9_C_getRepEjj) refers to rwstdexcept.o(i._ZN4__rw10__rw_throwEiz) for __rw::__rw_throw(int, ...)
    char.o(t._ZNSs9_C_getRepEjj) refers to rwalloc.o(i._ZN4__rw13__rw_allocateEji) for __rw::__rw_allocate(unsigned, int)
    char.o(t._ZNSs9_C_getRepEjj) refers to char.o(.constdata__ZZNSs9_C_getRepEjjEs) for std::basic_string<char, std::char_traits<char>, std::allocator<char>>::_C_getRep(unsigned, unsigned)::string
    char.o(t._ZNSs9_C_getRepEjj) refers to vendor.o(.bss__ZNSs9__nullrefE) for std::basic_string<char, std::char_traits<char>, std::allocator<char>>::__nullref
    char.o(.ARM.exidx) refers to char.o(t._ZNSs9_C_getRepEjj) for t._ZNSs9_C_getRepEjj
    char.o(.ARM.exidx) refers to unwind_pr0.o(.text) for __aeabi_unwind_cpp_pr0
    char.o(t._ZNSsC1ERKSs) refers to char.o(t._ZN4__rw12__string_refIcSt11char_traitsIcESaIcEE10_C_inc_refEv) for __rw::__string_ref<char, std::char_traits<char>, std::allocator<char>>::_C_inc_ref()
    char.o(t._ZNSsC1ERKSs) refers to char.o(t._ZNSs9_C_getRepEjj) for std::basic_string<char, std::char_traits<char>, std::allocator<char>>::_C_getRep(unsigned, unsigned)
    char.o(t._ZNSsC1ERKSs) refers to char.o(i._ZNSt11char_traitsIcE4copyEPcPKcj) for std::char_traits<char>::copy(char*, const char*, unsigned)
    char.o(.ARM.exidx) refers to char.o(t._ZNSsC1ERKSs) for t._ZNSsC1ERKSs
    char.o(.ARM.exidx) refers to unwind_pr0.o(.text) for __aeabi_unwind_cpp_pr0
    char.o(t._ZNSsC1EPKcjRKSaIcE) refers to rwstdexcept.o(i._ZN4__rw10__rw_throwEiz) for __rw::__rw_throw(int, ...)
    char.o(t._ZNSsC1EPKcjRKSaIcE) refers to char.o(t._ZSt3maxIjERKT_S2_S2_) for const T1& std::max<unsigned>(const T1&, const T1&)
    char.o(t._ZNSsC1EPKcjRKSaIcE) refers to char.o(t._ZNSs9_C_getRepEjj) for std::basic_string<char, std::char_traits<char>, std::allocator<char>>::_C_getRep(unsigned, unsigned)
    char.o(t._ZNSsC1EPKcjRKSaIcE) refers to char.o(i._ZNSt11char_traitsIcE4copyEPcPKcj) for std::char_traits<char>::copy(char*, const char*, unsigned)
    char.o(t._ZNSsC1EPKcjRKSaIcE) refers to char.o(.constdata__ZZNSsC1EPKcjRKSaIcEEs) for std::basic_string<char, std::char_traits<char>, std::allocator<char>>::basic_string(const char*, unsigned, const std::allocator<char>&)::string
    char.o(t._ZNSsC1EPKcjRKSaIcE) refers to vendor.o(.bss__ZNSs9__nullrefE) for std::basic_string<char, std::char_traits<char>, std::allocator<char>>::__nullref
    char.o(.ARM.exidx) refers to char.o(t._ZNSsC1EPKcjRKSaIcE) for t._ZNSsC1EPKcjRKSaIcE
    char.o(.ARM.exidx) refers to unwind_pr0.o(.text) for __aeabi_unwind_cpp_pr0
    char.o(t._ZNSs9_C_unlinkEv) refers to rwalloc.o(i._ZN4__rw15__rw_deallocateEPvji) for __rw::__rw_deallocate(void*, unsigned, int)
    char.o(t._ZNSs9_C_unlinkEv) refers to vendor.o(.bss__ZNSs9__nullrefE) for std::basic_string<char, std::char_traits<char>, std::allocator<char>>::__nullref
    char.o(.ARM.exidx) refers to char.o(t._ZNSs9_C_unlinkEv) for t._ZNSs9_C_unlinkEv
    char.o(.ARM.exidx) refers to unwind_pr0.o(.text) for __aeabi_unwind_cpp_pr0
    char.o(t._ZNSs7replaceEjjPKcjjj) refers to rwstdexcept.o(i._ZN4__rw10__rw_throwEiz) for __rw::__rw_throw(int, ...)
    char.o(t._ZNSs7replaceEjjPKcjjj) refers to char.o(t._ZSt3maxIjERKT_S2_S2_) for const T1& std::max<unsigned>(const T1&, const T1&)
    char.o(t._ZNSs7replaceEjjPKcjjj) refers to char.o(t._ZNSs9_C_getRepEjj) for std::basic_string<char, std::char_traits<char>, std::allocator<char>>::_C_getRep(unsigned, unsigned)
    char.o(t._ZNSs7replaceEjjPKcjjj) refers to char.o(i._ZNSt11char_traitsIcE4copyEPcPKcj) for std::char_traits<char>::copy(char*, const char*, unsigned)
    char.o(t._ZNSs7replaceEjjPKcjjj) refers to char.o(t._ZNSs9_C_unlinkEv) for std::basic_string<char, std::char_traits<char>, std::allocator<char>>::_C_unlink()
    char.o(t._ZNSs7replaceEjjPKcjjj) refers to rt_memmove_v6.o(.text) for __aeabi_memmove
    char.o(t._ZNSs7replaceEjjPKcjjj) refers to char.o(.constdata__ZZNSs7replaceEjjPKcjjjEs) for std::basic_string<char, std::char_traits<char>, std::allocator<char>>::replace(unsigned, unsigned, const char*, unsigned, unsigned, unsigned)::string
    char.o(t._ZNSs7replaceEjjPKcjjj) refers to vendor.o(.bss__ZNSs9__nullrefE) for std::basic_string<char, std::char_traits<char>, std::allocator<char>>::__nullref
    char.o(.ARM.exidx) refers to char.o(t._ZNSs7replaceEjjPKcjjj) for t._ZNSs7replaceEjjPKcjjj
    char.o(.ARM.exidx) refers to unwind_pr1.o(.text) for __aeabi_unwind_cpp_pr1
    char.o(.ARM.exidx) refers to char.o(.ARM.extab) for .extab._ZNSs7replaceEjjPKcjjj
    char.o(t._ZNSs5beginEv) refers to char.o(t._ZNSs9_C_getRepEjj) for std::basic_string<char, std::char_traits<char>, std::allocator<char>>::_C_getRep(unsigned, unsigned)
    char.o(t._ZNSs5beginEv) refers to char.o(i._ZNSt11char_traitsIcE4copyEPcPKcj) for std::char_traits<char>::copy(char*, const char*, unsigned)
    char.o(t._ZNSs5beginEv) refers to char.o(t._ZNSs9_C_unlinkEv) for std::basic_string<char, std::char_traits<char>, std::allocator<char>>::_C_unlink()
    char.o(t._ZNSs5beginEv) refers to vendor.o(.bss__ZNSs9__nullrefE) for std::basic_string<char, std::char_traits<char>, std::allocator<char>>::__nullref
    char.o(.ARM.exidx) refers to char.o(t._ZNSs5beginEv) for t._ZNSs5beginEv
    char.o(.ARM.exidx) refers to unwind_pr0.o(.text) for __aeabi_unwind_cpp_pr0
    char.o(i._ZNSt5ctypeIcED1Ev) refers to array_del.o(i._ZdaPv) for operator delete[] (void*)
    char.o(i._ZNSt5ctypeIcED1Ev) refers to char.o(.constdata__ZTVSt5ctypeIcE) for vtable for std::ctype<char>
    char.o(.ARM.exidx) refers to char.o(i._ZNSt5ctypeIcED1Ev) for i._ZNSt5ctypeIcED1Ev
    char.o(.ARM.exidx) refers to char.o(t._ZNK4__rw17__rw_collate_dataIcE13_C_coll_orderEc) for t._ZNK4__rw17__rw_collate_dataIcE13_C_coll_orderEc
    char.o(t._ZNKSt7collateIcE10do_compareEPKcS2_S2_S2_) refers to char.o(t._ZNK4__rw17__rw_collate_dataIcE13_C_coll_orderEc) for __rw::__rw_collate_data<char>::_C_coll_order(char) const
    char.o(.ARM.exidx) refers to char.o(t._ZNKSt7collateIcE10do_compareEPKcS2_S2_S2_) for t._ZNKSt7collateIcE10do_compareEPKcS2_S2_S2_
    char.o(.ARM.exidx) refers to unwind_pr1.o(.text) for __aeabi_unwind_cpp_pr1
    char.o(.ARM.exidx) refers to char.o(.ARM.extab) for .extab._ZNKSt7collateIcE10do_compareEPKcS2_S2_S2_
    char.o(t._ZNKSt7collateIcE12do_transformEPKcS2_) refers to char.o(t._ZNSsC1EPKcjRKSaIcE) for std::basic_string<char, std::char_traits<char>, std::allocator<char>>::basic_string(const char*, unsigned, const std::allocator<char>&)
    char.o(t._ZNKSt7collateIcE12do_transformEPKcS2_) refers to char.o(t._ZNSs5beginEv) for std::basic_string<char, std::char_traits<char>, std::allocator<char>>::begin()
    char.o(t._ZNKSt7collateIcE12do_transformEPKcS2_) refers to char.o(t._ZNK4__rw17__rw_collate_dataIcE13_C_coll_orderEc) for __rw::__rw_collate_data<char>::_C_coll_order(char) const
    char.o(t._ZNKSt7collateIcE12do_transformEPKcS2_.clean) refers to char.o(t._ZNSsD1Ev) for std::basic_string<char, std::char_traits<char>, std::allocator<char>>::~basic_string()
    char.o(t._ZNKSt7collateIcE12do_transformEPKcS2_.clean) refers to arm_exceptions_cleanup.o(.emb_text) for __cxa_end_cleanup
    char.o(.ARM.extab) refers to char.o(t._ZNKSt7collateIcE12do_transformEPKcS2_.clean) for t._ZNKSt7collateIcE12do_transformEPKcS2_.clean
    char.o(.ARM.exidx) refers to char.o(t._ZNKSt7collateIcE12do_transformEPKcS2_) for t._ZNKSt7collateIcE12do_transformEPKcS2_
    char.o(.ARM.exidx) refers to unwind_pr0.o(.text) for __aeabi_unwind_cpp_pr0
    char.o(.ARM.exidx) refers to char.o(.ARM.extab) for .extab._ZNKSt7collateIcE12do_transformEPKcS2_
    char.o(.ARM.exidx) refers to char.o(t._ZNKSt7collateIcE12do_transformEPKcS2_.clean) for t._ZNKSt7collateIcE12do_transformEPKcS2_.clean
    char.o(t._ZNKSt7collateIcE7do_hashEPKcS2_) refers to char.o(t._ZNSsD1Ev) for std::basic_string<char, std::char_traits<char>, std::allocator<char>>::~basic_string()
    char.o(t._ZNKSt7collateIcE7do_hashEPKcS2_.clean) refers to arm_exceptions_cleanup.o(.emb_text) for __cxa_end_cleanup
    char.o(.ARM.exidx) refers to char.o(t._ZNKSt7collateIcE7do_hashEPKcS2_) for t._ZNKSt7collateIcE7do_hashEPKcS2_
    char.o(.ARM.exidx) refers to unwind_pr0.o(.text) for __aeabi_unwind_cpp_pr0
    char.o(.ARM.exidx) refers to char.o(t._ZNKSt7collateIcE7do_hashEPKcS2_.clean) for t._ZNKSt7collateIcE7do_hashEPKcS2_.clean
    char.o(.ARM.exidx) refers to char.o(i._ZNSt7collateIcED1Ev) for i._ZNSt7collateIcED1Ev
    char.o(i._ZNSt14collate_bynameIcED1Ev) refers to char.o(t._ZNSsD1Ev) for std::basic_string<char, std::char_traits<char>, std::allocator<char>>::~basic_string()
    char.o(i._ZNSt14collate_bynameIcED1Ev) refers to char.o(i._ZNSt7collateIcED1Ev) for std::collate<char>::~collate()
    char.o(i._ZNSt14collate_bynameIcED1Ev) refers to char.o(.constdata__ZTVSt14collate_bynameIcE) for vtable for std::collate_byname<char>
    char.o(.ARM.exidx) refers to char.o(i._ZNSt14collate_bynameIcED1Ev) for i._ZNSt14collate_bynameIcED1Ev
    char.o(t._ZNSt8numpunctIcE12_C_initfacetERKSt6locale) refers to locale.o(t._ZNSsaSERKSs) for std::basic_string<char, std::char_traits<char>, std::allocator<char>>::operator =(const std::basic_string<char, std::char_traits<char>, std::allocator<char>>&)
    char.o(t._ZNSt8numpunctIcE12_C_initfacetERKSt6locale) refers to char.o(t._ZNSsD1Ev) for std::basic_string<char, std::char_traits<char>, std::allocator<char>>::~basic_string()
    char.o(t._ZNSt8numpunctIcE12_C_initfacetERKSt6locale.clean) refers to char.o(t._ZNSsD1Ev) for std::basic_string<char, std::char_traits<char>, std::allocator<char>>::~basic_string()
    char.o(t._ZNSt8numpunctIcE12_C_initfacetERKSt6locale.clean) refers to arm_exceptions_cleanup.o(.emb_text) for __cxa_end_cleanup
    char.o(.ARM.extab) refers to char.o(t._ZNSt8numpunctIcE12_C_initfacetERKSt6locale.clean) for t._ZNSt8numpunctIcE12_C_initfacetERKSt6locale.clean
    char.o(.ARM.exidx) refers to char.o(t._ZNSt8numpunctIcE12_C_initfacetERKSt6locale) for t._ZNSt8numpunctIcE12_C_initfacetERKSt6locale
    char.o(.ARM.exidx) refers to unwind_pr0.o(.text) for __aeabi_unwind_cpp_pr0
    char.o(.ARM.exidx) refers to char.o(.ARM.extab) for .extab._ZNSt8numpunctIcE12_C_initfacetERKSt6locale
    char.o(.ARM.exidx) refers to char.o(t._ZNSt8numpunctIcE12_C_initfacetERKSt6locale.clean) for t._ZNSt8numpunctIcE12_C_initfacetERKSt6locale.clean
    char.o(i._ZNSt8numpunctIcED1Ev) refers to char.o(i._ZN4__rw18__rw_numpunct_implIcED1Ev) for __rw::__rw_numpunct_impl<char>::~__rw_numpunct_impl()
    char.o(.ARM.exidx) refers to char.o(i._ZNSt8numpunctIcED1Ev) for i._ZNSt8numpunctIcED1Ev
    char.o(.ARM.exidx) refers to char.o(i._ZnwjPv) for i._ZnwjPv
    char.o(i._ZNSt11char_traitsIcE4copyEPcPKcj) refers to rt_memcpy_v6.o(.text) for __aeabi_memcpy
    char.o(.ARM.exidx) refers to char.o(i._ZNSt11char_traitsIcE4copyEPcPKcj) for i._ZNSt11char_traitsIcE4copyEPcPKcj
    char.o(.ARM.exidx) refers to char.o(t._ZNSaIcEC1Ev) for t._ZNSaIcEC1Ev
    char.o(.ARM.exidx) refers to char.o(t._ZNSaIcEC1ERKS_) for t._ZNSaIcEC1ERKS_
    char.o(t._ZN4__rw12__string_refIcSt11char_traitsIcESaIcEE10_C_inc_refEv) refers to vendor.o(.bss__ZNSs9__nullrefE) for std::basic_string<char, std::char_traits<char>, std::allocator<char>>::__nullref
    char.o(.ARM.exidx) refers to char.o(t._ZN4__rw12__string_refIcSt11char_traitsIcESaIcEE10_C_inc_refEv) for t._ZN4__rw12__string_refIcSt11char_traitsIcESaIcEE10_C_inc_refEv
    char.o(.ARM.exidx) refers to char.o(t._ZSt3maxIjERKT_S2_S2_) for t._ZSt3maxIjERKT_S2_S2_
    char.o(.ARM.exidx) refers to char.o(t._ZNSaIN4__rw12__string_refIcSt11char_traitsIcESaIcEEEEC1IcEERKSaIT_E) for t._ZNSaIN4__rw12__string_refIcSt11char_traitsIcESaIcEEEEC1IcEERKSaIT_E
    char.o(t._ZNSsD1Ev) refers to char.o(t._ZNSs9_C_unlinkEv) for std::basic_string<char, std::char_traits<char>, std::allocator<char>>::_C_unlink()
    char.o(.ARM.extab) refers to arm_callunex_noexceptions.o(.text) for __cxa_call_unexpected
    char.o(.ARM.exidx) refers to char.o(t._ZNSsD1Ev) for t._ZNSsD1Ev
    char.o(.ARM.exidx) refers to unwind_pr0.o(.text) for __aeabi_unwind_cpp_pr0
    char.o(.ARM.exidx) refers to char.o(.ARM.extab) for .extab._ZNSsD1Ev
    char.o(.ARM.exidx) refers to char.o(i._ZNSt6locale5facetD1Ev) for i._ZNSt6locale5facetD1Ev
    char.o(.ARM.exidx) refers to char.o(i._ZNKSt5ctypeIcE2isENSt10ctype_base4maskEc) for i._ZNKSt5ctypeIcE2isENSt10ctype_base4maskEc
    char.o(i._ZNSt5ctypeIcED0Ev) refers to char.o(i._ZNSt5ctypeIcED1Ev) for std::ctype<char>::~ctype()
    char.o(i._ZNSt5ctypeIcED0Ev) refers to delete.o(i._ZdlPv) for operator delete (void*)
    char.o(.ARM.exidx) refers to char.o(i._ZNSt5ctypeIcED0Ev) for i._ZNSt5ctypeIcED0Ev
    char.o(i._ZNKSt5ctypeIcE10do_toupperEPcPKc) refers to char.o(i._ZNKSt5ctypeIcE2isENSt10ctype_base4maskEc) for std::ctype<char>::is(std::ctype_base::mask, char) const
    char.o(.ARM.exidx) refers to char.o(i._ZNKSt5ctypeIcE10do_toupperEPcPKc) for i._ZNKSt5ctypeIcE10do_toupperEPcPKc
    char.o(.ARM.exidx) refers to unwind_pr0.o(.text) for __aeabi_unwind_cpp_pr0
    char.o(i._ZNKSt5ctypeIcE10do_tolowerEPcPKc) refers to char.o(i._ZNKSt5ctypeIcE2isENSt10ctype_base4maskEc) for std::ctype<char>::is(std::ctype_base::mask, char) const
    char.o(.ARM.exidx) refers to char.o(i._ZNKSt5ctypeIcE10do_tolowerEPcPKc) for i._ZNKSt5ctypeIcE10do_tolowerEPcPKc
    char.o(.ARM.exidx) refers to unwind_pr0.o(.text) for __aeabi_unwind_cpp_pr0
    char.o(i._ZNKSt5ctypeIcE10do_toupperEc) refers to char.o(i._ZNKSt5ctypeIcE2isENSt10ctype_base4maskEc) for std::ctype<char>::is(std::ctype_base::mask, char) const
    char.o(.ARM.exidx) refers to char.o(i._ZNKSt5ctypeIcE10do_toupperEc) for i._ZNKSt5ctypeIcE10do_toupperEc
    char.o(.ARM.exidx) refers to unwind_pr0.o(.text) for __aeabi_unwind_cpp_pr0
    char.o(i._ZNKSt5ctypeIcE10do_tolowerEc) refers to char.o(i._ZNKSt5ctypeIcE2isENSt10ctype_base4maskEc) for std::ctype<char>::is(std::ctype_base::mask, char) const
    char.o(.ARM.exidx) refers to char.o(i._ZNKSt5ctypeIcE10do_tolowerEc) for i._ZNKSt5ctypeIcE10do_tolowerEc
    char.o(.ARM.exidx) refers to unwind_pr0.o(.text) for __aeabi_unwind_cpp_pr0
    char.o(.ARM.exidx) refers to char.o(i._ZNKSt5ctypeIcE8do_widenEc) for i._ZNKSt5ctypeIcE8do_widenEc
    char.o(i._ZNKSt5ctypeIcE8do_widenEPKcS2_Pc) refers to rt_memcpy_v6.o(.text) for __aeabi_memcpy
    char.o(.ARM.exidx) refers to char.o(i._ZNKSt5ctypeIcE8do_widenEPKcS2_Pc) for i._ZNKSt5ctypeIcE8do_widenEPKcS2_Pc
    char.o(.ARM.exidx) refers to char.o(i._ZNKSt5ctypeIcE9do_narrowEcc) for i._ZNKSt5ctypeIcE9do_narrowEcc
    char.o(i._ZNKSt5ctypeIcE9do_narrowEPKcS2_cPc) refers to rt_memcpy_v6.o(.text) for __aeabi_memcpy
    char.o(.ARM.exidx) refers to char.o(i._ZNKSt5ctypeIcE9do_narrowEPKcS2_cPc) for i._ZNKSt5ctypeIcE9do_narrowEPKcS2_cPc
    char.o(i._ZN4__rw21__rw_use_c_lib_localeD1Ev) refers to locale.o(.text) for setlocale
    char.o(i._ZN4__rw21__rw_use_c_lib_localeD1Ev) refers to array_del.o(i._ZdaPv) for operator delete[] (void*)
    char.o(.ARM.exidx) refers to char.o(i._ZN4__rw21__rw_use_c_lib_localeD1Ev) for i._ZN4__rw21__rw_use_c_lib_localeD1Ev
    char.o(i._ZNSt7collateIcED0Ev) refers to char.o(i._ZNSt7collateIcED1Ev) for std::collate<char>::~collate()
    char.o(i._ZNSt7collateIcED0Ev) refers to delete.o(i._ZdlPv) for operator delete (void*)
    char.o(.ARM.exidx) refers to char.o(i._ZNSt7collateIcED0Ev) for i._ZNSt7collateIcED0Ev
    char.o(i._ZNSt14collate_bynameIcED0Ev) refers to char.o(i._ZNSt14collate_bynameIcED1Ev) for std::collate_byname<char>::~collate_byname()
    char.o(i._ZNSt14collate_bynameIcED0Ev) refers to delete.o(i._ZdlPv) for operator delete (void*)
    char.o(.ARM.exidx) refers to char.o(i._ZNSt14collate_bynameIcED0Ev) for i._ZNSt14collate_bynameIcED0Ev
    char.o(.ARM.exidx) refers to char.o(t._ZNKSt8numpunctIcE16do_decimal_pointEv) for t._ZNKSt8numpunctIcE16do_decimal_pointEv
    char.o(.ARM.exidx) refers to char.o(t._ZNKSt8numpunctIcE16do_thousands_sepEv) for t._ZNKSt8numpunctIcE16do_thousands_sepEv
    char.o(t._ZNKSt8numpunctIcE11do_groupingEv) refers to char.o(t._ZNSsC1ERKSs) for std::basic_string<char, std::char_traits<char>, std::allocator<char>>::basic_string(const std::basic_string<char, std::char_traits<char>, std::allocator<char>>&)
    char.o(.ARM.exidx) refers to char.o(t._ZNKSt8numpunctIcE11do_groupingEv) for t._ZNKSt8numpunctIcE11do_groupingEv
    char.o(t._ZNKSt8numpunctIcE11do_truenameEv) refers to char.o(t._ZNSsC1ERKSs) for std::basic_string<char, std::char_traits<char>, std::allocator<char>>::basic_string(const std::basic_string<char, std::char_traits<char>, std::allocator<char>>&)
    char.o(.ARM.exidx) refers to char.o(t._ZNKSt8numpunctIcE11do_truenameEv) for t._ZNKSt8numpunctIcE11do_truenameEv
    char.o(t._ZNKSt8numpunctIcE12do_falsenameEv) refers to char.o(t._ZNSsC1ERKSs) for std::basic_string<char, std::char_traits<char>, std::allocator<char>>::basic_string(const std::basic_string<char, std::char_traits<char>, std::allocator<char>>&)
    char.o(.ARM.exidx) refers to char.o(t._ZNKSt8numpunctIcE12do_falsenameEv) for t._ZNKSt8numpunctIcE12do_falsenameEv
    char.o(i._ZN4__rw18__rw_numpunct_implIcED1Ev) refers to char.o(i._ZN4__rw23__rw_numpunct_impl_dataIcED1Ev) for __rw::__rw_numpunct_impl_data<char>::~__rw_numpunct_impl_data()
    char.o(.ARM.exidx) refers to char.o(i._ZN4__rw18__rw_numpunct_implIcED1Ev) for i._ZN4__rw18__rw_numpunct_implIcED1Ev
    char.o(i._ZNSt8numpunctIcED0Ev) refers to char.o(i._ZNSt8numpunctIcED1Ev) for std::numpunct<char>::~numpunct()
    char.o(i._ZNSt8numpunctIcED0Ev) refers to delete.o(i._ZdlPv) for operator delete (void*)
    char.o(.ARM.exidx) refers to char.o(i._ZNSt8numpunctIcED0Ev) for i._ZNSt8numpunctIcED0Ev
    char.o(.ARM.exidx) refers to char.o(i._ZN4__rw15__rw_facet_base12_C_initfacetERKSt6locale) for i._ZN4__rw15__rw_facet_base12_C_initfacetERKSt6locale
    char.o(i._ZN4__rw23__rw_numpunct_impl_dataIcED1Ev) refers to char.o(t._ZNSsD1Ev) for std::basic_string<char, std::char_traits<char>, std::allocator<char>>::~basic_string()
    char.o(i._ZN4__rw23__rw_numpunct_impl_dataIcED1Ev) refers to char.o(i._ZN4__rw15__rw_punct_dataIcED1Ev) for __rw::__rw_punct_data<char>::~__rw_punct_data()
    char.o(.ARM.exidx) refers to char.o(i._ZN4__rw23__rw_numpunct_impl_dataIcED1Ev) for i._ZN4__rw23__rw_numpunct_impl_dataIcED1Ev
    char.o(i._ZN4__rw15__rw_punct_dataIcED1Ev) refers to char.o(t._ZNSsD1Ev) for std::basic_string<char, std::char_traits<char>, std::allocator<char>>::~basic_string()
    char.o(.ARM.exidx) refers to char.o(i._ZN4__rw15__rw_punct_dataIcED1Ev) for i._ZN4__rw15__rw_punct_dataIcED1Ev
    char.o(.constdata__ZTISt5ctypeIcE) refers to lib_rtti_impl.o(.constdata__ZTVN10__cxxabiv121__vmi_class_type_infoE) for vtable for __cxxabiv1::__vmi_class_type_info
    char.o(.constdata__ZTISt5ctypeIcE) refers to char.o(.constdata__ZTSSt5ctypeIcE) for typeinfo name for std::ctype<char>
    char.o(.constdata__ZTISt5ctypeIcE) refers to char.o(.constdata__ZTINSt6locale5facetE) for typeinfo for std::locale::facet
    char.o(.constdata__ZTISt5ctypeIcE) refers to char.o(.constdata__ZTISt10ctype_base) for typeinfo for std::ctype_base
    char.o(.constdata__ZTISt5ctypeIcE) refers to char.o(.constdata__ZTIN4__rw17__rw_ctype_helperIcEE) for typeinfo for __rw::__rw_ctype_helper<char>
    char.o(.constdata__ZTVSt12ctype_bynameIcE) refers to char.o(.constdata__ZTISt12ctype_bynameIcE) for typeinfo for std::ctype_byname<char>
    char.o(.constdata__ZTVSt12ctype_bynameIcE) refers to char.o(i._ZNSt12ctype_bynameIcED1Ev) for std::ctype_byname<char>::~ctype_byname()
    char.o(.constdata__ZTVSt12ctype_bynameIcE) refers to char.o(i._ZNSt12ctype_bynameIcED0Ev) for std::ctype_byname<char>::~ctype_byname__deallocating()
    char.o(.constdata__ZTVSt12ctype_bynameIcE) refers to char.o(i._ZNSt5ctypeIcE12_C_initfacetERKSt6locale) for std::ctype<char>::_C_initfacet(const std::locale&)
    char.o(.constdata__ZTVSt12ctype_bynameIcE) refers to char.o(i._ZNKSt5ctypeIcE10do_toupperEPcPKc) for std::ctype<char>::do_toupper(char*, const char*) const
    char.o(.constdata__ZTVSt12ctype_bynameIcE) refers to char.o(i._ZNKSt5ctypeIcE10do_tolowerEPcPKc) for std::ctype<char>::do_tolower(char*, const char*) const
    char.o(.constdata__ZTVSt12ctype_bynameIcE) refers to char.o(i._ZNKSt5ctypeIcE10do_toupperEc) for std::ctype<char>::do_toupper(char) const
    char.o(.constdata__ZTVSt12ctype_bynameIcE) refers to char.o(i._ZNKSt5ctypeIcE10do_tolowerEc) for std::ctype<char>::do_tolower(char) const
    char.o(.constdata__ZTVSt12ctype_bynameIcE) refers to char.o(i._ZNKSt5ctypeIcE8do_widenEc) for std::ctype<char>::do_widen(char) const
    char.o(.constdata__ZTVSt12ctype_bynameIcE) refers to char.o(i._ZNKSt5ctypeIcE8do_widenEPKcS2_Pc) for std::ctype<char>::do_widen(const char*, const char*, char*) const
    char.o(.constdata__ZTVSt12ctype_bynameIcE) refers to char.o(i._ZNKSt5ctypeIcE9do_narrowEcc) for std::ctype<char>::do_narrow(char, char) const
    char.o(.constdata__ZTVSt12ctype_bynameIcE) refers to char.o(i._ZNKSt5ctypeIcE9do_narrowEPKcS2_cPc) for std::ctype<char>::do_narrow(const char*, const char*, char, char*) const
    char.o(.constdata__ZTISt7collateIcE) refers to lib_rtti_impl.o(.constdata__ZTVN10__cxxabiv121__vmi_class_type_infoE) for vtable for __cxxabiv1::__vmi_class_type_info
    char.o(.constdata__ZTISt7collateIcE) refers to char.o(.constdata__ZTSSt7collateIcE) for typeinfo name for std::collate<char>
    char.o(.constdata__ZTISt7collateIcE) refers to char.o(.constdata__ZTINSt6locale5facetE) for typeinfo for std::locale::facet
    char.o(.constdata__ZTISt7collateIcE) refers to char.o(.constdata__ZTIN4__rw17__rw_collate_implIcEE) for typeinfo for __rw::__rw_collate_impl<char>
    char.o(.constdata__ZTISt8numpunctIcE) refers to lib_rtti_impl.o(.constdata__ZTVN10__cxxabiv121__vmi_class_type_infoE) for vtable for __cxxabiv1::__vmi_class_type_info
    char.o(.constdata__ZTISt8numpunctIcE) refers to char.o(.constdata__ZTSSt8numpunctIcE) for typeinfo name for std::numpunct<char>
    char.o(.constdata__ZTISt8numpunctIcE) refers to char.o(.constdata__ZTINSt6locale5facetE) for typeinfo for std::locale::facet
    char.o(.constdata__ZTISt8numpunctIcE) refers to char.o(.constdata__ZTIN4__rw18__rw_numpunct_implIcEE) for typeinfo for __rw::__rw_numpunct_impl<char>
    char.o(.constdata__ZTISt14collate_bynameIcE) refers to lib_rtti_impl.o(.constdata__ZTVN10__cxxabiv120__si_class_type_infoE) for vtable for __cxxabiv1::__si_class_type_info
    char.o(.constdata__ZTISt14collate_bynameIcE) refers to char.o(.constdata__ZTSSt14collate_bynameIcE) for typeinfo name for std::collate_byname<char>
    char.o(.constdata__ZTISt14collate_bynameIcE) refers to char.o(.constdata__ZTISt7collateIcE) for typeinfo for std::collate<char>
    char.o(.constdata__ZTINSt6locale5facetE) refers to lib_rtti_impl.o(.constdata__ZTVN10__cxxabiv120__si_class_type_infoE) for vtable for __cxxabiv1::__si_class_type_info
    char.o(.constdata__ZTINSt6locale5facetE) refers to char.o(.constdata__ZTSNSt6locale5facetE) for typeinfo name for std::locale::facet
    char.o(.constdata__ZTINSt6locale5facetE) refers to char.o(.constdata__ZTIN4__rw15__rw_facet_baseE) for typeinfo for __rw::__rw_facet_base
    char.o(.constdata__ZTISt12ctype_bynameIcE) refers to lib_rtti_impl.o(.constdata__ZTVN10__cxxabiv120__si_class_type_infoE) for vtable for __cxxabiv1::__si_class_type_info
    char.o(.constdata__ZTISt12ctype_bynameIcE) refers to char.o(.constdata__ZTSSt12ctype_bynameIcE) for typeinfo name for std::ctype_byname<char>
    char.o(.constdata__ZTISt12ctype_bynameIcE) refers to char.o(.constdata__ZTISt5ctypeIcE) for typeinfo for std::ctype<char>
    char.o(.constdata__ZTISt10ctype_base) refers to lib_rtti_impl.o(.constdata__ZTVN10__cxxabiv117__class_type_infoE) for vtable for __cxxabiv1::__class_type_info
    char.o(.constdata__ZTISt10ctype_base) refers to char.o(.constdata__ZTSSt10ctype_base) for typeinfo name for std::ctype_base
    char.o(.constdata__ZTIN4__rw17__rw_ctype_helperIcEE) refers to lib_rtti_impl.o(.constdata__ZTVN10__cxxabiv117__class_type_infoE) for vtable for __cxxabiv1::__class_type_info
    char.o(.constdata__ZTIN4__rw17__rw_ctype_helperIcEE) refers to char.o(.constdata__ZTSN4__rw17__rw_ctype_helperIcEE) for typeinfo name for __rw::__rw_ctype_helper<char>
    char.o(.constdata__ZTIN4__rw17__rw_collate_implIcEE) refers to lib_rtti_impl.o(.constdata__ZTVN10__cxxabiv120__si_class_type_infoE) for vtable for __cxxabiv1::__si_class_type_info
    char.o(.constdata__ZTIN4__rw17__rw_collate_implIcEE) refers to char.o(.constdata__ZTSN4__rw17__rw_collate_implIcEE) for typeinfo name for __rw::__rw_collate_impl<char>
    char.o(.constdata__ZTIN4__rw17__rw_collate_implIcEE) refers to char.o(.constdata__ZTIN4__rw17__rw_collate_dataIcEE) for typeinfo for __rw::__rw_collate_data<char>
    char.o(.constdata__ZTIN4__rw18__rw_numpunct_implIcEE) refers to lib_rtti_impl.o(.constdata__ZTVN10__cxxabiv120__si_class_type_infoE) for vtable for __cxxabiv1::__si_class_type_info
    char.o(.constdata__ZTIN4__rw18__rw_numpunct_implIcEE) refers to char.o(.constdata__ZTSN4__rw18__rw_numpunct_implIcEE) for typeinfo name for __rw::__rw_numpunct_impl<char>
    char.o(.constdata__ZTIN4__rw18__rw_numpunct_implIcEE) refers to char.o(.constdata__ZTIN4__rw23__rw_numpunct_impl_dataIcEE) for typeinfo for __rw::__rw_numpunct_impl_data<char>
    char.o(.constdata__ZTIN4__rw15__rw_facet_baseE) refers to lib_rtti_impl.o(.constdata__ZTVN10__cxxabiv120__si_class_type_infoE) for vtable for __cxxabiv1::__si_class_type_info
    char.o(.constdata__ZTIN4__rw15__rw_facet_baseE) refers to char.o(.constdata__ZTSN4__rw15__rw_facet_baseE) for typeinfo name for __rw::__rw_facet_base
    char.o(.constdata__ZTIN4__rw15__rw_facet_baseE) refers to char.o(.constdata__ZTIN4__rw17__rw_synchronizedE) for typeinfo for __rw::__rw_synchronized
    char.o(.constdata__ZTIN4__rw17__rw_collate_dataIcEE) refers to lib_rtti_impl.o(.constdata__ZTVN10__cxxabiv117__class_type_infoE) for vtable for __cxxabiv1::__class_type_info
    char.o(.constdata__ZTIN4__rw17__rw_collate_dataIcEE) refers to char.o(.constdata__ZTSN4__rw17__rw_collate_dataIcEE) for typeinfo name for __rw::__rw_collate_data<char>
    char.o(.constdata__ZTIN4__rw23__rw_numpunct_impl_dataIcEE) refers to lib_rtti_impl.o(.constdata__ZTVN10__cxxabiv121__vmi_class_type_infoE) for vtable for __cxxabiv1::__vmi_class_type_info
    char.o(.constdata__ZTIN4__rw23__rw_numpunct_impl_dataIcEE) refers to char.o(.constdata__ZTSN4__rw23__rw_numpunct_impl_dataIcEE) for typeinfo name for __rw::__rw_numpunct_impl_data<char>
    char.o(.constdata__ZTIN4__rw23__rw_numpunct_impl_dataIcEE) refers to char.o(.constdata__ZTIN4__rw23__rw_numpunct_impl_baseE) for typeinfo for __rw::__rw_numpunct_impl_base
    char.o(.constdata__ZTIN4__rw23__rw_numpunct_impl_dataIcEE) refers to char.o(.constdata__ZTIN4__rw15__rw_punct_dataIcEE) for typeinfo for __rw::__rw_punct_data<char>
    char.o(.constdata__ZTIN4__rw17__rw_synchronizedE) refers to lib_rtti_impl.o(.constdata__ZTVN10__cxxabiv117__class_type_infoE) for vtable for __cxxabiv1::__class_type_info
    char.o(.constdata__ZTIN4__rw17__rw_synchronizedE) refers to char.o(.constdata__ZTSN4__rw17__rw_synchronizedE) for typeinfo name for __rw::__rw_synchronized
    char.o(.constdata__ZTIN4__rw23__rw_numpunct_impl_baseE) refers to lib_rtti_impl.o(.constdata__ZTVN10__cxxabiv117__class_type_infoE) for vtable for __cxxabiv1::__class_type_info
    char.o(.constdata__ZTIN4__rw23__rw_numpunct_impl_baseE) refers to char.o(.constdata__ZTSN4__rw23__rw_numpunct_impl_baseE) for typeinfo name for __rw::__rw_numpunct_impl_base
    char.o(.constdata__ZTIN4__rw15__rw_punct_dataIcEE) refers to lib_rtti_impl.o(.constdata__ZTVN10__cxxabiv117__class_type_infoE) for vtable for __cxxabiv1::__class_type_info
    char.o(.constdata__ZTIN4__rw15__rw_punct_dataIcEE) refers to char.o(.constdata__ZTSN4__rw15__rw_punct_dataIcEE) for typeinfo name for __rw::__rw_punct_data<char>
    char.o(i._ZNSt12ctype_bynameIcED1Ev) refers to char.o(i._ZNSt5ctypeIcED1Ev) for std::ctype<char>::~ctype()
    char.o(.ARM.exidx) refers to char.o(i._ZNSt12ctype_bynameIcED1Ev) for i._ZNSt12ctype_bynameIcED1Ev
    char.o(i._ZNSt12ctype_bynameIcED0Ev) refers to char.o(i._ZNSt12ctype_bynameIcED1Ev) for std::ctype_byname<char>::~ctype_byname()
    char.o(i._ZNSt12ctype_bynameIcED0Ev) refers to delete.o(i._ZdlPv) for operator delete (void*)
    char.o(.ARM.exidx) refers to char.o(i._ZNSt12ctype_bynameIcED0Ev) for i._ZNSt12ctype_bynameIcED0Ev
    char.o(i.__ARM_common_noexcept_landing) refers to arm_exceptions_callterm.o(.text) for __cxa_call_terminate
    char.o(.ARM.exidx) refers to char.o(i.__ARM_common_noexcept_landing) for i.__ARM_common_noexcept_landing
    locale.o(.constdata__ZTVSt14codecvt_bynameIwcSt11__mbstate_tE) refers to locale.o(.constdata__ZTISt14codecvt_bynameIwcSt11__mbstate_tE) for typeinfo for std::codecvt_byname<wchar_t, char, std::__mbstate_t>
    locale.o(.constdata__ZTVSt14codecvt_bynameIwcSt11__mbstate_tE) refers to locale.o(i._ZNSt14codecvt_bynameIwcSt11__mbstate_tED1Ev) for std::codecvt_byname<wchar_t, char, std::__mbstate_t>::~codecvt_byname()
    locale.o(.constdata__ZTVSt14codecvt_bynameIwcSt11__mbstate_tE) refers to locale.o(i._ZNSt14codecvt_bynameIwcSt11__mbstate_tED0Ev) for std::codecvt_byname<wchar_t, char, std::__mbstate_t>::~codecvt_byname__deallocating()
    locale.o(.constdata__ZTVSt14codecvt_bynameIwcSt11__mbstate_tE) refers to char.o(i._ZN4__rw15__rw_facet_base12_C_initfacetERKSt6locale) for __rw::__rw_facet_base::_C_initfacet(const std::locale&)
    locale.o(.constdata__ZTVSt14codecvt_bynameIwcSt11__mbstate_tE) refers to locale.o(i._ZNKSt14codecvt_bynameIwcSt11__mbstate_tE6do_outERS0_PKwS4_RS4_PcS6_RS6_) for std::codecvt_byname<wchar_t, char, std::__mbstate_t>::do_out(std::__mbstate_t&, const wchar_t*, const wchar_t*, const wchar_t*&, char*, char*, char*&) const
    locale.o(.constdata__ZTVSt14codecvt_bynameIwcSt11__mbstate_tE) refers to locale.o(i._ZNKSt14codecvt_bynameIwcSt11__mbstate_tE5do_inERS0_PKcS4_RS4_PwS6_RS6_) for std::codecvt_byname<wchar_t, char, std::__mbstate_t>::do_in(std::__mbstate_t&, const char*, const char*, const char*&, wchar_t*, wchar_t*, wchar_t*&) const
    locale.o(.constdata__ZTVSt14codecvt_bynameIwcSt11__mbstate_tE) refers to locale.o(i._ZNKSt14codecvt_bynameIwcSt11__mbstate_tE10do_unshiftERS0_PcS3_RS3_) for std::codecvt_byname<wchar_t, char, std::__mbstate_t>::do_unshift(std::__mbstate_t&, char*, char*, char*&) const
    locale.o(.constdata__ZTVSt14codecvt_bynameIwcSt11__mbstate_tE) refers to locale.o(i._ZNKSt14codecvt_bynameIwcSt11__mbstate_tE16do_always_noconvEv) for std::codecvt_byname<wchar_t, char, std::__mbstate_t>::do_always_noconv() const
    locale.o(.constdata__ZTVSt14codecvt_bynameIwcSt11__mbstate_tE) refers to locale.o(i._ZNKSt14codecvt_bynameIwcSt11__mbstate_tE11do_encodingEv) for std::codecvt_byname<wchar_t, char, std::__mbstate_t>::do_encoding() const
    locale.o(.constdata__ZTVSt14codecvt_bynameIwcSt11__mbstate_tE) refers to locale.o(i._ZNKSt7codecvtIwcSt11__mbstate_tE9do_lengthERKS0_PKcS5_j) for std::codecvt<wchar_t, char, std::__mbstate_t>::do_length(const std::__mbstate_t&, const char*, const char*, unsigned) const
    locale.o(.constdata__ZTVSt14codecvt_bynameIwcSt11__mbstate_tE) refers to locale.o(i._ZNKSt14codecvt_bynameIwcSt11__mbstate_tE13do_max_lengthEv) for std::codecvt_byname<wchar_t, char, std::__mbstate_t>::do_max_length() const
    locale.o(t._ZNSs11_C_allocateEjjj) refers to char.o(t._ZSt3maxIjERKT_S2_S2_) for const T1& std::max<unsigned>(const T1&, const T1&)
    locale.o(t._ZNSs11_C_allocateEjjj) refers to char.o(t._ZNSs9_C_getRepEjj) for std::basic_string<char, std::char_traits<char>, std::allocator<char>>::_C_getRep(unsigned, unsigned)
    locale.o(.ARM.exidx) refers to locale.o(t._ZNSs11_C_allocateEjjj) for t._ZNSs11_C_allocateEjjj
    locale.o(.ARM.exidx) refers to unwind_pr0.o(.text) for __aeabi_unwind_cpp_pr0
    locale.o(t._ZNSsC1EPKcRKSaIcE) refers to strlen.o(.text) for strlen
    locale.o(t._ZNSsC1EPKcRKSaIcE) refers to locale.o(t._ZNSs11_C_allocateEjjj) for std::basic_string<char, std::char_traits<char>, std::allocator<char>>::_C_allocate(unsigned, unsigned, unsigned)
    locale.o(t._ZNSsC1EPKcRKSaIcE) refers to char.o(i._ZNSt11char_traitsIcE4copyEPcPKcj) for std::char_traits<char>::copy(char*, const char*, unsigned)
    locale.o(t._ZNSsC1EPKcRKSaIcE) refers to vendor.o(.bss__ZNSs9__nullrefE) for std::basic_string<char, std::char_traits<char>, std::allocator<char>>::__nullref
    locale.o(.ARM.exidx) refers to locale.o(t._ZNSsC1EPKcRKSaIcE) for t._ZNSsC1EPKcRKSaIcE
    locale.o(.ARM.exidx) refers to unwind_pr0.o(.text) for __aeabi_unwind_cpp_pr0
    locale.o(t._ZNSsaSERKSs) refers to char.o(t._ZN4__rw12__string_refIcSt11char_traitsIcESaIcEE10_C_inc_refEv) for __rw::__string_ref<char, std::char_traits<char>, std::allocator<char>>::_C_inc_ref()
    locale.o(t._ZNSsaSERKSs) refers to char.o(t._ZNSs9_C_unlinkEv) for std::basic_string<char, std::char_traits<char>, std::allocator<char>>::_C_unlink()
    locale.o(t._ZNSsaSERKSs) refers to locale.o(t._ZNSs7replaceEjjPKcj) for std::basic_string<char, std::char_traits<char>, std::allocator<char>>::replace(unsigned, unsigned, const char*, unsigned)
    locale.o(.ARM.exidx) refers to locale.o(t._ZNSsaSERKSs) for t._ZNSsaSERKSs
    locale.o(.ARM.exidx) refers to unwind_pr0.o(.text) for __aeabi_unwind_cpp_pr0
    locale.o(t._ZNSsaSEPKc) refers to strlen.o(.text) for strlen
    locale.o(t._ZNSsaSEPKc) refers to locale.o(t._ZNSs7replaceEjjPKcj) for std::basic_string<char, std::char_traits<char>, std::allocator<char>>::replace(unsigned, unsigned, const char*, unsigned)
    locale.o(t._ZNSsaSEPKc) refers to char.o(t._ZNSs9_C_unlinkEv) for std::basic_string<char, std::char_traits<char>, std::allocator<char>>::_C_unlink()
    locale.o(t._ZNSsaSEPKc) refers to vendor.o(.bss__ZNSs9__nullrefE) for std::basic_string<char, std::char_traits<char>, std::allocator<char>>::__nullref
    locale.o(.ARM.exidx) refers to locale.o(t._ZNSsaSEPKc) for t._ZNSsaSEPKc
    locale.o(.ARM.exidx) refers to unwind_pr0.o(.text) for __aeabi_unwind_cpp_pr0
    locale.o(i._ZN4__rw15__rw_locale_impC1EPKcjj) refers to array_new.o(i._Znaj) for operator new[] (unsigned)
    locale.o(i._ZN4__rw15__rw_locale_impC1EPKcjj) refers to strlen.o(.text) for strlen
    locale.o(i._ZN4__rw15__rw_locale_impC1EPKcjj) refers to memcpy.o(.text) for memcpy
    locale.o(i._ZN4__rw15__rw_locale_impC1EPKcjj) refers to locale.o(t._ZNSsC1ERKSaIcE) for std::basic_string<char, std::char_traits<char>, std::allocator<char>>::basic_string(const std::allocator<char>&)
    locale.o(i._ZN4__rw15__rw_locale_impC1EPKcjj) refers to aeabi_vec_new_cookie.o(i.__aeabi_vec_new_cookie) for __aeabi_vec_new_cookie
    locale.o(i._ZN4__rw15__rw_locale_impC1EPKcjj) refers to locale.o(t._ZNSsaSERKSs) for std::basic_string<char, std::char_traits<char>, std::allocator<char>>::operator =(const std::basic_string<char, std::char_traits<char>, std::allocator<char>>&)
    locale.o(i._ZN4__rw15__rw_locale_impC1EPKcjj) refers to aeabi_vec_delete_noexceptions.o(.text) for __aeabi_vec_delete
    locale.o(i._ZN4__rw15__rw_locale_impC1EPKcjj) refers to char.o(t._ZNSsD1Ev) for std::basic_string<char, std::char_traits<char>, std::allocator<char>>::~basic_string()
    locale.o(i._ZN4__rw15__rw_locale_impC1EPKcjj) refers to locale.o(i.<Func5>) for <Func5>
    locale.o(i._ZN4__rw15__rw_locale_impC1EPKcjj.clean) refers to char.o(t._ZNSsD1Ev) for std::basic_string<char, std::char_traits<char>, std::allocator<char>>::~basic_string()
    locale.o(i._ZN4__rw15__rw_locale_impC1EPKcjj.clean) refers to locale.o(t._ZN4__rw18__rw_locale_vectorIPNS_15__rw_facet_baseEED1Ev) for __rw::__rw_locale_vector<__rw::__rw_facet_base*>::~__rw_locale_vector()
    locale.o(i._ZN4__rw15__rw_locale_impC1EPKcjj.clean) refers to locale.o(t._ZN4__rw18__rw_locale_vectorISsED1Ev) for __rw::__rw_locale_vector<std::basic_string<char, std::char_traits<char>, std::allocator<char>>>::~__rw_locale_vector()
    locale.o(i._ZN4__rw15__rw_locale_impC1EPKcjj.clean) refers to arm_exceptions_cleanup.o(.emb_text) for __cxa_end_cleanup
    locale.o(.ARM.extab) refers to locale.o(i._ZN4__rw15__rw_locale_impC1EPKcjj.clean) for i._ZN4__rw15__rw_locale_impC1EPKcjj.clean
    locale.o(.ARM.exidx) refers to locale.o(i._ZN4__rw15__rw_locale_impC1EPKcjj) for i._ZN4__rw15__rw_locale_impC1EPKcjj
    locale.o(.ARM.exidx) refers to unwind_pr0.o(.text) for __aeabi_unwind_cpp_pr0
    locale.o(.ARM.exidx) refers to locale.o(.ARM.extab) for .extab._ZN4__rw15__rw_locale_impC1EPKcjj
    locale.o(.ARM.exidx) refers to locale.o(i._ZN4__rw15__rw_locale_impC1EPKcjj.clean) for i._ZN4__rw15__rw_locale_impC1EPKcjj.clean
    locale.o(i._ZNSt6locale16_C_remove_facetsEi) refers to vendor.o(i._ZN4__rw15__rw_locale_imp15_C_map_categoryEi) for __rw::__rw_locale_imp::_C_map_category(int)
    locale.o(.ARM.exidx) refers to locale.o(i._ZNSt6locale16_C_remove_facetsEi) for i._ZNSt6locale16_C_remove_facetsEi
    locale.o(.ARM.exidx) refers to unwind_pr0.o(.text) for __aeabi_unwind_cpp_pr0
    locale.o(i._ZN4__rw15__rw_locale_impC1ERKS0_PKcj) refers to aeabi_vec_new_cookie.o(i.__aeabi_vec_new_cookie) for __aeabi_vec_new_cookie
    locale.o(i._ZN4__rw15__rw_locale_impC1ERKS0_PKcj) refers to locale.o(t._ZNSsaSERKSs) for std::basic_string<char, std::char_traits<char>, std::allocator<char>>::operator =(const std::basic_string<char, std::char_traits<char>, std::allocator<char>>&)
    locale.o(i._ZN4__rw15__rw_locale_impC1ERKS0_PKcj) refers to array_new.o(i._Znaj) for operator new[] (unsigned)
    locale.o(i._ZN4__rw15__rw_locale_impC1ERKS0_PKcj) refers to strlen.o(.text) for strlen
    locale.o(i._ZN4__rw15__rw_locale_impC1ERKS0_PKcj) refers to memcpy.o(.text) for memcpy
    locale.o(i._ZN4__rw15__rw_locale_impC1ERKS0_PKcj) refers to char.o(t._ZNSsD1Ev) for std::basic_string<char, std::char_traits<char>, std::allocator<char>>::~basic_string()
    locale.o(i._ZN4__rw15__rw_locale_impC1ERKS0_PKcj) refers to locale.o(i.<Func5>) for <Func5>
    locale.o(i._ZN4__rw15__rw_locale_impC1ERKS0_PKcj.clean) refers to locale.o(t._ZN4__rw18__rw_locale_vectorIPNS_15__rw_facet_baseEED1Ev) for __rw::__rw_locale_vector<__rw::__rw_facet_base*>::~__rw_locale_vector()
    locale.o(i._ZN4__rw15__rw_locale_impC1ERKS0_PKcj.clean) refers to locale.o(t._ZN4__rw18__rw_locale_vectorISsED1Ev) for __rw::__rw_locale_vector<std::basic_string<char, std::char_traits<char>, std::allocator<char>>>::~__rw_locale_vector()
    locale.o(i._ZN4__rw15__rw_locale_impC1ERKS0_PKcj.clean) refers to arm_exceptions_cleanup.o(.emb_text) for __cxa_end_cleanup
    locale.o(.ARM.extab) refers to locale.o(i._ZN4__rw15__rw_locale_impC1ERKS0_PKcj.clean) for i._ZN4__rw15__rw_locale_impC1ERKS0_PKcj.clean
    locale.o(.ARM.exidx) refers to locale.o(i._ZN4__rw15__rw_locale_impC1ERKS0_PKcj) for i._ZN4__rw15__rw_locale_impC1ERKS0_PKcj
    locale.o(.ARM.exidx) refers to unwind_pr0.o(.text) for __aeabi_unwind_cpp_pr0
    locale.o(.ARM.exidx) refers to locale.o(.ARM.extab) for .extab._ZN4__rw15__rw_locale_impC1ERKS0_PKcj
    locale.o(.ARM.exidx) refers to locale.o(i._ZN4__rw15__rw_locale_impC1ERKS0_PKcj.clean) for i._ZN4__rw15__rw_locale_impC1ERKS0_PKcj.clean
    locale.o(i._ZNSt6localeD1Ev) refers to locale.o(i._ZN4__rw15__rw_locale_impD1Ev) for __rw::__rw_locale_imp::~__rw_locale_imp()
    locale.o(i._ZNSt6localeD1Ev) refers to delete.o(i._ZdlPv) for operator delete (void*)
    locale.o(.ARM.exidx) refers to locale.o(i._ZNSt6localeD1Ev) for i._ZNSt6localeD1Ev
    locale.o(t._ZN4__rw18__rw_locale_vectorIPNS_15__rw_facet_baseEE6resizeEjRKS2_) refers to array_new.o(i._Znaj) for operator new[] (unsigned)
    locale.o(t._ZN4__rw18__rw_locale_vectorIPNS_15__rw_facet_baseEE6resizeEjRKS2_) refers to array_del.o(i._ZdaPv) for operator delete[] (void*)
    locale.o(.ARM.exidx) refers to locale.o(t._ZN4__rw18__rw_locale_vectorIPNS_15__rw_facet_baseEE6resizeEjRKS2_) for t._ZN4__rw18__rw_locale_vectorIPNS_15__rw_facet_baseEE6resizeEjRKS2_
    locale.o(.ARM.exidx) refers to unwind_pr0.o(.text) for __aeabi_unwind_cpp_pr0
    locale.o(i._ZNSt14codecvt_bynameIwcSt11__mbstate_tED1Ev) refers to locale.o(i._ZNSt7codecvtIwcSt11__mbstate_tED1Ev) for std::codecvt<wchar_t, char, std::__mbstate_t>::~codecvt()
    locale.o(.ARM.exidx) refers to locale.o(i._ZNSt14codecvt_bynameIwcSt11__mbstate_tED1Ev) for i._ZNSt14codecvt_bynameIwcSt11__mbstate_tED1Ev
    locale.o(t._ZNSsC1ERKSaIcE) refers to vendor.o(.bss__ZNSs9__nullrefE) for std::basic_string<char, std::char_traits<char>, std::allocator<char>>::__nullref
    locale.o(.ARM.exidx) refers to locale.o(t._ZNSsC1ERKSaIcE) for t._ZNSsC1ERKSaIcE
    locale.o(t._ZNSs7replaceEjjPKcj) refers to char.o(t._ZNSs7replaceEjjPKcjjj) for std::basic_string<char, std::char_traits<char>, std::allocator<char>>::replace(unsigned, unsigned, const char*, unsigned, unsigned, unsigned)
    locale.o(.ARM.exidx) refers to locale.o(t._ZNSs7replaceEjjPKcj) for t._ZNSs7replaceEjjPKcj
    locale.o(.ARM.exidx) refers to unwind_pr0.o(.text) for __aeabi_unwind_cpp_pr0
    locale.o(t._ZN4__rw18__rw_locale_vectorIPNS_15__rw_facet_baseEED1Ev) refers to array_del.o(i._ZdaPv) for operator delete[] (void*)
    locale.o(.ARM.exidx) refers to locale.o(t._ZN4__rw18__rw_locale_vectorIPNS_15__rw_facet_baseEED1Ev) for t._ZN4__rw18__rw_locale_vectorIPNS_15__rw_facet_baseEED1Ev
    locale.o(t._ZN4__rw18__rw_locale_vectorISsED1Ev) refers to aeabi_vec_delete_noexceptions.o(.text) for __aeabi_vec_delete
    locale.o(t._ZN4__rw18__rw_locale_vectorISsED1Ev) refers to char.o(t._ZNSsD1Ev) for std::basic_string<char, std::char_traits<char>, std::allocator<char>>::~basic_string()
    locale.o(.ARM.extab) refers to arm_callunex_noexceptions.o(.text) for __cxa_call_unexpected
    locale.o(.ARM.exidx) refers to locale.o(t._ZN4__rw18__rw_locale_vectorISsED1Ev) for t._ZN4__rw18__rw_locale_vectorISsED1Ev
    locale.o(.ARM.exidx) refers to unwind_pr0.o(.text) for __aeabi_unwind_cpp_pr0
    locale.o(.ARM.exidx) refers to locale.o(.ARM.extab) for .extab._ZN4__rw18__rw_locale_vectorISsED1Ev
    locale.o(i._ZN4__rw15__rw_locale_impD1Ev) refers to array_del.o(i._ZdaPv) for operator delete[] (void*)
    locale.o(i._ZN4__rw15__rw_locale_impD1Ev) refers to locale.o(t._ZN4__rw18__rw_locale_vectorIPNS_15__rw_facet_baseEED1Ev) for __rw::__rw_locale_vector<__rw::__rw_facet_base*>::~__rw_locale_vector()
    locale.o(i._ZN4__rw15__rw_locale_impD1Ev) refers to locale.o(t._ZN4__rw18__rw_locale_vectorISsED1Ev) for __rw::__rw_locale_vector<std::basic_string<char, std::char_traits<char>, std::allocator<char>>>::~__rw_locale_vector()
    locale.o(.ARM.exidx) refers to locale.o(i._ZN4__rw15__rw_locale_impD1Ev) for i._ZN4__rw15__rw_locale_impD1Ev
    locale.o(i._ZNSt6localeC1EPN4__rw15__rw_locale_impE) refers to locale.o(i._ZNSt6locale7_C_initEv) for std::locale::_C_init()
    locale.o(i._ZNSt6localeC1EPN4__rw15__rw_locale_impE) refers to locale.o(.data) for .data
    locale.o(.ARM.exidx) refers to locale.o(i._ZNSt6localeC1EPN4__rw15__rw_locale_impE) for i._ZNSt6localeC1EPN4__rw15__rw_locale_impE
    locale.o(.ARM.exidx) refers to unwind_pr0.o(.text) for __aeabi_unwind_cpp_pr0
    locale.o(.ARM.exidx) refers to locale.o(i._ZNKSt7codecvtIwcSt11__mbstate_tE9do_lengthERKS0_PKcS5_j) for i._ZNKSt7codecvtIwcSt11__mbstate_tE9do_lengthERKS0_PKcS5_j
    locale.o(.ARM.exidx) refers to locale.o(i._ZNSt7codecvtIwcSt11__mbstate_tED1Ev) for i._ZNSt7codecvtIwcSt11__mbstate_tED1Ev
    locale.o(.ARM.exidx) refers to locale.o(i._ZNKSt14codecvt_bynameIwcSt11__mbstate_tE10do_unshiftERS0_PcS3_RS3_) for i._ZNKSt14codecvt_bynameIwcSt11__mbstate_tE10do_unshiftERS0_PcS3_RS3_
    locale.o(.ARM.exidx) refers to unwind_pr0.o(.text) for __aeabi_unwind_cpp_pr0
    locale.o(i._ZNKSt14codecvt_bynameIwcSt11__mbstate_tE11do_encodingEv) refers to mbrtowc.o(.text) for mbrtowc
    locale.o(.ARM.extab) refers to arm_callunex_noexceptions.o(.text) for __cxa_call_unexpected
    locale.o(.ARM.exidx) refers to locale.o(i._ZNKSt14codecvt_bynameIwcSt11__mbstate_tE11do_encodingEv) for i._ZNKSt14codecvt_bynameIwcSt11__mbstate_tE11do_encodingEv
    locale.o(.ARM.exidx) refers to unwind_pr0.o(.text) for __aeabi_unwind_cpp_pr0
    locale.o(.ARM.exidx) refers to locale.o(.ARM.extab) for .extab._ZNKSt14codecvt_bynameIwcSt11__mbstate_tE11do_encodingEv
    locale.o(.ARM.exidx) refers to locale.o(i._ZNKSt14codecvt_bynameIwcSt11__mbstate_tE16do_always_noconvEv) for i._ZNKSt14codecvt_bynameIwcSt11__mbstate_tE16do_always_noconvEv
    locale.o(i._ZNKSt14codecvt_bynameIwcSt11__mbstate_tE13do_max_lengthEv) refers to _mbcurmax.o(.text) for __aeabi_MB_CUR_MAX
    locale.o(.ARM.exidx) refers to locale.o(i._ZNKSt14codecvt_bynameIwcSt11__mbstate_tE13do_max_lengthEv) for i._ZNKSt14codecvt_bynameIwcSt11__mbstate_tE13do_max_lengthEv
    locale.o(i._ZNSt14codecvt_bynameIwcSt11__mbstate_tED0Ev) refers to locale.o(i._ZNSt14codecvt_bynameIwcSt11__mbstate_tED1Ev) for std::codecvt_byname<wchar_t, char, std::__mbstate_t>::~codecvt_byname()
    locale.o(i._ZNSt14codecvt_bynameIwcSt11__mbstate_tED0Ev) refers to delete.o(i._ZdlPv) for operator delete (void*)
    locale.o(.ARM.exidx) refers to locale.o(i._ZNSt14codecvt_bynameIwcSt11__mbstate_tED0Ev) for i._ZNSt14codecvt_bynameIwcSt11__mbstate_tED0Ev
    locale.o(.constdata__ZTISt14codecvt_bynameIwcSt11__mbstate_tE) refers to lib_rtti_impl.o(.constdata__ZTVN10__cxxabiv120__si_class_type_infoE) for vtable for __cxxabiv1::__si_class_type_info
    locale.o(.constdata__ZTISt14codecvt_bynameIwcSt11__mbstate_tE) refers to locale.o(.constdata__ZTSSt14codecvt_bynameIwcSt11__mbstate_tE) for typeinfo name for std::codecvt_byname<wchar_t, char, std::__mbstate_t>
    locale.o(.constdata__ZTISt14codecvt_bynameIwcSt11__mbstate_tE) refers to locale.o(.constdata__ZTISt7codecvtIwcSt11__mbstate_tE) for typeinfo for std::codecvt<wchar_t, char, std::__mbstate_t>
    locale.o(.constdata__ZTISt7codecvtIwcSt11__mbstate_tE) refers to lib_rtti_impl.o(.constdata__ZTVN10__cxxabiv121__vmi_class_type_infoE) for vtable for __cxxabiv1::__vmi_class_type_info
    locale.o(.constdata__ZTISt7codecvtIwcSt11__mbstate_tE) refers to locale.o(.constdata__ZTSSt7codecvtIwcSt11__mbstate_tE) for typeinfo name for std::codecvt<wchar_t, char, std::__mbstate_t>
    locale.o(.constdata__ZTISt7codecvtIwcSt11__mbstate_tE) refers to char.o(.constdata__ZTINSt6locale5facetE) for typeinfo for std::locale::facet
    locale.o(.constdata__ZTISt7codecvtIwcSt11__mbstate_tE) refers to locale.o(.constdata__ZTISt12codecvt_base) for typeinfo for std::codecvt_base
    locale.o(.constdata__ZTISt12codecvt_base) refers to lib_rtti_impl.o(.constdata__ZTVN10__cxxabiv117__class_type_infoE) for vtable for __cxxabiv1::__class_type_info
    locale.o(.constdata__ZTISt12codecvt_base) refers to locale.o(.constdata__ZTSSt12codecvt_base) for typeinfo name for std::codecvt_base
    messages.o(i._ZSt13__rw_get_catsv) refers to cxa_guard_acquire.o(i.__cxa_guard_acquire) for __cxa_guard_acquire
    messages.o(i._ZSt13__rw_get_catsv) refers to aeabi_atexit.o(.text) for __aeabi_atexit
    messages.o(i._ZSt13__rw_get_catsv) refers to messages.o(.data__ZZSt13__rw_get_catsvE11__open_cats) for guard variable for std::__rw_get_cats()::__open_cats
    messages.o(i._ZSt13__rw_get_catsv) refers to messages.o(t._ZN4__rw18__rw_locale_vectorISt18__rw_open_cat_dataED1Ev) for __rw::__rw_locale_vector<std::__rw_open_cat_data>::~__rw_locale_vector()
    messages.o(i._ZSt13__rw_get_catsv.clean) refers to arm_exceptions_cleanup.o(.emb_text) for __cxa_end_cleanup
    messages.o(i._ZSt13__rw_get_catsv.clean) refers to messages.o(.data__ZZSt13__rw_get_catsvE11__open_cats) for guard variable for std::__rw_get_cats()::__open_cats
    messages.o(.ARM.extab) refers to messages.o(i._ZSt13__rw_get_catsv.clean) for i._ZSt13__rw_get_catsv.clean
    messages.o(.ARM.exidx) refers to messages.o(i._ZSt13__rw_get_catsv) for i._ZSt13__rw_get_catsv
    messages.o(.ARM.exidx) refers to unwind_pr0.o(.text) for __aeabi_unwind_cpp_pr0
    messages.o(.ARM.exidx) refers to messages.o(.ARM.extab) for .extab._ZSt13__rw_get_catsv
    messages.o(.ARM.exidx) refers to messages.o(i._ZSt13__rw_get_catsv.clean) for i._ZSt13__rw_get_catsv.clean
    messages.o(t._ZN4__rw18__rw_locale_vectorISt18__rw_open_cat_dataE6resizeEj) refers to messages.o(i._ZNSt18__rw_open_cat_dataC1Ev) for std::__rw_open_cat_data::__rw_open_cat_data()
    messages.o(t._ZN4__rw18__rw_locale_vectorISt18__rw_open_cat_dataE6resizeEj) refers to aeabi_vec_new_cookie.o(i.__aeabi_vec_new_cookie) for __aeabi_vec_new_cookie
    messages.o(t._ZN4__rw18__rw_locale_vectorISt18__rw_open_cat_dataE6resizeEj) refers to messages.o(i._ZNSt18__rw_open_cat_dataaSERKS_) for std::__rw_open_cat_data::operator =(const std::__rw_open_cat_data&)
    messages.o(t._ZN4__rw18__rw_locale_vectorISt18__rw_open_cat_dataE6resizeEj) refers to aeabi_vec_delete_noexceptions.o(.text) for __aeabi_vec_delete
    messages.o(t._ZN4__rw18__rw_locale_vectorISt18__rw_open_cat_dataE6resizeEj) refers to messages.o(i._ZNSt18__rw_open_cat_dataD1Ev) for std::__rw_open_cat_data::~__rw_open_cat_data()
    messages.o(t._ZN4__rw18__rw_locale_vectorISt18__rw_open_cat_dataE6resizeEj.clean) refers to messages.o(i._ZNSt18__rw_open_cat_dataD1Ev) for std::__rw_open_cat_data::~__rw_open_cat_data()
    messages.o(t._ZN4__rw18__rw_locale_vectorISt18__rw_open_cat_dataE6resizeEj.clean) refers to arm_exceptions_cleanup.o(.emb_text) for __cxa_end_cleanup
    messages.o(.ARM.extab) refers to messages.o(t._ZN4__rw18__rw_locale_vectorISt18__rw_open_cat_dataE6resizeEj.clean) for t._ZN4__rw18__rw_locale_vectorISt18__rw_open_cat_dataE6resizeEj.clean
    messages.o(.ARM.exidx) refers to messages.o(t._ZN4__rw18__rw_locale_vectorISt18__rw_open_cat_dataE6resizeEj) for t._ZN4__rw18__rw_locale_vectorISt18__rw_open_cat_dataE6resizeEj
    messages.o(.ARM.exidx) refers to unwind_pr0.o(.text) for __aeabi_unwind_cpp_pr0
    messages.o(.ARM.exidx) refers to messages.o(.ARM.extab) for .extab._ZN4__rw18__rw_locale_vectorISt18__rw_open_cat_dataE6resizeEj
    messages.o(.ARM.exidx) refers to messages.o(t._ZN4__rw18__rw_locale_vectorISt18__rw_open_cat_dataE6resizeEj.clean) for t._ZN4__rw18__rw_locale_vectorISt18__rw_open_cat_dataE6resizeEj.clean
    messages.o(t._ZN4__rw18__rw_locale_vectorISt18__rw_open_cat_dataED1Ev) refers to aeabi_vec_delete_noexceptions.o(.text) for __aeabi_vec_delete
    messages.o(t._ZN4__rw18__rw_locale_vectorISt18__rw_open_cat_dataED1Ev) refers to messages.o(i._ZNSt18__rw_open_cat_dataD1Ev) for std::__rw_open_cat_data::~__rw_open_cat_data()
    messages.o(.ARM.extab) refers to arm_callunex_noexceptions.o(.text) for __cxa_call_unexpected
    messages.o(.ARM.extab) refers to arm_exceptions_callterm.o(.text) for __cxa_call_terminate
    messages.o(.ARM.extab) refers to char.o(i.__ARM_common_noexcept_landing) for __ARM_common_noexcept_landing
    messages.o(.ARM.exidx) refers to messages.o(t._ZN4__rw18__rw_locale_vectorISt18__rw_open_cat_dataED1Ev) for t._ZN4__rw18__rw_locale_vectorISt18__rw_open_cat_dataED1Ev
    messages.o(.ARM.exidx) refers to unwind_pr0.o(.text) for __aeabi_unwind_cpp_pr0
    messages.o(.ARM.exidx) refers to messages.o(.ARM.extab) for .extab._ZN4__rw18__rw_locale_vectorISt18__rw_open_cat_dataED1Ev
    messages.o(i._ZNSt18__rw_open_cat_dataD1Ev) refers to locale.o(i._ZNSt6localeD1Ev) for std::locale::~locale()
    messages.o(.ARM.exidx) refers to messages.o(i._ZNSt18__rw_open_cat_dataD1Ev) for i._ZNSt18__rw_open_cat_dataD1Ev
    messages.o(i._ZNSt18__rw_open_cat_dataC1Ev) refers to locale.o(i._ZNSt6locale7classicEv) for std::locale::classic()
    messages.o(i._ZNSt18__rw_open_cat_dataC1Ev) refers to messages.o(i._ZNSt6localeC1ERKS_) for std::locale::locale(const std::locale&)
    messages.o(.ARM.exidx) refers to messages.o(i._ZNSt18__rw_open_cat_dataC1Ev) for i._ZNSt18__rw_open_cat_dataC1Ev
    messages.o(.ARM.exidx) refers to unwind_pr0.o(.text) for __aeabi_unwind_cpp_pr0
    messages.o(i._ZNSt18__rw_open_cat_dataaSERKS_) refers to locale.o(i._ZNSt6localeaSERKS_) for std::locale::operator =(const std::locale&)
    messages.o(.ARM.exidx) refers to messages.o(i._ZNSt18__rw_open_cat_dataaSERKS_) for i._ZNSt18__rw_open_cat_dataaSERKS_
    messages.o(.ARM.exidx) refers to messages.o(i._ZNSt6localeC1ERKS_) for i._ZNSt6localeC1ERKS_
    exception_dtor.o(.constdata__ZTVSt9exception) refers to exception_dtor.o(.constdata__ZTISt9exception) for typeinfo for std::exception
    exception_dtor.o(.constdata__ZTVSt9exception) refers to exception_dtor.o(i._ZNSt9exceptionD1Ev) for std::exception::~exception()
    exception_dtor.o(.constdata__ZTVSt9exception) refers to exception_dtor.o(i._ZNSt9exceptionD0Ev) for std::exception::~exception__deallocating()
    exception_dtor.o(.constdata__ZTVSt9exception) refers to exception_what.o(i._ZNKSt9exception4whatEv) for std::exception::what() const
    exception_dtor.o(.constdata__ZTISt9exception) refers to lib_rtti_impl.o(.constdata__ZTVN10__cxxabiv117__class_type_infoE) for vtable for __cxxabiv1::__class_type_info
    exception_dtor.o(.constdata__ZTISt9exception) refers to exception_dtor.o(.constdata__ZTSSt9exception) for typeinfo name for std::exception
    rwcats.o(t._ZN4__rw18__rw_locale_vectorIPNS_8__rw_catEED1Ev) refers to array_del.o(i._ZdaPv) for operator delete[] (void*)
    rwcats.o(.ARM.exidx) refers to rwcats.o(t._ZN4__rw18__rw_locale_vectorIPNS_8__rw_catEED1Ev) for t._ZN4__rw18__rw_locale_vectorIPNS_8__rw_catEED1Ev


==============================================================================

Removing Unused input sections from the image.

    Removing system_stm32f4xx.o(.rev16_text), (4 bytes).
    Removing system_stm32f4xx.o(.revsh_text), (4 bytes).
    Removing system_stm32f4xx.o(.rrx_text), (6 bytes).
    Removing system_stm32f4xx.o(i.SystemCoreClockUpdate), (136 bytes).
    Removing system_stm32f4xx.o(.ARM.exidx), (8 bytes).
    Removing system_stm32f4xx.o(.ARM.exidx), (8 bytes).
    Removing system_stm32f4xx.o(.ARM.exidx), (8 bytes).
    Removing system_stm32f4xx.o(.data), (20 bytes).
    Removing main.o(.rev16_text), (4 bytes).
    Removing main.o(.revsh_text), (4 bytes).
    Removing main.o(.rrx_text), (6 bytes).
    Removing main.o(i._Z12updateKalmanR12CameraObjectdSt4pairIddES2_d), (264 bytes).
    Removing main.o(i._Z15defaultCallbackv), (2 bytes).
    Removing main.o(i._Z16updatePredictionR12CameraObjectSt4pairIddES2_d), (136 bytes).
    Removing main.o(i._Z17clb_imu_pnc_clearv), (2 bytes).
    Removing main.o(i._Z17clb_imu_pnc_startv), (2 bytes).
    Removing main.o(i._Z6rotateSt4pairIddEd), (196 bytes).
    Removing main.o(i._ZN10BallSensor7turnOffEv), (18 bytes).
    Removing main.o(i._ZN11LineSensors6updateEv), (52 bytes).
    Removing main.o(i._ZN12KickerModule15switchOnBoosterEv), (8 bytes).
    Removing main.o(i._ZN12KickerModule16switchOffBoosterEv), (8 bytes).
    Removing main.o(i._ZN12MotorDrivers14attemptCurrentEv), (28 bytes).
    Removing main.o(i._ZN12MotorDrivers6updateEv), (332 bytes).
    Removing main.o(i._ZN12MotorDrivers9setMotorsEiiii), (56 bytes).
    Removing main.o(i._ZN12MotorDrivers9setMotorsEiiiii), (30 bytes).
    Removing main.o(i._ZN14BaseFunctional11genATMPointEssa), (96 bytes).
    Removing main.o(i._ZN14BaseFunctional13dribblerSpeedEa), (2 bytes).
    Removing main.o(i._ZN14BaseFunctional14genATMVecFieldEss), (72 bytes).
    Removing main.o(i._ZN14BaseFunctional5move2E12VectorToMoved), (116 bytes).
    Removing main.o(i._ZN14BaseFunctional6turnRCE14RobotParametrsaaa), (304 bytes).
    Removing main.o(i._ZN14BaseFunctional8setAngleE14RobotParametrsa), (16 bytes).
    Removing main.o(i._ZN14BaseFunctional9checkBallEv), (8 bytes).
    Removing main.o(i._ZN14BaseFunctional9turnCoordEdssRsS0_), (256 bytes).
    Removing main.o(i._ZN3IMU7turnOffEv), (32 bytes).
    Removing main.o(i._ZN5Robot10updateMenuEv), (332 bytes).
    Removing main.o(i._ZN5Robot12handleErrorsEv), (168 bytes).
    Removing main.o(i._ZN5Robot13swithPowerOffEv), (8 bytes).
    Removing main.o(i._ZN5Robot13updateSelfPosESt4pairIddES1_), (436 bytes).
    Removing main.o(i._ZN5Robot4getVEv), (8 bytes).
    Removing main.o(i._ZN5Robot4moveEddddd), (1860 bytes).
    Removing main.o(i._ZN5Robot4waitEj), (280 bytes).
    Removing main.o(i._ZN5Robot6getPosEv), (8 bytes).
    Removing main.o(i._ZN5Robot9logErrorsEv), (32 bytes).
    Removing main.o(i._ZN6Camera6updateEv), (304 bytes).
    Removing main.o(i._ZN6Driver11attemptTempEv), (16 bytes).
    Removing main.o(i._ZN6Driver13updateFromRegEv), (100 bytes).
    Removing main.o(i._ZN6Driver14attemptCurrentEv), (16 bytes).
    Removing main.o(i._ZN6Driver14attemptVoltageEv), (16 bytes).
    Removing main.o(i._ZN6Driver15attemptVelocityEv), (16 bytes).
    Removing main.o(i._ZN6Driver7isWorksEv), (36 bytes).
    Removing main.o(i._ZN7Buttons9isPressedEi), (12 bytes).
    Removing main.o(i._ZN7Display5printEfiii), (16 bytes).
    Removing main.o(i._ZN7Display5printExiii), (20 bytes).
    Removing main.o(i._ZN7Display5printEyiii), (20 bytes).
    Removing main.o(i._ZN9PairSaver3addESt4pairIddEj), (46 bytes).
    Removing main.o(i._ZN9PairSaver3popEj), (46 bytes).
    Removing main.o(.ARM.exidx), (8 bytes).
    Removing main.o(.ARM.exidx), (8 bytes).
    Removing main.o(.ARM.exidx), (8 bytes).
    Removing main.o(.ARM.exidx), (8 bytes).
    Removing main.o(.ARM.exidx), (8 bytes).
    Removing main.o(.ARM.exidx), (8 bytes).
    Removing main.o(.ARM.exidx), (8 bytes).
    Removing main.o(.ARM.exidx), (8 bytes).
    Removing main.o(.ARM.exidx), (8 bytes).
    Removing main.o(.ARM.exidx), (8 bytes).
    Removing main.o(.ARM.exidx), (8 bytes).
    Removing main.o(.ARM.exidx), (8 bytes).
    Removing main.o(.ARM.exidx), (8 bytes).
    Removing main.o(.ARM.exidx), (8 bytes).
    Removing main.o(.ARM.exidx), (8 bytes).
    Removing main.o(.ARM.exidx), (8 bytes).
    Removing main.o(.ARM.exidx), (8 bytes).
    Removing main.o(.ARM.exidx), (8 bytes).
    Removing main.o(.ARM.exidx), (8 bytes).
    Removing main.o(.ARM.exidx), (8 bytes).
    Removing main.o(.ARM.exidx), (8 bytes).
    Removing main.o(.ARM.exidx), (8 bytes).
    Removing main.o(.ARM.exidx), (8 bytes).
    Removing main.o(.ARM.exidx), (8 bytes).
    Removing main.o(.ARM.exidx), (8 bytes).
    Removing main.o(.ARM.exidx), (8 bytes).
    Removing main.o(.ARM.exidx), (8 bytes).
    Removing main.o(.ARM.exidx), (8 bytes).
    Removing main.o(.ARM.exidx), (8 bytes).
    Removing main.o(.ARM.exidx), (8 bytes).
    Removing main.o(.ARM.exidx), (8 bytes).
    Removing main.o(.ARM.exidx), (8 bytes).
    Removing main.o(.ARM.exidx), (8 bytes).
    Removing main.o(.ARM.exidx), (8 bytes).
    Removing main.o(.ARM.exidx), (8 bytes).
    Removing main.o(.ARM.exidx), (8 bytes).
    Removing main.o(.ARM.exidx), (8 bytes).
    Removing main.o(.ARM.exidx), (8 bytes).
    Removing main.o(.ARM.exidx), (8 bytes).
    Removing main.o(.ARM.exidx), (8 bytes).
    Removing main.o(.ARM.exidx), (8 bytes).
    Removing main.o(.ARM.exidx), (8 bytes).
    Removing main.o(.ARM.exidx), (8 bytes).
    Removing main.o(.ARM.exidx), (8 bytes).
    Removing main.o(.ARM.exidx), (8 bytes).
    Removing main.o(.ARM.exidx), (8 bytes).
    Removing main.o(.ARM.exidx), (8 bytes).
    Removing main.o(.ARM.exidx), (8 bytes).
    Removing main.o(.ARM.exidx), (8 bytes).
    Removing main.o(.ARM.exidx), (8 bytes).
    Removing main.o(.ARM.exidx), (8 bytes).
    Removing main.o(.ARM.exidx), (8 bytes).
    Removing main.o(.ARM.exidx), (8 bytes).
    Removing main.o(.ARM.exidx), (8 bytes).
    Removing main.o(.ARM.exidx), (8 bytes).
    Removing main.o(.ARM.exidx), (8 bytes).
    Removing main.o(.ARM.exidx), (8 bytes).
    Removing main.o(.ARM.exidx), (8 bytes).
    Removing main.o(.ARM.exidx), (8 bytes).
    Removing main.o(.ARM.exidx), (8 bytes).
    Removing main.o(.ARM.exidx), (8 bytes).
    Removing main.o(.ARM.exidx), (8 bytes).
    Removing main.o(.ARM.exidx), (8 bytes).
    Removing main.o(.ARM.exidx), (8 bytes).
    Removing main.o(.ARM.exidx), (8 bytes).
    Removing main.o(.ARM.exidx), (8 bytes).
    Removing main.o(.ARM.exidx), (8 bytes).
    Removing main.o(.ARM.exidx), (8 bytes).
    Removing main.o(.ARM.exidx), (8 bytes).
    Removing main.o(.ARM.exidx), (8 bytes).
    Removing main.o(.ARM.exidx), (8 bytes).
    Removing main.o(.ARM.exidx), (8 bytes).
    Removing main.o(.ARM.exidx), (8 bytes).
    Removing main.o(.ARM.exidx), (8 bytes).
    Removing main.o(.ARM.exidx), (8 bytes).
    Removing main.o(.ARM.exidx), (8 bytes).
    Removing main.o(.ARM.exidx), (8 bytes).
    Removing main.o(.ARM.exidx), (8 bytes).
    Removing main.o(.ARM.exidx), (8 bytes).
    Removing main.o(.ARM.exidx), (8 bytes).
    Removing main.o(.ARM.exidx), (8 bytes).
    Removing main.o(.ARM.exidx), (8 bytes).
    Removing main.o(.ARM.exidx), (8 bytes).
    Removing main.o(.ARM.exidx), (8 bytes).
    Removing main.o(.ARM.exidx), (8 bytes).
    Removing main.o(.ARM.exidx), (8 bytes).
    Removing main.o(.ARM.exidx), (8 bytes).
    Removing main.o(.ARM.exidx), (8 bytes).
    Removing main.o(.ARM.exidx), (8 bytes).
    Removing main.o(.ARM.exidx), (8 bytes).
    Removing main.o(.ARM.exidx), (8 bytes).
    Removing main.o(.ARM.exidx), (8 bytes).
    Removing main.o(.ARM.exidx), (8 bytes).
    Removing main.o(.ARM.exidx), (8 bytes).
    Removing main.o(.ARM.exidx), (8 bytes).
    Removing main.o(.ARM.exidx), (8 bytes).
    Removing main.o(.ARM.exidx), (8 bytes).
    Removing main.o(.ARM.exidx), (8 bytes).
    Removing main.o(.ARM.exidx), (8 bytes).
    Removing main.o(.ARM.exidx), (8 bytes).
    Removing main.o(.ARM.exidx), (8 bytes).
    Removing main.o(.ARM.exidx), (8 bytes).
    Removing main.o(.ARM.exidx), (8 bytes).
    Removing main.o(.ARM.exidx), (8 bytes).
    Removing main.o(.ARM.exidx), (8 bytes).
    Removing main.o(.ARM.exidx), (8 bytes).
    Removing main.o(.ARM.exidx), (8 bytes).
    Removing main.o(.ARM.exidx), (8 bytes).
    Removing main.o(.ARM.exidx), (8 bytes).
    Removing main.o(.ARM.exidx), (8 bytes).
    Removing main.o(.ARM.exidx), (8 bytes).
    Removing main.o(.ARM.exidx), (8 bytes).
    Removing main.o(.ARM.exidx), (8 bytes).
    Removing main.o(.ARM.exidx), (8 bytes).
    Removing main.o(.ARM.exidx), (8 bytes).
    Removing main.o(.ARM.exidx), (8 bytes).
    Removing main.o(.ARM.exidx), (8 bytes).
    Removing main.o(.ARM.exidx), (8 bytes).
    Removing main.o(.ARM.exidx), (8 bytes).
    Removing main.o(.ARM.exidx), (8 bytes).
    Removing main.o(.ARM.exidx), (8 bytes).
    Removing main.o(.ARM.exidx), (8 bytes).
    Removing main.o(.ARM.exidx), (8 bytes).
    Removing main.o(.ARM.exidx), (8 bytes).
    Removing main.o(.ARM.exidx), (8 bytes).
    Removing main.o(.ARM.exidx), (8 bytes).
    Removing main.o(.ARM.exidx), (8 bytes).
    Removing main.o(.ARM.exidx), (8 bytes).
    Removing main.o(.ARM.exidx), (8 bytes).
    Removing main.o(.data), (2 bytes).
    Removing main.o(.data), (1 bytes).
    Removing main.o(.data), (8 bytes).
    Removing stm32f407_pin.o(.rev16_text), (4 bytes).
    Removing stm32f407_pin.o(.revsh_text), (4 bytes).
    Removing stm32f407_pin.o(.rrx_text), (6 bytes).
    Removing stm32f407_pin.o(.ARM.exidx), (8 bytes).
    Removing stm32f407_adc.o(.rev16_text), (4 bytes).
    Removing stm32f407_adc.o(.revsh_text), (4 bytes).
    Removing stm32f407_adc.o(.rrx_text), (6 bytes).
    Removing stm32f407_adc.o(i._ZN6PL_ADC4stopEv), (22 bytes).
    Removing stm32f407_adc.o(.ARM.exidx), (8 bytes).
    Removing stm32f407_adc.o(.ARM.exidx), (8 bytes).
    Removing stm32f407_adc.o(.ARM.exidx), (8 bytes).
    Removing stm32f407_adc.o(.ARM.exidx), (8 bytes).
    Removing stm32f407_adc.o(.ARM.exidx), (8 bytes).
    Removing stm32f407_adc.o(.ARM.exidx), (8 bytes).
    Removing stm32f407_adc.o(.ARM.exidx), (8 bytes).
    Removing stm32f407_pwm.o(.rev16_text), (4 bytes).
    Removing stm32f407_pwm.o(.revsh_text), (4 bytes).
    Removing stm32f407_pwm.o(.rrx_text), (6 bytes).
    Removing stm32f407_pwm.o(i._Z6setPWMjhj), (176 bytes).
    Removing stm32f407_pwm.o(i._Z7initPWMjhti), (640 bytes).
    Removing stm32f407_pwm.o(.ARM.exidx), (8 bytes).
    Removing stm32f407_pwm.o(.ARM.exidx), (8 bytes).
    Removing stm32f407_pwm.o(.bss), (14 bytes).
    Removing stm32f407_spi.o(.rev16_text), (4 bytes).
    Removing stm32f407_spi.o(.revsh_text), (4 bytes).
    Removing stm32f407_spi.o(.rrx_text), (6 bytes).
    Removing stm32f407_spi.o(i._Z12SPIAvailablej), (12 bytes).
    Removing stm32f407_spi.o(i._Z12readRxBufSPIj), (20 bytes).
    Removing stm32f407_spi.o(i._Z13writeTxBufSPIjt), (40 bytes).
    Removing stm32f407_spi.o(.ARM.exidx), (8 bytes).
    Removing stm32f407_spi.o(.ARM.exidx), (8 bytes).
    Removing stm32f407_spi.o(.ARM.exidx), (8 bytes).
    Removing stm32f407_spi.o(.ARM.exidx), (8 bytes).
    Removing stm32f407_spi.o(.ARM.exidx), (8 bytes).
    Removing stm32f407_spi.o(.ARM.exidx), (8 bytes).
    Removing stm32f407_spi.o(.ARM.exidx), (8 bytes).
    Removing stm32f407_spi.o(.ARM.exidx), (8 bytes).
    Removing stm32f407_spi.o(.ARM.exidx), (8 bytes).
    Removing stm32f407_spi.o(.ARM.exidx), (8 bytes).
    Removing stm32f407_sysfunc.o(.rev16_text), (4 bytes).
    Removing stm32f407_sysfunc.o(.revsh_text), (4 bytes).
    Removing stm32f407_sysfunc.o(.rrx_text), (6 bytes).
    Removing stm32f407_sysfunc.o(.ARM.exidx), (8 bytes).
    Removing stm32f407_sysfunc.o(.ARM.exidx), (8 bytes).
    Removing stm32f407_sysfunc.o(.ARM.exidx), (8 bytes).
    Removing stm32f407_sysfunc.o(.ARM.exidx), (8 bytes).
    Removing stm32f407_sysfunc.o(.ARM.exidx), (8 bytes).
    Removing stm32f407_sysfunc.o(.ARM.exidx), (8 bytes).
    Removing stm32f407_sysfunc.o(.ARM.exidx), (8 bytes).
    Removing stm32f407_uart.o(.rev16_text), (4 bytes).
    Removing stm32f407_uart.o(.revsh_text), (4 bytes).
    Removing stm32f407_uart.o(.rrx_text), (6 bytes).
    Removing stm32f407_uart.o(i._Z13UARTAvailablej), (24 bytes).
    Removing stm32f407_uart.o(i._Z14UARTTxFinishedj), (76 bytes).
    Removing stm32f407_uart.o(i._Z17writeTrulyStrUARTjPcj), (28 bytes).
    Removing stm32f407_uart.o(i._Z8readUARTj), (48 bytes).
    Removing stm32f407_uart.o(i._Z9printUARTjc), (4 bytes).
    Removing stm32f407_uart.o(i._Z9printUARTjd), (268 bytes).
    Removing stm32f407_uart.o(i._Z9printUARTjf), (26 bytes).
    Removing stm32f407_uart.o(i._Z9printUARTji), (4 bytes).
    Removing stm32f407_uart.o(i._Z9printUARTjj), (4 bytes).
    Removing stm32f407_uart.o(i._Z9printUARTjl), (32 bytes).
    Removing stm32f407_uart.o(i._Z9printUARTjm), (116 bytes).
    Removing stm32f407_uart.o(.ARM.exidx), (8 bytes).
    Removing stm32f407_uart.o(.ARM.exidx), (8 bytes).
    Removing stm32f407_uart.o(.ARM.exidx), (8 bytes).
    Removing stm32f407_uart.o(.ARM.exidx), (8 bytes).
    Removing stm32f407_uart.o(.ARM.exidx), (8 bytes).
    Removing stm32f407_uart.o(.ARM.exidx), (8 bytes).
    Removing stm32f407_uart.o(.ARM.exidx), (8 bytes).
    Removing stm32f407_uart.o(.ARM.exidx), (8 bytes).
    Removing stm32f407_uart.o(.ARM.exidx), (8 bytes).
    Removing stm32f407_uart.o(.ARM.exidx), (8 bytes).
    Removing stm32f407_uart.o(.ARM.exidx), (8 bytes).
    Removing stm32f407_uart.o(.ARM.exidx), (8 bytes).
    Removing stm32f407_uart.o(.ARM.exidx), (8 bytes).
    Removing stm32f407_uart.o(.ARM.exidx), (8 bytes).
    Removing stm32f407_uart.o(.ARM.exidx), (8 bytes).
    Removing stm32f407_uart.o(.ARM.exidx), (8 bytes).
    Removing stm32f407_uart.o(.ARM.exidx), (8 bytes).
    Removing stm32f407_uart.o(.ARM.exidx), (8 bytes).
    Removing stm32f407_uart.o(.ARM.exidx), (8 bytes).
    Removing stm32f407_uart.o(.ARM.exidx), (8 bytes).
    Removing stm32f407_uart.o(.ARM.exidx), (8 bytes).
    Removing stm32f407_uart.o(.ARM.exidx), (8 bytes).
    Removing stm32f407_uart.o(.ARM.exidx), (8 bytes).
    Removing ssd1306.o(.rev16_text), (4 bytes).
    Removing ssd1306.o(.revsh_text), (4 bytes).
    Removing ssd1306.o(.rrx_text), (6 bytes).
    Removing ssd1306.o(i._ZN7SSD130610stopscrollEv), (6 bytes).
    Removing ssd1306.o(i._ZN7SSD130613drawFastHLineEssst), (424 bytes).
    Removing ssd1306.o(i._ZN7SSD130613drawFastVLineEssst), (424 bytes).
    Removing ssd1306.o(i._ZN7SSD130615startscrollleftEhh), (76 bytes).
    Removing ssd1306.o(i._ZN7SSD130616startscrollrightEhh), (76 bytes).
    Removing ssd1306.o(i._ZN7SSD130619startscrolldiagleftEhh), (92 bytes).
    Removing ssd1306.o(i._ZN7SSD130620startscrolldiagrightEhh), (92 bytes).
    Removing ssd1306.o(i._ZN7SSD13063dimEb), (44 bytes).
    Removing ssd1306.o(i._ZN7SSD13064drawEv), (4 bytes).
    Removing ssd1306.o(i._ZN7SSD13069switchOffEv), (8 bytes).
    Removing ssd1306.o(.ARM.exidx), (8 bytes).
    Removing ssd1306.o(.ARM.exidx), (8 bytes).
    Removing ssd1306.o(.ARM.exidx), (8 bytes).
    Removing ssd1306.o(.ARM.exidx), (8 bytes).
    Removing ssd1306.o(.ARM.exidx), (8 bytes).
    Removing ssd1306.o(.ARM.exidx), (8 bytes).
    Removing ssd1306.o(.ARM.exidx), (8 bytes).
    Removing ssd1306.o(.ARM.exidx), (8 bytes).
    Removing ssd1306.o(.ARM.exidx), (8 bytes).
    Removing ssd1306.o(.ARM.exidx), (8 bytes).
    Removing ssd1306.o(.ARM.exidx), (8 bytes).
    Removing ssd1306.o(.ARM.exidx), (8 bytes).
    Removing ssd1306.o(.ARM.exidx), (8 bytes).
    Removing ssd1306.o(.ARM.exidx), (8 bytes).
    Removing ssd1306.o(.ARM.exidx), (8 bytes).
    Removing ssd1306.o(.ARM.exidx), (8 bytes).
    Removing ssd1306.o(.ARM.exidx), (8 bytes).
    Removing ssd1306.o(.ARM.exidx), (8 bytes).
    Removing ssd1306.o(.ARM.exidx), (8 bytes).
    Removing ssd1306.o(.ARM.exidx), (8 bytes).
    Removing mpu9250.o(.rev16_text), (4 bytes).
    Removing mpu9250.o(.revsh_text), (4 bytes).
    Removing mpu9250.o(.rrx_text), (6 bytes).
    Removing mpu9250.o(i._ZN7mpu92507correctEv), (72 bytes).
    Removing mpu9250.o(i._ZN7mpu92508readTempEv), (108 bytes).
    Removing mpu9250.o(.ARM.exidx), (8 bytes).
    Removing mpu9250.o(.ARM.exidx), (8 bytes).
    Removing mpu9250.o(.ARM.exidx), (8 bytes).
    Removing mpu9250.o(.ARM.exidx), (8 bytes).
    Removing mpu9250.o(.ARM.exidx), (8 bytes).
    Removing mpu9250.o(.ARM.exidx), (8 bytes).
    Removing mpu9250.o(.ARM.exidx), (8 bytes).
    Removing mpu9250.o(.ARM.exidx), (8 bytes).
    Removing mpu9250.o(.ARM.exidx), (8 bytes).
    Removing mpu9250.o(.ARM.exidx), (8 bytes).
    Removing mpu9250.o(.ARM.exidx), (8 bytes).
    Removing mpu9250.o(.ARM.exidx), (8 bytes).
    Removing mpu9250.o(.ARM.exidx), (8 bytes).
    Removing mpu9250.o(.ARM.exidx), (8 bytes).
    Removing mpu9250.o(.ARM.exidx), (8 bytes).
    Removing mpu9250.o(.ARM.exidx), (8 bytes).
    Removing rwalloc.o(.ARM.exidx), (8 bytes).
    Removing rwalloc.o(.ARM.exidx), (8 bytes).
    Removing rwalloc.o(.ARM.extab), (20 bytes).
    Removing rwstdexcept.o(i._ZN37_INTERNAL_15_rwstdexcept_cpp_8697b68a4__rw13__rw_vfmatstrEPcjiSt9__va_list.clean), (52 bytes).
    Removing rwstdexcept.o(i._ZN4__rw16__rw_assert_failEPKcS1_iS1_), (112 bytes).
    Removing rwstdexcept.o(i._ZNSt14__rw_exception10_C_vformatEPKcSt9__va_list), (94 bytes).
    Removing rwstdexcept.o(i._ZNSt14__rw_exception9_C_assignEPKcj), (74 bytes).
    Removing rwstdexcept.o(i._ZNSt14__rw_exceptionC1ERKSs), (40 bytes).
    Removing rwstdexcept.o(.ARM.exidx), (8 bytes).
    Removing rwstdexcept.o(.ARM.exidx), (8 bytes).
    Removing rwstdexcept.o(.ARM.exidx), (8 bytes).
    Removing rwstdexcept.o(.ARM.exidx), (8 bytes).
    Removing rwstdexcept.o(.ARM.exidx), (8 bytes).
    Removing rwstdexcept.o(.ARM.exidx), (8 bytes).
    Removing rwstdexcept.o(.ARM.exidx), (8 bytes).
    Removing rwstdexcept.o(.ARM.exidx), (8 bytes).
    Removing rwstdexcept.o(.ARM.exidx), (8 bytes).
    Removing rwstdexcept.o(.ARM.extab), (72 bytes).
    Removing rwstdexcept.o(.ARM.extab), (28 bytes).
    Removing rwstdexcept.o(.ARM.extab), (28 bytes).
    Removing rwstdexcept.o(.ARM.extab), (28 bytes).
    Removing rwstdexcept.o(.data), (1 bytes).
    Removing char.o(i._ZNKSt14collate_bynameIcE10do_compareEPKcS2_S2_S2_), (154 bytes).
    Removing char.o(i._ZNKSt14collate_bynameIcE10do_compareEPKcS2_S2_S2_.clean), (10 bytes).
    Removing char.o(i._ZNKSt14collate_bynameIcE12do_transformEPKcS2_), (116 bytes).
    Removing char.o(i._ZNKSt14collate_bynameIcE12do_transformEPKcS2_.clean), (16 bytes).
    Removing char.o(i._ZNSt12ctype_bynameIcE17_C_get_mask_tableEPKc.clean), (4 bytes).
    Removing char.o(i._ZNSt12ctype_bynameIcEC1EPKcj.clean), (16 bytes).
    Removing char.o(i._ZNSt5ctypeIcE12_C_initfacetERKSt6locale.clean), (18 bytes).
    Removing char.o(i._ZNSt5ctypeIcEC1EPKNSt10ctype_base4maskEbj.clean), (10 bytes).
    Removing char.o(.ARM.exidx), (8 bytes).
    Removing char.o(.ARM.exidx), (8 bytes).
    Removing char.o(.ARM.exidx), (8 bytes).
    Removing char.o(.ARM.exidx), (8 bytes).
    Removing char.o(.ARM.exidx), (8 bytes).
    Removing char.o(.ARM.exidx), (8 bytes).
    Removing char.o(.ARM.exidx), (8 bytes).
    Removing char.o(.ARM.exidx), (8 bytes).
    Removing char.o(.ARM.exidx), (8 bytes).
    Removing char.o(.ARM.exidx), (8 bytes).
    Removing char.o(.ARM.exidx), (8 bytes).
    Removing char.o(.ARM.exidx), (8 bytes).
    Removing char.o(.ARM.exidx), (8 bytes).
    Removing char.o(.ARM.extab), (24 bytes).
    Removing char.o(.ARM.extab), (16 bytes).
    Removing char.o(.ARM.extab), (24 bytes).
    Removing char.o(.ARM.extab), (16 bytes).
    Removing char.o(.ARM.extab), (24 bytes).
    Removing char.o(.constdata), (4 bytes).
    Removing locale.o(i._ZN4__rw23__rw_numpunct_impl_base18_C_get_named_init_EPKc), (148 bytes).
    Removing locale.o(i._ZN4__rw23__rw_numpunct_impl_base18_C_get_named_init_EPKc.clean), (10 bytes).
    Removing locale.o(i._ZNKSt14codecvt_bynameIwcSt11__mbstate_tE5do_inERS0_PKcS4_RS4_PwS6_RS6_), (84 bytes).
    Removing locale.o(i._ZNKSt14codecvt_bynameIwcSt11__mbstate_tE6do_outERS0_PKwS4_RS4_PcS6_RS6_), (98 bytes).
    Removing locale.o(i._ZNKSt6locale13_C_make_facetERKNS_2idEbiPFPN4__rw15__rw_facet_baseEiPKcjE.clean), (10 bytes).
    Removing locale.o(i._ZNSt6locale6globalERKS_), (112 bytes).
    Removing locale.o(i._ZNSt6locale6globalERKS_.clean), (10 bytes).
    Removing locale.o(i._ZNSt6locale7_C_initEv.clean), (20 bytes).
    Removing locale.o(i._ZNSt6locale7classicEv.clean), (16 bytes).
    Removing locale.o(i._ZNSt6localeC1EPKc), (164 bytes).
    Removing locale.o(i._ZNSt6localeC1EPKc.clean), (10 bytes).
    Removing locale.o(i._ZNSt6localeC1ERKS_PKci), (200 bytes).
    Removing locale.o(i._ZNSt6localeC1ERKS_PKci.clean), (18 bytes).
    Removing locale.o(i._ZNSt6localeC1ERKS_S1_i), (206 bytes).
    Removing locale.o(i._ZNSt6localeC1ERKS_S1_i.clean), (10 bytes).
    Removing locale.o(.ARM.exidx), (8 bytes).
    Removing locale.o(.ARM.exidx), (8 bytes).
    Removing locale.o(.ARM.exidx), (8 bytes).
    Removing locale.o(.ARM.exidx), (8 bytes).
    Removing locale.o(.ARM.exidx), (8 bytes).
    Removing locale.o(.ARM.exidx), (8 bytes).
    Removing locale.o(.ARM.exidx), (8 bytes).
    Removing locale.o(.ARM.exidx), (8 bytes).
    Removing locale.o(.ARM.exidx), (8 bytes).
    Removing locale.o(.ARM.exidx), (8 bytes).
    Removing locale.o(.ARM.exidx), (8 bytes).
    Removing locale.o(.ARM.exidx), (8 bytes).
    Removing locale.o(.ARM.exidx), (8 bytes).
    Removing locale.o(.ARM.exidx), (8 bytes).
    Removing locale.o(.ARM.exidx), (8 bytes).
    Removing locale.o(.ARM.exidx), (8 bytes).
    Removing locale.o(.ARM.exidx), (8 bytes).
    Removing locale.o(.ARM.exidx), (8 bytes).
    Removing locale.o(.ARM.exidx), (8 bytes).
    Removing locale.o(.ARM.exidx), (8 bytes).
    Removing locale.o(.ARM.exidx), (8 bytes).
    Removing locale.o(.ARM.exidx), (8 bytes).
    Removing locale.o(.ARM.exidx), (8 bytes).
    Removing locale.o(.ARM.exidx), (8 bytes).
    Removing locale.o(.ARM.extab), (36 bytes).
    Removing locale.o(.ARM.extab), (16 bytes).
    Removing locale.o(.ARM.extab), (24 bytes).
    Removing locale.o(.ARM.extab), (16 bytes).
    Removing locale.o(.ARM.extab), (16 bytes).
    Removing locale.o(.ARM.extab), (16 bytes).
    Removing locale.o(.ARM.extab), (16 bytes).
    Removing locale.o(.ARM.extab), (16 bytes).
    Removing locale.o(.constdata), (4 bytes).
    Removing locale.o(.constdata), (4 bytes).
    Removing locale.o(.constdata), (4 bytes).
    Removing locale.o(.constdata), (4 bytes).
    Removing locale.o(.constdata), (4 bytes).
    Removing locale.o(.constdata), (4 bytes).
    Removing locale.o(.constdata), (4 bytes).
    Removing locale.o(.constdata), (4 bytes).
    Removing locale.o(.constdata), (7 bytes).
    Removing locale.o(.constdata), (22 bytes).
    Removing locale.o(.constdata), (22 bytes).
    Removing messages.o(i._ZNKSt18__rw_messages_base11_C_cat_openERKSsRKSt6locale.clean), (10 bytes).
    Removing messages.o(i._ZNKSt18__rw_messages_base12_C_cat_closeEi), (64 bytes).
    Removing messages.o(i._ZNSt18__rw_messages_base18_C_get_locale_nameEPKc), (88 bytes).
    Removing messages.o(i._ZNSt18__rw_messages_base18_C_get_locale_nameEPKc.clean), (10 bytes).
    Removing messages.o(.ARM.exidx), (8 bytes).
    Removing messages.o(.ARM.exidx), (8 bytes).
    Removing messages.o(.ARM.exidx), (8 bytes).
    Removing messages.o(.ARM.exidx), (8 bytes).
    Removing messages.o(.ARM.exidx), (8 bytes).
    Removing messages.o(.ARM.exidx), (8 bytes).
    Removing messages.o(.ARM.exidx), (8 bytes).
    Removing messages.o(.ARM.extab), (16 bytes).
    Removing messages.o(.ARM.extab), (16 bytes).
    Removing rwcats.o(i._Z7catopenPKci.clean), (4 bytes).
    Removing rwcats.o(i._Z8catclosePN4__rw8__rw_catE), (80 bytes).
    Removing rwcats.o(.ARM.exidx), (8 bytes).
    Removing rwcats.o(.ARM.exidx), (8 bytes).
    Removing rwcats.o(.ARM.exidx), (8 bytes).
    Removing rwcats.o(.ARM.exidx), (8 bytes).
    Removing rwcats.o(.ARM.exidx), (8 bytes).
    Removing rwcats.o(.ARM.exidx), (8 bytes).
    Removing rwcats.o(.ARM.extab), (20 bytes).
    Removing rwcats.o(.ARM.extab), (20 bytes).
    Removing rwthrowproc_impl_noex.o(.ARM.exidx), (8 bytes).
    Removing vendor.o(i._ZN4__rw15__rw_locale_imp13_C_parse_nameERNS_18__rw_locale_vectorISsEEPKc), (208 bytes).
    Removing vendor.o(i._ZN4__rw15__rw_locale_imp13_C_parse_nameERNS_18__rw_locale_vectorISsEEPKc.clean), (10 bytes).
    Removing vendor.o(i._ZN4__rw15__rw_locale_imp15_C_map_categoryEi), (60 bytes).
    Removing vendor.o(i._ZN4__rw22__rw_digit_reader_base10_C_reallocERPcS1_Rj), (84 bytes).
    Removing vendor.o(i._ZN4__rw22__rw_digit_reader_base10_C_reallocERPcS1_Rj.clean), (8 bytes).
    Removing vendor.o(i._ZN4__rw22__rw_digit_reader_base14_C_parse_floatEPKcS2_Pv), (364 bytes).
    Removing vendor.o(i._ZN4__rw22__rw_digit_reader_base16_C_parse_decimalEPKcS2_), (88 bytes).
    Removing vendor.o(i._ZN4__rw22__rw_digit_reader_base8_C_parseEPKcPv), (124 bytes).
    Removing vendor.o(i._ZN4__rw22__rw_digit_reader_base8_C_parseEPKcm), (208 bytes).
    Removing vendor.o(i._ZN4__rw22__rw_digit_reader_base8_C_parseEPKcy), (176 bytes).
    Removing vendor.o(i._ZN4__rw22__rw_digit_writer_base11_C_digitizeEPKv), (124 bytes).
    Removing vendor.o(i._ZN4__rw22__rw_digit_writer_base11_C_digitizeEd), (244 bytes).
    Removing vendor.o(i._ZN4__rw22__rw_digit_writer_base11_C_digitizeEe), (244 bytes).
    Removing vendor.o(i._ZN4__rw22__rw_digit_writer_base11_C_digitizeEmbPKc), (70 bytes).
    Removing vendor.o(i._ZN4__rw22__rw_digit_writer_base11_C_digitizeEyb), (88 bytes).
    Removing vendor.o(i._ZN4__rw22__rw_digit_writer_base12_C_to_binaryEm), (68 bytes).
    Removing vendor.o(i._ZN4__rw22__rw_digit_writer_base12_C_to_binaryEy), (120 bytes).
    Removing vendor.o(i._ZN4__rw22__rw_digit_writer_base14_C_calc_groupsEiPKc), (74 bytes).
    Removing vendor.o(i._ZN4__rw22__rw_digit_writer_base14_C_get_patternEPcPKcb), (108 bytes).
    Removing vendor.o(i._ZN4__rw22__rw_digit_writer_base16_C_get_f_patternEPcc), (130 bytes).
    Removing vendor.o(.ARM.exidx), (8 bytes).
    Removing vendor.o(.ARM.exidx), (8 bytes).
    Removing vendor.o(.ARM.exidx), (8 bytes).
    Removing vendor.o(.ARM.exidx), (8 bytes).
    Removing vendor.o(.ARM.exidx), (8 bytes).
    Removing vendor.o(.ARM.exidx), (8 bytes).
    Removing vendor.o(.ARM.exidx), (8 bytes).
    Removing vendor.o(.ARM.exidx), (8 bytes).
    Removing vendor.o(.ARM.exidx), (8 bytes).
    Removing vendor.o(.ARM.exidx), (8 bytes).
    Removing vendor.o(.ARM.exidx), (8 bytes).
    Removing vendor.o(.ARM.exidx), (8 bytes).
    Removing vendor.o(.ARM.exidx), (8 bytes).
    Removing vendor.o(.ARM.exidx), (8 bytes).
    Removing vendor.o(.ARM.exidx), (8 bytes).
    Removing vendor.o(.ARM.exidx), (8 bytes).
    Removing vendor.o(.ARM.exidx), (8 bytes).
    Removing vendor.o(.ARM.exidx), (8 bytes).
    Removing vendor.o(.ARM.exidx), (8 bytes).
    Removing vendor.o(.ARM.exidx), (8 bytes).
    Removing vendor.o(.ARM.extab), (16 bytes).
    Removing vendor.o(.ARM.extab), (28 bytes).
    Removing vendor.o(.data), (8 bytes).
    Removing main.o(.constdata__ZZN7CommandC1EvEs), (1 bytes).
    Removing main.o(.ARM.exidx), (8 bytes).
    Removing main.o(.ARM.exidx), (8 bytes).
    Removing main.o(t._Z4crc8IhET_PS0_i), (52 bytes).
    Removing main.o(.ARM.exidx), (8 bytes).
    Removing main.o(.ARM.exidx), (8 bytes).
    Removing main.o(t._Z4crc8IiET_PS0_i), (48 bytes).
    Removing main.o(.ARM.exidx), (8 bytes).
    Removing main.o(.ARM.exidx), (8 bytes).
    Removing main.o(.ARM.exidx), (8 bytes).
    Removing main.o(.ARM.exidx), (8 bytes).
    Removing main.o(.ARM.exidx), (8 bytes).
    Removing main.o(.ARM.exidx), (8 bytes).
    Removing main.o(t._Z7toPrintIxEPcT_s), (282 bytes).
    Removing main.o(.ARM.exidx), (8 bytes).
    Removing main.o(t._Z8printTmlIxEvR7SSD1306T_iii), (44 bytes).
    Removing main.o(.ARM.exidx), (8 bytes).
    Removing main.o(t._Z7toPrintIyEPcT_s), (262 bytes).
    Removing main.o(.ARM.exidx), (8 bytes).
    Removing main.o(t._Z8printTmlIyEvR7SSD1306T_iii), (44 bytes).
    Removing main.o(.ARM.exidx), (8 bytes).
    Removing main.o(.ARM.exidx), (8 bytes).
    Removing main.o(.ARM.exidx), (8 bytes).
    Removing main.o(t._Z7toPrintIfEPcT_s), (496 bytes).
    Removing main.o(.ARM.exidx), (8 bytes).
    Removing main.o(t._Z8printTmlIfEvR7SSD1306T_iii), (40 bytes).
    Removing main.o(.ARM.exidx), (8 bytes).
    Removing main.o(t._Z4min2IdET_S0_S0_), (60 bytes).
    Removing main.o(.ARM.exidx), (8 bytes).
    Removing main.o(t._Z3sgnIdET_S0_), (96 bytes).
    Removing main.o(.ARM.exidx), (8 bytes).
    Removing main.o(.ARM.exidx), (8 bytes).
    Removing main.o(.ARM.exidx), (8 bytes).
    Removing main.o(.ARM.exidx), (8 bytes).
    Removing main.o(.ARM.exidx), (8 bytes).
    Removing main.o(.ARM.exidx), (8 bytes).
    Removing main.o(.ARM.exidx), (8 bytes).
    Removing main.o(.ARM.exidx), (8 bytes).
    Removing main.o(.ARM.exidx), (8 bytes).
    Removing main.o(.ARM.exidx), (8 bytes).
    Removing main.o(.ARM.exidx), (8 bytes).
    Removing main.o(.ARM.exidx), (8 bytes).
    Removing main.o(.ARM.exidx), (8 bytes).
    Removing main.o(.ARM.exidx), (8 bytes).
    Removing main.o(.ARM.exidx), (8 bytes).
    Removing main.o(.ARM.exidx), (8 bytes).
    Removing main.o(.ARM.exidx), (8 bytes).
    Removing main.o(.ARM.exidx), (8 bytes).
    Removing main.o(.ARM.exidx), (8 bytes).
    Removing main.o(.ARM.exidx), (8 bytes).
    Removing main.o(.ARM.exidx), (8 bytes).
    Removing main.o(.ARM.exidx), (8 bytes).
    Removing main.o(.ARM.exidx), (8 bytes).
    Removing main.o(.ARM.exidx), (8 bytes).
    Removing main.o(.ARM.exidx), (8 bytes).
    Removing main.o(.ARM.exidx), (8 bytes).
    Removing main.o(i._ZSt3absd), (4 bytes).
    Removing main.o(.ARM.exidx), (8 bytes).
    Removing main.o(t._ZNSt5queueISt4pairIS0_IddEjESt5dequeIS2_SaIS2_EEE5frontEv), (18 bytes).
    Removing main.o(.ARM.exidx), (8 bytes).
    Removing main.o(.ARM.exidx), (8 bytes).
    Removing ssd1306.o(.constdata__ZTI7SSD1306), (8 bytes).
    Removing ssd1306.o(.data__ZZN7SSD130621drawFastVLineInternalEssstE7premask), (8 bytes).
    Removing ssd1306.o(.data__ZZN7SSD130621drawFastVLineInternalEssstE8postmask), (8 bytes).
    Removing ssd1306.o(.constdata__ZTS7SSD1306), (9 bytes).
    Removing mpu9250.o(.ARM.exidx), (8 bytes).
    Removing rwstdexcept.o(t._ZNKSt8messagesIcE6do_getEiiiRKSs.clean), (10 bytes).
    Removing rwstdexcept.o(.ARM.extab), (16 bytes).
    Removing rwstdexcept.o(.ARM.exidx), (8 bytes).
    Removing rwstdexcept.o(.ARM.exidx), (8 bytes).
    Removing rwstdexcept.o(.ARM.exidx), (8 bytes).
    Removing rwstdexcept.o(i._ZdlPvS_), (2 bytes).
    Removing rwstdexcept.o(.ARM.exidx), (8 bytes).
    Removing rwstdexcept.o(.ARM.extab), (16 bytes).
    Removing rwstdexcept.o(.ARM.exidx), (8 bytes).
    Removing rwstdexcept.o(.ARM.exidx), (8 bytes).
    Removing rwstdexcept.o(.ARM.exidx), (8 bytes).
    Removing rwstdexcept.o(.ARM.exidx), (8 bytes).
    Removing rwstdexcept.o(t._ZN4__rw16__rw_facet_makerISt5ctypeIcEE13_C_maker_funcEiPKcj.clean), (16 bytes).
    Removing rwstdexcept.o(.ARM.extab), (32 bytes).
    Removing rwstdexcept.o(.ARM.exidx), (8 bytes).
    Removing rwstdexcept.o(.ARM.exidx), (8 bytes).
    Removing rwstdexcept.o(t._ZNKSt8messagesIcE8do_closeEi), (6 bytes).
    Removing rwstdexcept.o(.ARM.exidx), (8 bytes).
    Removing rwstdexcept.o(.ARM.exidx), (8 bytes).
    Removing rwstdexcept.o(.constdata__ZTISt8messagesIcE), (32 bytes).
    Removing rwstdexcept.o(.constdata__ZTISt14__rw_exception), (12 bytes).
    Removing rwstdexcept.o(.constdata__ZTISt18__rw_messages_base), (12 bytes).
    Removing rwstdexcept.o(.constdata__ZTSSt8messagesIcE), (15 bytes).
    Removing rwstdexcept.o(.constdata__ZTSSt14__rw_exception), (19 bytes).
    Removing rwstdexcept.o(.constdata__ZTISt13messages_base), (8 bytes).
    Removing rwstdexcept.o(.constdata__ZTSSt18__rw_messages_base), (23 bytes).
    Removing rwstdexcept.o(.constdata__ZTSSt13messages_base), (18 bytes).
    Removing rwstdexcept.o(.ARM.exidx), (8 bytes).
    Removing rwstdexcept.o(.ARM.exidx), (8 bytes).
    Removing rwstdexcept.o(i._ZNSt14__rw_exceptionD0Ev), (14 bytes).
    Removing rwstdexcept.o(.ARM.exidx), (8 bytes).
    Removing rwstdexcept.o(.ARM.exidx), (8 bytes).
    Removing char.o(.constdata__ZTVSt7collateIcE), (32 bytes).
    Removing char.o(.constdata__ZTVSt14collate_bynameIcE), (32 bytes).
    Removing char.o(.constdata__ZTVSt8numpunctIcE), (40 bytes).
    Removing char.o(.constdata__ZZNSsC1EPKcjRKSaIcEEs), (1 bytes).
    Removing char.o(.ARM.exidx), (8 bytes).
    Removing char.o(.ARM.exidx), (8 bytes).
    Removing char.o(t._ZNSsC1EPKcjRKSaIcE), (92 bytes).
    Removing char.o(.ARM.exidx), (8 bytes).
    Removing char.o(.ARM.exidx), (8 bytes).
    Removing char.o(.ARM.extab), (12 bytes).
    Removing char.o(.ARM.exidx), (8 bytes).
    Removing char.o(t._ZNSs5beginEv), (88 bytes).
    Removing char.o(.ARM.exidx), (8 bytes).
    Removing char.o(.ARM.exidx), (8 bytes).
    Removing char.o(t._ZNK4__rw17__rw_collate_dataIcE13_C_coll_orderEc), (52 bytes).
    Removing char.o(.ARM.exidx), (8 bytes).
    Removing char.o(t._ZNKSt7collateIcE10do_compareEPKcS2_S2_S2_), (98 bytes).
    Removing char.o(.ARM.extab), (12 bytes).
    Removing char.o(.ARM.exidx), (8 bytes).
    Removing char.o(t._ZNKSt7collateIcE12do_transformEPKcS2_), (64 bytes).
    Removing char.o(t._ZNKSt7collateIcE12do_transformEPKcS2_.clean), (10 bytes).
    Removing char.o(.ARM.extab), (16 bytes).
    Removing char.o(.ARM.exidx), (8 bytes).
    Removing char.o(.ARM.exidx), (8 bytes).
    Removing char.o(t._ZNKSt7collateIcE7do_hashEPKcS2_), (66 bytes).
    Removing char.o(t._ZNKSt7collateIcE7do_hashEPKcS2_.clean), (4 bytes).
    Removing char.o(.ARM.exidx), (8 bytes).
    Removing char.o(.ARM.exidx), (8 bytes).
    Removing char.o(i._ZNSt7collateIcED1Ev), (8 bytes).
    Removing char.o(.ARM.exidx), (8 bytes).
    Removing char.o(i._ZNSt14collate_bynameIcED1Ev), (24 bytes).
    Removing char.o(.ARM.exidx), (8 bytes).
    Removing char.o(t._ZNSt8numpunctIcE12_C_initfacetERKSt6locale), (130 bytes).
    Removing char.o(t._ZNSt8numpunctIcE12_C_initfacetERKSt6locale.clean), (14 bytes).
    Removing char.o(.ARM.extab), (32 bytes).
    Removing char.o(.ARM.exidx), (8 bytes).
    Removing char.o(.ARM.exidx), (8 bytes).
    Removing char.o(i._ZNSt8numpunctIcED1Ev), (16 bytes).
    Removing char.o(.ARM.exidx), (8 bytes).
    Removing char.o(i._ZnwjPv), (4 bytes).
    Removing char.o(.ARM.exidx), (8 bytes).
    Removing char.o(.ARM.exidx), (8 bytes).
    Removing char.o(t._ZNSaIcEC1Ev), (2 bytes).
    Removing char.o(.ARM.exidx), (8 bytes).
    Removing char.o(t._ZNSaIcEC1ERKS_), (2 bytes).
    Removing char.o(.ARM.exidx), (8 bytes).
    Removing char.o(.ARM.exidx), (8 bytes).
    Removing char.o(.ARM.exidx), (8 bytes).
    Removing char.o(t._ZNSaIN4__rw12__string_refIcSt11char_traitsIcESaIcEEEEC1IcEERKSaIT_E), (2 bytes).
    Removing char.o(.ARM.exidx), (8 bytes).
    Removing char.o(.ARM.extab), (16 bytes).
    Removing char.o(.ARM.exidx), (8 bytes).
    Removing char.o(i._ZNSt6locale5facetD1Ev), (2 bytes).
    Removing char.o(.ARM.exidx), (8 bytes).
    Removing char.o(.ARM.exidx), (8 bytes).
    Removing char.o(.ARM.exidx), (8 bytes).
    Removing char.o(i._ZNKSt5ctypeIcE10do_toupperEPcPKc), (44 bytes).
    Removing char.o(.ARM.exidx), (8 bytes).
    Removing char.o(i._ZNKSt5ctypeIcE10do_tolowerEPcPKc), (44 bytes).
    Removing char.o(.ARM.exidx), (8 bytes).
    Removing char.o(i._ZNKSt5ctypeIcE10do_toupperEc), (30 bytes).
    Removing char.o(.ARM.exidx), (8 bytes).
    Removing char.o(i._ZNKSt5ctypeIcE10do_tolowerEc), (30 bytes).
    Removing char.o(.ARM.exidx), (8 bytes).
    Removing char.o(i._ZNKSt5ctypeIcE8do_widenEc), (4 bytes).
    Removing char.o(.ARM.exidx), (8 bytes).
    Removing char.o(i._ZNKSt5ctypeIcE8do_widenEPKcS2_Pc), (16 bytes).
    Removing char.o(.ARM.exidx), (8 bytes).
    Removing char.o(i._ZNKSt5ctypeIcE9do_narrowEcc), (4 bytes).
    Removing char.o(.ARM.exidx), (8 bytes).
    Removing char.o(i._ZNKSt5ctypeIcE9do_narrowEPKcS2_cPc), (16 bytes).
    Removing char.o(.ARM.exidx), (8 bytes).
    Removing char.o(.ARM.exidx), (8 bytes).
    Removing char.o(i._ZNSt7collateIcED0Ev), (14 bytes).
    Removing char.o(.ARM.exidx), (8 bytes).
    Removing char.o(i._ZNSt14collate_bynameIcED0Ev), (14 bytes).
    Removing char.o(.ARM.exidx), (8 bytes).
    Removing char.o(t._ZNKSt8numpunctIcE16do_decimal_pointEv), (4 bytes).
    Removing char.o(.ARM.exidx), (8 bytes).
    Removing char.o(t._ZNKSt8numpunctIcE16do_thousands_sepEv), (4 bytes).
    Removing char.o(.ARM.exidx), (8 bytes).
    Removing char.o(t._ZNKSt8numpunctIcE11do_groupingEv), (6 bytes).
    Removing char.o(.ARM.exidx), (8 bytes).
    Removing char.o(t._ZNKSt8numpunctIcE11do_truenameEv), (6 bytes).
    Removing char.o(.ARM.exidx), (8 bytes).
    Removing char.o(t._ZNKSt8numpunctIcE12do_falsenameEv), (6 bytes).
    Removing char.o(.ARM.exidx), (8 bytes).
    Removing char.o(i._ZN4__rw18__rw_numpunct_implIcED1Ev), (8 bytes).
    Removing char.o(.ARM.exidx), (8 bytes).
    Removing char.o(i._ZNSt8numpunctIcED0Ev), (14 bytes).
    Removing char.o(.ARM.exidx), (8 bytes).
    Removing char.o(.ARM.exidx), (8 bytes).
    Removing char.o(i._ZN4__rw23__rw_numpunct_impl_dataIcED1Ev), (22 bytes).
    Removing char.o(.ARM.exidx), (8 bytes).
    Removing char.o(i._ZN4__rw15__rw_punct_dataIcED1Ev), (12 bytes).
    Removing char.o(.ARM.exidx), (8 bytes).
    Removing char.o(.constdata__ZTISt5ctypeIcE), (40 bytes).
    Removing char.o(.constdata__ZTISt7collateIcE), (32 bytes).
    Removing char.o(.constdata__ZTISt8numpunctIcE), (32 bytes).
    Removing char.o(.constdata__ZTISt14collate_bynameIcE), (12 bytes).
    Removing char.o(.constdata__ZTINSt6locale5facetE), (12 bytes).
    Removing char.o(.constdata__ZTISt12ctype_bynameIcE), (12 bytes).
    Removing char.o(.constdata__ZTISt10ctype_base), (8 bytes).
    Removing char.o(.constdata__ZTIN4__rw17__rw_ctype_helperIcEE), (8 bytes).
    Removing char.o(.constdata__ZTSSt5ctypeIcE), (12 bytes).
    Removing char.o(.constdata__ZTIN4__rw17__rw_collate_implIcEE), (12 bytes).
    Removing char.o(.constdata__ZTSSt7collateIcE), (14 bytes).
    Removing char.o(.constdata__ZTSSt14collate_bynameIcE), (22 bytes).
    Removing char.o(.constdata__ZTIN4__rw18__rw_numpunct_implIcEE), (12 bytes).
    Removing char.o(.constdata__ZTSSt8numpunctIcE), (15 bytes).
    Removing char.o(.constdata__ZTIN4__rw15__rw_facet_baseE), (12 bytes).
    Removing char.o(.constdata__ZTSNSt6locale5facetE), (18 bytes).
    Removing char.o(.constdata__ZTSSt10ctype_base), (15 bytes).
    Removing char.o(.constdata__ZTSN4__rw17__rw_ctype_helperIcEE), (30 bytes).
    Removing char.o(.constdata__ZTSSt12ctype_bynameIcE), (20 bytes).
    Removing char.o(.constdata__ZTIN4__rw17__rw_collate_dataIcEE), (8 bytes).
    Removing char.o(.constdata__ZTSN4__rw17__rw_collate_implIcEE), (30 bytes).
    Removing char.o(.constdata__ZTIN4__rw23__rw_numpunct_impl_dataIcEE), (32 bytes).
    Removing char.o(.constdata__ZTSN4__rw18__rw_numpunct_implIcEE), (31 bytes).
    Removing char.o(.constdata__ZTIN4__rw17__rw_synchronizedE), (8 bytes).
    Removing char.o(.constdata__ZTSN4__rw15__rw_facet_baseE), (25 bytes).
    Removing char.o(.constdata__ZTSN4__rw17__rw_collate_dataIcEE), (30 bytes).
    Removing char.o(.constdata__ZTIN4__rw23__rw_numpunct_impl_baseE), (8 bytes).
    Removing char.o(.constdata__ZTIN4__rw15__rw_punct_dataIcEE), (8 bytes).
    Removing char.o(.constdata__ZTSN4__rw23__rw_numpunct_impl_dataIcEE), (36 bytes).
    Removing char.o(.constdata__ZTSN4__rw17__rw_synchronizedE), (27 bytes).
    Removing char.o(.constdata__ZTSN4__rw23__rw_numpunct_impl_baseE), (33 bytes).
    Removing char.o(.constdata__ZTSN4__rw15__rw_punct_dataIcEE), (28 bytes).
    Removing char.o(.ARM.exidx), (8 bytes).
    Removing char.o(.ARM.exidx), (8 bytes).
    Removing char.o(i.__ARM_common_noexcept_landing), (4 bytes).
    Removing char.o(.ARM.exidx), (8 bytes).
    Removing locale.o(.constdata__ZTVSt14codecvt_bynameIwcSt11__mbstate_tE), (48 bytes).
    Removing locale.o(.ARM.exidx), (8 bytes).
    Removing locale.o(.ARM.exidx), (8 bytes).
    Removing locale.o(.ARM.exidx), (8 bytes).
    Removing locale.o(.ARM.exidx), (8 bytes).
    Removing locale.o(i._ZN4__rw15__rw_locale_impC1EPKcjj.clean), (28 bytes).
    Removing locale.o(.ARM.extab), (32 bytes).
    Removing locale.o(.ARM.exidx), (8 bytes).
    Removing locale.o(.ARM.exidx), (8 bytes).
    Removing locale.o(i._ZNSt6locale16_C_remove_facetsEi), (78 bytes).
    Removing locale.o(.ARM.exidx), (8 bytes).
    Removing locale.o(i._ZN4__rw15__rw_locale_impC1ERKS0_PKcj), (216 bytes).
    Removing locale.o(i._ZN4__rw15__rw_locale_impC1ERKS0_PKcj.clean), (22 bytes).
    Removing locale.o(.ARM.extab), (24 bytes).
    Removing locale.o(.ARM.exidx), (8 bytes).
    Removing locale.o(.ARM.exidx), (8 bytes).
    Removing locale.o(.ARM.exidx), (8 bytes).
    Removing locale.o(.ARM.exidx), (8 bytes).
    Removing locale.o(i._ZNSt14codecvt_bynameIwcSt11__mbstate_tED1Ev), (8 bytes).
    Removing locale.o(.ARM.exidx), (8 bytes).
    Removing locale.o(.ARM.exidx), (8 bytes).
    Removing locale.o(.ARM.exidx), (8 bytes).
    Removing locale.o(.ARM.exidx), (8 bytes).
    Removing locale.o(.ARM.extab), (16 bytes).
    Removing locale.o(.ARM.exidx), (8 bytes).
    Removing locale.o(.ARM.exidx), (8 bytes).
    Removing locale.o(.ARM.exidx), (8 bytes).
    Removing locale.o(i._ZNKSt7codecvtIwcSt11__mbstate_tE9do_lengthERKS0_PKcS5_j), (12 bytes).
    Removing locale.o(.ARM.exidx), (8 bytes).
    Removing locale.o(i._ZNSt7codecvtIwcSt11__mbstate_tED1Ev), (8 bytes).
    Removing locale.o(.ARM.exidx), (8 bytes).
    Removing locale.o(i._ZNKSt14codecvt_bynameIwcSt11__mbstate_tE10do_unshiftERS0_PcS3_RS3_), (42 bytes).
    Removing locale.o(.ARM.exidx), (8 bytes).
    Removing locale.o(i._ZNKSt14codecvt_bynameIwcSt11__mbstate_tE11do_encodingEv), (26 bytes).
    Removing locale.o(.ARM.extab), (16 bytes).
    Removing locale.o(.ARM.exidx), (8 bytes).
    Removing locale.o(i._ZNKSt14codecvt_bynameIwcSt11__mbstate_tE16do_always_noconvEv), (4 bytes).
    Removing locale.o(.ARM.exidx), (8 bytes).
    Removing locale.o(i._ZNKSt14codecvt_bynameIwcSt11__mbstate_tE13do_max_lengthEv), (8 bytes).
    Removing locale.o(.ARM.exidx), (8 bytes).
    Removing locale.o(i._ZNSt14codecvt_bynameIwcSt11__mbstate_tED0Ev), (14 bytes).
    Removing locale.o(.ARM.exidx), (8 bytes).
    Removing locale.o(.constdata__ZTISt14codecvt_bynameIwcSt11__mbstate_tE), (12 bytes).
    Removing locale.o(.constdata__ZTISt7codecvtIwcSt11__mbstate_tE), (32 bytes).
    Removing locale.o(.constdata__ZTSSt14codecvt_bynameIwcSt11__mbstate_tE), (38 bytes).
    Removing locale.o(.constdata__ZTISt12codecvt_base), (8 bytes).
    Removing locale.o(.constdata__ZTSSt7codecvtIwcSt11__mbstate_tE), (30 bytes).
    Removing locale.o(.constdata__ZTSSt12codecvt_base), (17 bytes).
    Removing messages.o(i._ZSt13__rw_get_catsv.clean), (16 bytes).
    Removing messages.o(.ARM.extab), (16 bytes).
    Removing messages.o(.ARM.exidx), (8 bytes).
    Removing messages.o(.ARM.exidx), (8 bytes).
    Removing messages.o(t._ZN4__rw18__rw_locale_vectorISt18__rw_open_cat_dataE6resizeEj.clean), (10 bytes).
    Removing messages.o(.ARM.extab), (16 bytes).
    Removing messages.o(.ARM.exidx), (8 bytes).
    Removing messages.o(.ARM.exidx), (8 bytes).
    Removing messages.o(.ARM.extab), (20 bytes).
    Removing messages.o(.ARM.exidx), (8 bytes).
    Removing messages.o(.ARM.exidx), (8 bytes).
    Removing messages.o(.ARM.exidx), (8 bytes).
    Removing messages.o(.ARM.exidx), (8 bytes).
    Removing messages.o(.ARM.exidx), (8 bytes).
    Removing rwcats.o(.ARM.exidx), (8 bytes).

795 unused section(s) (total 22442 bytes) removed from the image.

==============================================================================

Image Symbol Table

    Local Symbols

    Symbol Name                              Value     Ov Type        Size  Object(Section)

    ../../../clib/unwind_pr.c                0x00000000   Number         0  unwind_prcommon.o ABSOLUTE
    ../../../clib/unwind_pr.c                0x00000000   Number         0  unwind_pr1.o ABSOLUTE
    ../../../clib/unwind_pr.c                0x00000000   Number         0  unwind_pr0.o ABSOLUTE
    ../../../clib/unwinder.c                 0x00000000   Number         0  unwinder.o ABSOLUTE
    ../../../clib/unwinder.c                 0x00000000   Number         0  unwinder.o ABSOLUTE
    ../../../clib/unwinder.c                 0x00000000   Number         0  unwind_activity.o ABSOLUTE
    ../../../clib/unwinder.c                 0x00000000   Number         0  unwind_activity.o ABSOLUTE
    ../../../edgfe/lib_src/arm_exceptions.c  0x00000000   Number         0  arm_exceptions_mem.o ABSOLUTE
    ../../../edgfe/lib_src/arm_exceptions.c  0x00000000   Number         0  arm_exceptions_alloc.o ABSOLUTE
    ../../../edgfe/lib_src/arm_exceptions.c  0x00000000   Number         0  arm_exceptions_globs.o ABSOLUTE
    ../../../edgfe/lib_src/arm_exceptions.c  0x00000000   Number         0  arm_exceptions_foreign.o ABSOLUTE
    ../../../edgfe/lib_src/arm_exceptions.c  0x00000000   Number         0  arm_exceptions_support.o ABSOLUTE
    ../../../edgfe/lib_src/arm_exceptions.c  0x00000000   Number         0  arm_exceptions_terminate.o ABSOLUTE
    ../../../edgfe/lib_src/arm_exceptions.c  0x00000000   Number         0  arm_exceptions_free.o ABSOLUTE
    ../../../edgfe/lib_src/arm_exceptions.c  0x00000000   Number         0  arm_exceptions_cleanup.o ABSOLUTE
    ../../../edgfe/lib_src/arm_exceptions.c  0x00000000   Number         0  arm_exceptions_cleanup.o ABSOLUTE
    ../../../edgfe/lib_src/arm_exceptions.c  0x00000000   Number         0  arm_exceptions_callterm.o ABSOLUTE
    ../../../edgfe/lib_src/arm_noexceptions.c 0x00000000   Number         0  arm_newhandler_noexceptions.o ABSOLUTE
    ../../../edgfe/lib_src/arm_noexceptions.c 0x00000000   Number         0  arm_endcatch_noexceptions.o ABSOLUTE
    ../../../edgfe/lib_src/arm_noexceptions.c 0x00000000   Number         0  arm_callunex_noexceptions.o ABSOLUTE
    ../../../edgfe/lib_src/arm_noexceptions.c 0x00000000   Number         0  arm_begincatch_noexceptions.o ABSOLUTE
    ../../../edgfe/lib_src/arm_noexceptions.c 0x00000000   Number         0  arm_rethrow_noexceptions.o ABSOLUTE
    ../../../edgfe/lib_src/array_del.c       0x00000000   Number         0  array_del.o ABSOLUTE
    ../../../edgfe/lib_src/array_new.c       0x00000000   Number         0  array_new.o ABSOLUTE
    ../../../edgfe/lib_src/bad_alloc.c       0x00000000   Number         0  bad_alloc_what.o ABSOLUTE
    ../../../edgfe/lib_src/bad_alloc.c       0x00000000   Number         0  bad_alloc_dtor.o ABSOLUTE
    ../../../edgfe/lib_src/delete.c          0x00000000   Number         0  delete.o ABSOLUTE
    ../../../edgfe/lib_src/exception.c       0x00000000   Number         0  exception_what.o ABSOLUTE
    ../../../edgfe/lib_src/exception.c       0x00000000   Number         0  exception_ctor.o ABSOLUTE
    ../../../edgfe/lib_src/exception.c       0x00000000   Number         0  exception_dtor.o ABSOLUTE
    ../../../edgfe/lib_src/guard.c           0x00000000   Number         0  cxa_guard_acquire.o ABSOLUTE
    ../../../edgfe/lib_src/guard.c           0x00000000   Number         0  cxa_guard_abort.o ABSOLUTE
    ../../../edgfe/lib_src/guard.c           0x00000000   Number         0  cxa_guard_release.o ABSOLUTE
    ../../../edgfe/lib_src/new.c             0x00000000   Number         0  new.o ABSOLUTE
    ../../../edgfe/lib_src/typeinfo.c        0x00000000   Number         0  type_info_dtor.o ABSOLUTE
    ../../../edgfe/lib_src/typeinfo.c        0x00000000   Number         0  lib_rtti_impl.o ABSOLUTE
    ../../../edgfe/lib_src/vec_newdel.c      0x00000000   Number         0  cxa_throw_bad_array_new_length.o ABSOLUTE
    ../../../edgfe/lib_src/vec_newdel.c      0x00000000   Number         0  array_new_general.o ABSOLUTE
    ../../../edgfe/lib_src/vec_newdel.c      0x00000000   Number         0  ARM_vec_cleanup_noexceptions.o ABSOLUTE
    ../../../edgfe/lib_src/vec_newdel.c      0x00000000   Number         0  cxa_vec_new.o ABSOLUTE
    ../../array_helpers.cpp                  0x00000000   Number         0  aeabi_vec_dtor_noexceptions.o ABSOLUTE
    ../../array_helpers.cpp                  0x00000000   Number         0  aeabi_vec_ctor_nocookie_nodtor.o ABSOLUTE
    ../../array_helpers.cpp                  0x00000000   Number         0  aeabi_vec_new_cookie.o ABSOLUTE
    ../../array_helpers.cpp                  0x00000000   Number         0  aeabi_vec_dtor_cookie.o ABSOLUTE
    ../../array_helpers.cpp                  0x00000000   Number         0  aeabi_vec_delete_noexceptions.o ABSOLUTE
    ../../stdlib/source/char.cpp             0x00000000   Number         0  char.o ABSOLUTE
    ../../stdlib/source/locale.cpp           0x00000000   Number         0  locale.o ABSOLUTE
    ../../stdlib/source/messages.cpp         0x00000000   Number         0  messages.o ABSOLUTE
    ../../stdlib/source/rwalloc.cpp          0x00000000   Number         0  rwalloc.o ABSOLUTE
    ../../stdlib/source/rwcats.cpp           0x00000000   Number         0  rwcats.o ABSOLUTE
    ../../stdlib/source/rwstdexcept.cpp      0x00000000   Number         0  rwstdexcept.o ABSOLUTE
    ../../stdlib/source/rwthrowproc_impl_noex.cpp 0x00000000   Number         0  rwthrowproc_impl_noex.o ABSOLUTE
    ../../stdlib/source/rwthrowproc_noex.cpp 0x00000000   Number         0  rwthrowproc_noex.o ABSOLUTE
    ../../stdlib/source/vendor.cpp           0x00000000   Number         0  vendor.o ABSOLUTE
    ../clib/angel/boardlib.s                 0x00000000   Number         0  boardinit1.o ABSOLUTE
    ../clib/angel/boardlib.s                 0x00000000   Number         0  boardshut.o ABSOLUTE
    ../clib/angel/boardlib.s                 0x00000000   Number         0  boardinit3.o ABSOLUTE
    ../clib/angel/boardlib.s                 0x00000000   Number         0  boardinit2.o ABSOLUTE
    ../clib/angel/dclz77c.s                  0x00000000   Number         0  __dclz77c.o ABSOLUTE
    ../clib/angel/handlers.s                 0x00000000   Number         0  __scatter_zi.o ABSOLUTE
    ../clib/angel/kernel.s                   0x00000000   Number         0  __rtentry.o ABSOLUTE
    ../clib/angel/kernel.s                   0x00000000   Number         0  rtexit2.o ABSOLUTE
    ../clib/angel/kernel.s                   0x00000000   Number         0  rtexit.o ABSOLUTE
    ../clib/angel/kernel.s                   0x00000000   Number         0  __rtentry4.o ABSOLUTE
    ../clib/angel/kernel.s                   0x00000000   Number         0  __rtentry2.o ABSOLUTE
    ../clib/angel/rt.s                       0x00000000   Number         0  aeabi_ldiv0.o ABSOLUTE
    ../clib/angel/rt.s                       0x00000000   Number         0  rt_raise.o ABSOLUTE
    ../clib/angel/rt.s                       0x00000000   Number         0  rt_ctype_table.o ABSOLUTE
    ../clib/angel/rt.s                       0x00000000   Number         0  rt_eh_globals_addr.o ABSOLUTE
    ../clib/angel/rt.s                       0x00000000   Number         0  aeabi_ldiv0_sigfpe.o ABSOLUTE
    ../clib/angel/rt.s                       0x00000000   Number         0  rt_new_handler_addr.o ABSOLUTE
    ../clib/angel/rt.s                       0x00000000   Number         0  rt_eh_globals_addr_intlibspace.o ABSOLUTE
    ../clib/angel/rt.s                       0x00000000   Number         0  rt_errno_addr.o ABSOLUTE
    ../clib/angel/rt.s                       0x00000000   Number         0  rt_errno_addr_intlibspace.o ABSOLUTE
    ../clib/angel/rt.s                       0x00000000   Number         0  rt_locale.o ABSOLUTE
    ../clib/angel/rt.s                       0x00000000   Number         0  rt_heap_descriptor_intlibspace.o ABSOLUTE
    ../clib/angel/rt.s                       0x00000000   Number         0  rt_heap_descriptor.o ABSOLUTE
    ../clib/angel/rt.s                       0x00000000   Number         0  rt_new_handler_addr_intlibspace.o ABSOLUTE
    ../clib/angel/rt.s                       0x00000000   Number         0  rt_ddtor_pointer_addr_intlibspace.o ABSOLUTE
    ../clib/angel/rt.s                       0x00000000   Number         0  rt_div0.o ABSOLUTE
    ../clib/angel/rt.s                       0x00000000   Number         0  rt_ddtor_pointer_addr.o ABSOLUTE
    ../clib/angel/rt.s                       0x00000000   Number         0  rt_locale_intlibspace.o ABSOLUTE
    ../clib/angel/scatter.s                  0x00000000   Number         0  __scatter.o ABSOLUTE
    ../clib/angel/startup.s                  0x00000000   Number         0  __main.o ABSOLUTE
    ../clib/angel/sys.s                      0x00000000   Number         0  use_no_semi.o ABSOLUTE
    ../clib/angel/sys.s                      0x00000000   Number         0  sys_stackheap_outer.o ABSOLUTE
    ../clib/angel/sys.s                      0x00000000   Number         0  mutex_dummy.o ABSOLUTE
    ../clib/angel/sys.s                      0x00000000   Number         0  indicate_semi.o ABSOLUTE
    ../clib/angel/sys.s                      0x00000000   Number         0  libspace.o ABSOLUTE
    ../clib/angel/sysapp.c                   0x00000000   Number         0  getenv.o ABSOLUTE
    ../clib/angel/sysapp.c                   0x00000000   Number         0  sys_exit.o ABSOLUTE
    ../clib/angel/sysapp.c                   0x00000000   Number         0  sys_command.o ABSOLUTE
    ../clib/angel/sysapp.c                   0x00000000   Number         0  sys_io.o ABSOLUTE
    ../clib/angel/sysapp.c                   0x00000000   Number         0  sys_wrch.o ABSOLUTE
    ../clib/arm_runtime.c                    0x00000000   Number         0  init_aeabi.o ABSOLUTE
    ../clib/arm_runtime.c                    0x00000000   Number         0  init_aeabi.o ABSOLUTE
    ../clib/armsys.c                         0x00000000   Number         0  _get_argv.o ABSOLUTE
    ../clib/armsys.c                         0x00000000   Number         0  argv_veneer.o ABSOLUTE
    ../clib/armsys.c                         0x00000000   Number         0  no_argv.o ABSOLUTE
    ../clib/armsys.c                         0x00000000   Number         0  _get_argv_nomalloc.o ABSOLUTE
    ../clib/armsys.c                         0x00000000   Number         0  argv_veneer.o ABSOLUTE
    ../clib/assert.c                         0x00000000   Number         0  assert_stdio.o ABSOLUTE
    ../clib/bigflt.c                         0x00000000   Number         0  bigflt0.o ABSOLUTE
    ../clib/btod.s                           0x00000000   Number         0  btod.o ABSOLUTE
    ../clib/ctype.c                          0x00000000   Number         0  isspace.o ABSOLUTE
    ../clib/fenv.c                           0x00000000   Number         0  _rserrno.o ABSOLUTE
    ../clib/heap1.c                          0x00000000   Number         0  h1_init.o ABSOLUTE
    ../clib/heap1.c                          0x00000000   Number         0  h1_free.o ABSOLUTE
    ../clib/heap1.c                          0x00000000   Number         0  h1_extend.o ABSOLUTE
    ../clib/heap1.c                          0x00000000   Number         0  h1_alloc.o ABSOLUTE
    ../clib/heap1.c                          0x00000000   Number         0  h1_init_mt.o ABSOLUTE
    ../clib/heap1.c                          0x00000000   Number         0  h1_free_mt.o ABSOLUTE
    ../clib/heap1.c                          0x00000000   Number         0  h1_final.o ABSOLUTE
    ../clib/heap1.c                          0x00000000   Number         0  h1_extend_mt.o ABSOLUTE
    ../clib/heap1.c                          0x00000000   Number         0  h1_final_mt.o ABSOLUTE
    ../clib/heap1.c                          0x00000000   Number         0  h1_alloc_mt.o ABSOLUTE
    ../clib/heap2.c                          0x00000000   Number         0  heap2.o ABSOLUTE
    ../clib/heap2.c                          0x00000000   Number         0  heap2mt.o ABSOLUTE
    ../clib/heap2.c                          0x00000000   Number         0  fdtree.o ABSOLUTE
    ../clib/heapalloc.c                      0x00000000   Number         0  term_alloc.o ABSOLUTE
    ../clib/heapalloc.c                      0x00000000   Number         0  heapstubs.o ABSOLUTE
    ../clib/heapalloc.c                      0x00000000   Number         0  free.o ABSOLUTE
    ../clib/heapalloc.c                      0x00000000   Number         0  malloc.o ABSOLUTE
    ../clib/heapalloc.c                      0x00000000   Number         0  maybetermalloc2.o ABSOLUTE
    ../clib/heapalloc.c                      0x00000000   Number         0  hguard.o ABSOLUTE
    ../clib/heapalloc.c                      0x00000000   Number         0  init_alloc.o ABSOLUTE
    ../clib/heapalloc.c                      0x00000000   Number         0  hrguard.o ABSOLUTE
    ../clib/heapalloc.c                      0x00000000   Number         0  maybetermalloc1.o ABSOLUTE
    ../clib/heapalloc.c                      0x00000000   Number         0  maybetermalloc1.o ABSOLUTE
    ../clib/heapalloc.c                      0x00000000   Number         0  maybetermalloc2.o ABSOLUTE
    ../clib/heapaux.c                        0x00000000   Number         0  heapauxa.o ABSOLUTE
    ../clib/heapaux.c                        0x00000000   Number         0  heapauxi.o ABSOLUTE
    ../clib/libinit.s                        0x00000000   Number         0  libinit2.o ABSOLUTE
    ../clib/libinit.s                        0x00000000   Number         0  libinit.o ABSOLUTE
    ../clib/libinit.s                        0x00000000   Number         0  libshutdown.o ABSOLUTE
    ../clib/libinit.s                        0x00000000   Number         0  libshutdown2.o ABSOLUTE
    ../clib/locale.c                         0x00000000   Number         0  _mbcurmax.o ABSOLUTE
    ../clib/locale.c                         0x00000000   Number         0  wcrtomb.o ABSOLUTE
    ../clib/locale.c                         0x00000000   Number         0  mbrtowc.o ABSOLUTE
    ../clib/locale.c                         0x00000000   Number         0  locale.o ABSOLUTE
    ../clib/locale.c                         0x00000000   Number         0  locale_r.o ABSOLUTE
    ../clib/locale.c                         0x00000000   Number         0  _lconv.o ABSOLUTE
    ../clib/locale.c                         0x00000000   Number         0  localeconv.o ABSOLUTE
    ../clib/locale.c                         0x00000000   Number         0  _wcrtomb.o ABSOLUTE
    ../clib/locale.c                         0x00000000   Number         0  _mbrtowc.o ABSOLUTE
    ../clib/locale.s                         0x00000000   Number         0  lc_ctype_c.o ABSOLUTE
    ../clib/locale.s                         0x00000000   Number         0  lc_collate_c.o ABSOLUTE
    ../clib/locale.s                         0x00000000   Number         0  lc_numeric_c.o ABSOLUTE
    ../clib/locale.s                         0x00000000   Number         0  null_locale.o ABSOLUTE
    ../clib/locale.s                         0x00000000   Number         0  lc_monetary_c.o ABSOLUTE
    ../clib/longlong.s                       0x00000000   Number         0  lludiv10.o ABSOLUTE
    ../clib/longlong.s                       0x00000000   Number         0  llsdiv.o ABSOLUTE
    ../clib/longlong.s                       0x00000000   Number         0  llshl.o ABSOLUTE
    ../clib/longlong.s                       0x00000000   Number         0  lludivv7m.o ABSOLUTE
    ../clib/memcpset.s                       0x00000000   Number         0  rt_memclr_w.o ABSOLUTE
    ../clib/memcpset.s                       0x00000000   Number         0  rt_memmove_w.o ABSOLUTE
    ../clib/memcpset.s                       0x00000000   Number         0  rt_memcpy_w.o ABSOLUTE
    ../clib/memcpset.s                       0x00000000   Number         0  rt_memclr.o ABSOLUTE
    ../clib/memcpset.s                       0x00000000   Number         0  rt_memmove_v6.o ABSOLUTE
    ../clib/memcpset.s                       0x00000000   Number         0  strcmpv7m.o ABSOLUTE
    ../clib/memcpset.s                       0x00000000   Number         0  memcpy.o ABSOLUTE
    ../clib/memcpset.s                       0x00000000   Number         0  rt_memcpy_v6.o ABSOLUTE
    ../clib/misc.s                           0x00000000   Number         0  printf_stubs.o ABSOLUTE
    ../clib/printf.c                         0x00000000   Number         0  __printf_flags_wp.o ABSOLUTE
    ../clib/printf.c                         0x00000000   Number         0  vsnprintf.o ABSOLUTE
    ../clib/printf.c                         0x00000000   Number         0  _printf_hex_int_ll.o ABSOLUTE
    ../clib/printf.c                         0x00000000   Number         0  __printf_ss.o ABSOLUTE
    ../clib/printf.c                         0x00000000   Number         0  _printf_hex_int.o ABSOLUTE
    ../clib/printf.c                         0x00000000   Number         0  _printf_hex_ll.o ABSOLUTE
    ../clib/printf.c                         0x00000000   Number         0  __printf_flags.o ABSOLUTE
    ../clib/printf.c                         0x00000000   Number         0  __printf_flags_ss.o ABSOLUTE
    ../clib/printf.c                         0x00000000   Number         0  _printf_fp_dec.o ABSOLUTE
    ../clib/printf.c                         0x00000000   Number         0  __printf_ss_wp.o ABSOLUTE
    ../clib/printf.c                         0x00000000   Number         0  __printf_flags_ss_wp.o ABSOLUTE
    ../clib/printf.c                         0x00000000   Number         0  sprintf.o ABSOLUTE
    ../clib/printf.c                         0x00000000   Number         0  _printf_oct_int_ll.o ABSOLUTE
    ../clib/printf.c                         0x00000000   Number         0  _printf_char_file_locked.o ABSOLUTE
    ../clib/printf.c                         0x00000000   Number         0  _printf_hex_int_ll_ptr.o ABSOLUTE
    ../clib/printf.c                         0x00000000   Number         0  _printf_fp_hex.o ABSOLUTE
    ../clib/printf.c                         0x00000000   Number         0  _printf_oct_ll.o ABSOLUTE
    ../clib/printf.c                         0x00000000   Number         0  _printf_hex_ll_ptr.o ABSOLUTE
    ../clib/printf.c                         0x00000000   Number         0  __printf.o ABSOLUTE
    ../clib/printf.c                         0x00000000   Number         0  _printf_longlong_dec.o ABSOLUTE
    ../clib/printf.c                         0x00000000   Number         0  __printf_nopercent.o ABSOLUTE
    ../clib/printf.c                         0x00000000   Number         0  _printf_wctomb.o ABSOLUTE
    ../clib/printf.c                         0x00000000   Number         0  _printf_char_file.o ABSOLUTE
    ../clib/printf.c                         0x00000000   Number         0  _printf_char.o ABSOLUTE
    ../clib/printf.c                         0x00000000   Number         0  _printf_fp_infnan.o ABSOLUTE
    ../clib/printf.c                         0x00000000   Number         0  _snputc.o ABSOLUTE
    ../clib/printf.c                         0x00000000   Number         0  _printf_pad.o ABSOLUTE
    ../clib/printf.c                         0x00000000   Number         0  _printf_intcommon.o ABSOLUTE
    ../clib/printf.c                         0x00000000   Number         0  _printf_oct_int.o ABSOLUTE
    ../clib/printf.c                         0x00000000   Number         0  __2sprintf.o ABSOLUTE
    ../clib/printf.c                         0x00000000   Number         0  _sputc.o ABSOLUTE
    ../clib/printf.c                         0x00000000   Number         0  _printf_wchar.o ABSOLUTE
    ../clib/printf.c                         0x00000000   Number         0  __printf_wp.o ABSOLUTE
    ../clib/printf.c                         0x00000000   Number         0  _printf_char_common.o ABSOLUTE
    ../clib/printf.c                         0x00000000   Number         0  _printf_hex_int_ptr.o ABSOLUTE
    ../clib/printf.c                         0x00000000   Number         0  _printf_charcount.o ABSOLUTE
    ../clib/printf.c                         0x00000000   Number         0  _printf_hex_ptr.o ABSOLUTE
    ../clib/printf.c                         0x00000000   Number         0  fprintf.o ABSOLUTE
    ../clib/printf.c                         0x00000000   Number         0  _printf_dec.o ABSOLUTE
    ../clib/printf.c                         0x00000000   Number         0  _printf_str.o ABSOLUTE
    ../clib/printf.c                         0x00000000   Number         0  _printf_truncate.o ABSOLUTE
    ../clib/printf.c                         0x00000000   Number         0  noretval__2sprintf.o ABSOLUTE
    ../clib/printf_percent.s                 0x00000000   Number         0  _printf_a.o ABSOLUTE
    ../clib/printf_percent.s                 0x00000000   Number         0  _printf_g.o ABSOLUTE
    ../clib/printf_percent.s                 0x00000000   Number         0  _printf_e.o ABSOLUTE
    ../clib/printf_percent.s                 0x00000000   Number         0  _printf_f.o ABSOLUTE
    ../clib/printf_percent.s                 0x00000000   Number         0  _printf_u.o ABSOLUTE
    ../clib/printf_percent.s                 0x00000000   Number         0  _printf_d.o ABSOLUTE
    ../clib/printf_percent.s                 0x00000000   Number         0  _printf_i.o ABSOLUTE
    ../clib/printf_percent.s                 0x00000000   Number         0  _printf_o.o ABSOLUTE
    ../clib/printf_percent.s                 0x00000000   Number         0  _printf_x.o ABSOLUTE
    ../clib/printf_percent.s                 0x00000000   Number         0  _printf_n.o ABSOLUTE
    ../clib/printf_percent.s                 0x00000000   Number         0  _printf_s.o ABSOLUTE
    ../clib/printf_percent.s                 0x00000000   Number         0  _printf_c.o ABSOLUTE
    ../clib/printf_percent.s                 0x00000000   Number         0  _printf_p.o ABSOLUTE
    ../clib/printf_percent.s                 0x00000000   Number         0  _printf_percent_end.o ABSOLUTE
    ../clib/printf_percent.s                 0x00000000   Number         0  _printf_llx.o ABSOLUTE
    ../clib/printf_percent.s                 0x00000000   Number         0  _printf_llo.o ABSOLUTE
    ../clib/printf_percent.s                 0x00000000   Number         0  _printf_ls.o ABSOLUTE
    ../clib/printf_percent.s                 0x00000000   Number         0  _printf_lc.o ABSOLUTE
    ../clib/printf_percent.s                 0x00000000   Number         0  _printf_l.o ABSOLUTE
    ../clib/printf_percent.s                 0x00000000   Number         0  _printf_ll.o ABSOLUTE
    ../clib/printf_percent.s                 0x00000000   Number         0  _printf_llu.o ABSOLUTE
    ../clib/printf_percent.s                 0x00000000   Number         0  _printf_lld.o ABSOLUTE
    ../clib/printf_percent.s                 0x00000000   Number         0  _printf_lli.o ABSOLUTE
    ../clib/printf_percent.s                 0x00000000   Number         0  _printf_percent.o ABSOLUTE
    ../clib/scanf.c                          0x00000000   Number         0  _scanf_wstr.o ABSOLUTE
    ../clib/scanf.c                          0x00000000   Number         0  _scanf_wctomb.o ABSOLUTE
    ../clib/scanf.c                          0x00000000   Number         0  _scanf_longlong.o ABSOLUTE
    ../clib/scanf.c                          0x00000000   Number         0  _scanf_int.o ABSOLUTE
    ../clib/scanf.c                          0x00000000   Number         0  __strtoull.o ABSOLUTE
    ../clib/scanf.c                          0x00000000   Number         0  _scanf_mbtowc.o ABSOLUTE
    ../clib/scanf.c                          0x00000000   Number         0  _scanf_str.o ABSOLUTE
    ../clib/scanf.c                          0x00000000   Number         0  scanf_char.o ABSOLUTE
    ../clib/scanf.c                          0x00000000   Number         0  _sgetc.o ABSOLUTE
    ../clib/scanf.c                          0x00000000   Number         0  _scanf_wcharmap.o ABSOLUTE
    ../clib/scanf.c                          0x00000000   Number         0  strtoull.o ABSOLUTE
    ../clib/scanf.c                          0x00000000   Number         0  scanf_fp.o ABSOLUTE
    ../clib/scanf.c                          0x00000000   Number         0  sscanf.o ABSOLUTE
    ../clib/scanf.c                          0x00000000   Number         0  scanf_hexfp.o ABSOLUTE
    ../clib/scanf.c                          0x00000000   Number         0  _scanf.o ABSOLUTE
    ../clib/scanf.c                          0x00000000   Number         0  scanf_infnan.o ABSOLUTE
    ../clib/scanf.c                          0x00000000   Number         0  _strtoull.o ABSOLUTE
    ../clib/scanf.c                          0x00000000   Number         0  _chval.o ABSOLUTE
    ../clib/signal.c                         0x00000000   Number         0  defsig_rtred_outer.o ABSOLUTE
    ../clib/signal.c                         0x00000000   Number         0  defsig_fpe_inner.o ABSOLUTE
    ../clib/signal.c                         0x00000000   Number         0  defsig_abrt_inner.o ABSOLUTE
    ../clib/signal.c                         0x00000000   Number         0  defsig_exit.o ABSOLUTE
    ../clib/signal.c                         0x00000000   Number         0  defsig_rtred_inner.o ABSOLUTE
    ../clib/signal.c                         0x00000000   Number         0  defsig_segv_inner.o ABSOLUTE
    ../clib/signal.c                         0x00000000   Number         0  defsig_fpe_formal.o ABSOLUTE
    ../clib/signal.c                         0x00000000   Number         0  defsig_pvfn_inner.o ABSOLUTE
    ../clib/signal.c                         0x00000000   Number         0  defsig_fpe_outer.o ABSOLUTE
    ../clib/signal.c                         0x00000000   Number         0  defsig_abrt_formal.o ABSOLUTE
    ../clib/signal.c                         0x00000000   Number         0  defsig_abrt_outer.o ABSOLUTE
    ../clib/signal.c                         0x00000000   Number         0  defsig_other.o ABSOLUTE
    ../clib/signal.c                         0x00000000   Number         0  __raise.o ABSOLUTE
    ../clib/signal.c                         0x00000000   Number         0  defsig_general.o ABSOLUTE
    ../clib/signal.c                         0x00000000   Number         0  defsig_rtmem_inner.o ABSOLUTE
    ../clib/signal.c                         0x00000000   Number         0  defsig_cppl_inner.o ABSOLUTE
    ../clib/signal.c                         0x00000000   Number         0  defsig_stak_inner.o ABSOLUTE
    ../clib/signal.c                         0x00000000   Number         0  defsig_rtred_formal.o ABSOLUTE
    ../clib/signal.c                         0x00000000   Number         0  defsig_rtmem_formal.o ABSOLUTE
    ../clib/signal.c                         0x00000000   Number         0  defsig_rtmem_outer.o ABSOLUTE
    ../clib/signal.s                         0x00000000   Number         0  defsig.o ABSOLUTE
    ../clib/stdio.c                          0x00000000   Number         0  flsbuf.o ABSOLUTE
    ../clib/stdio.c                          0x00000000   Number         0  ftell.o ABSOLUTE
    ../clib/stdio.c                          0x00000000   Number         0  fwritefast.o ABSOLUTE
    ../clib/stdio.c                          0x00000000   Number         0  fflush_locked.o ABSOLUTE
    ../clib/stdio.c                          0x00000000   Number         0  fopen_locked.o ABSOLUTE
    ../clib/stdio.c                          0x00000000   Number         0  fwritefast_locked.o ABSOLUTE
    ../clib/stdio.c                          0x00000000   Number         0  fputs_locked.o ABSOLUTE
    ../clib/stdio.c                          0x00000000   Number         0  fputs.o ABSOLUTE
    ../clib/stdio.c                          0x00000000   Number         0  ferror_locked.o ABSOLUTE
    ../clib/stdio.c                          0x00000000   Number         0  fflush.o ABSOLUTE
    ../clib/stdio.c                          0x00000000   Number         0  fputc_locked.o ABSOLUTE
    ../clib/stdio.c                          0x00000000   Number         0  fclose.o ABSOLUTE
    ../clib/stdio.c                          0x00000000   Number         0  stdio.o ABSOLUTE
    ../clib/stdio.c                          0x00000000   Number         0  fopen.o ABSOLUTE
    ../clib/stdio.c                          0x00000000   Number         0  setvbuf_locked.o ABSOLUTE
    ../clib/stdio.c                          0x00000000   Number         0  ferror.o ABSOLUTE
    ../clib/stdio.c                          0x00000000   Number         0  streamlock.o ABSOLUTE
    ../clib/stdio.c                          0x00000000   Number         0  setvbuf.o ABSOLUTE
    ../clib/stdio.c                          0x00000000   Number         0  fputc.o ABSOLUTE
    ../clib/stdio.c                          0x00000000   Number         0  stdio_streams.o ABSOLUTE
    ../clib/stdio.c                          0x00000000   Number         0  initio.o ABSOLUTE
    ../clib/stdio.c                          0x00000000   Number         0  fseek.o ABSOLUTE
    ../clib/stdio.c                          0x00000000   Number         0  initio_locked.o ABSOLUTE
    ../clib/stdlib.c                         0x00000000   Number         0  abort.o ABSOLUTE
    ../clib/stdlib.c                         0x00000000   Number         0  cxa_finalize.o ABSOLUTE
    ../clib/stdlib.c                         0x00000000   Number         0  aeabi_atexit.o ABSOLUTE
    ../clib/stdlib.c                         0x00000000   Number         0  exit.o ABSOLUTE
    ../clib/stdlib.c                         0x00000000   Number         0  bsearchnoex.o ABSOLUTE
    ../clib/stdlib.c                         0x00000000   Number         0  atexit_aeabi.o ABSOLUTE
    ../clib/string.c                         0x00000000   Number         0  strrchr.o ABSOLUTE
    ../clib/string.c                         0x00000000   Number         0  strcpy.o ABSOLUTE
    ../clib/string.c                         0x00000000   Number         0  strxfrm.o ABSOLUTE
    ../clib/string.c                         0x00000000   Number         0  strlen.o ABSOLUTE
    ../clib/string.c                         0x00000000   Number         0  strcoll.o ABSOLUTE
    ../clib/string.c                         0x00000000   Number         0  strcat.o ABSOLUTE
    ../clib/wchar.c                          0x00000000   Number         0  flsbuf_fwide.o ABSOLUTE
    ../fplib/basic.s                         0x00000000   Number         0  basic.o ABSOLUTE
    ../fplib/d2f.s                           0x00000000   Number         0  d2f.o ABSOLUTE
    ../fplib/daddsub.s                       0x00000000   Number         0  daddsub_clz.o ABSOLUTE
    ../fplib/dcheck1.s                       0x00000000   Number         0  dcheck1.o ABSOLUTE
    ../fplib/dcmpi.s                         0x00000000   Number         0  dcmpi.o ABSOLUTE
    ../fplib/ddiv.s                          0x00000000   Number         0  ddiv.o ABSOLUTE
    ../fplib/deqf.s                          0x00000000   Number         0  deqf.o ABSOLUTE
    ../fplib/dfix.s                          0x00000000   Number         0  dfix.o ABSOLUTE
    ../fplib/dfixll.s                        0x00000000   Number         0  dfixll.o ABSOLUTE
    ../fplib/dfixu.s                         0x00000000   Number         0  dfixu.o ABSOLUTE
    ../fplib/dflt.s                          0x00000000   Number         0  dflt_clz.o ABSOLUTE
    ../fplib/dfltll.s                        0x00000000   Number         0  dfltll_clz.o ABSOLUTE
    ../fplib/dleqf.s                         0x00000000   Number         0  dleqf.o ABSOLUTE
    ../fplib/dmul.s                          0x00000000   Number         0  dmul.o ABSOLUTE
    ../fplib/dnaninf.s                       0x00000000   Number         0  dnaninf.o ABSOLUTE
    ../fplib/dretinf.s                       0x00000000   Number         0  dretinf.o ABSOLUTE
    ../fplib/drleqf.s                        0x00000000   Number         0  drleqf.o ABSOLUTE
    ../fplib/dsqrt.s                         0x00000000   Number         0  dsqrt_umaal.o ABSOLUTE
    ../fplib/f2d.s                           0x00000000   Number         0  f2d.o ABSOLUTE
    ../fplib/ffixll.s                        0x00000000   Number         0  ffixll.o ABSOLUTE
    ../fplib/ffltll.s                        0x00000000   Number         0  ffltll_clz.o ABSOLUTE
    ../fplib/fnaninf.s                       0x00000000   Number         0  fnaninf.o ABSOLUTE
    ../fplib/fpconst.s                       0x00000000   Number         0  fpconst.o ABSOLUTE
    ../fplib/fpinit.s                        0x00000000   Number         0  fpinit.o ABSOLUTE
    ../fplib/fretinf.s                       0x00000000   Number         0  fretinf.o ABSOLUTE
    ../fplib/istatus.s                       0x00000000   Number         0  istatus.o ABSOLUTE
    ../fplib/printf1.s                       0x00000000   Number         0  printf1.o ABSOLUTE
    ../fplib/printf2.s                       0x00000000   Number         0  printf2.o ABSOLUTE
    ../fplib/printf2a.s                      0x00000000   Number         0  printf2a.o ABSOLUTE
    ../fplib/printf2b.s                      0x00000000   Number         0  printf2b.o ABSOLUTE
    ../fplib/retnan.s                        0x00000000   Number         0  retnan.o ABSOLUTE
    ../fplib/scalbn.s                        0x00000000   Number         0  scalbn.o ABSOLUTE
    ../fplib/scanf1.s                        0x00000000   Number         0  scanf1.o ABSOLUTE
    ../fplib/scanf2.s                        0x00000000   Number         0  scanf2.o ABSOLUTE
    ../fplib/scanf2a.s                       0x00000000   Number         0  scanf2a.o ABSOLUTE
    ../fplib/scanf2b.s                       0x00000000   Number         0  scanf2b.o ABSOLUTE
    ../fplib/trapv.s                         0x00000000   Number         0  trapv.o ABSOLUTE
    ../fplib/usenofp.s                       0x00000000   Number         0  usenofp.o ABSOLUTE
    ../mathlib/asin.c                        0x00000000   Number         0  asin.o ABSOLUTE
    ../mathlib/asin.c                        0x00000000   Number         0  asin_x.o ABSOLUTE
    ../mathlib/atan.c                        0x00000000   Number         0  atan.o ABSOLUTE
    ../mathlib/atan.c                        0x00000000   Number         0  atan_x.o ABSOLUTE
    ../mathlib/atan2.c                       0x00000000   Number         0  atan2.o ABSOLUTE
    ../mathlib/atan2.c                       0x00000000   Number         0  atan2_x.o ABSOLUTE
    ../mathlib/ceilf.c                       0x00000000   Number         0  ceilf.o ABSOLUTE
    ../mathlib/cos.c                         0x00000000   Number         0  cos.o ABSOLUTE
    ../mathlib/cos.c                         0x00000000   Number         0  cos_x.o ABSOLUTE
    ../mathlib/cos_i.c                       0x00000000   Number         0  cos_i.o ABSOLUTE
    ../mathlib/dunder.c                      0x00000000   Number         0  dunder.o ABSOLUTE
    ../mathlib/fabs.c                        0x00000000   Number         0  fabs.o ABSOLUTE
    ../mathlib/fpclassify.c                  0x00000000   Number         0  fpclassify.o ABSOLUTE
    ../mathlib/frexp.c                       0x00000000   Number         0  frexp.o ABSOLUTE
    ../mathlib/ldexp.c                       0x00000000   Number         0  ldexp.o ABSOLUTE
    ../mathlib/ldexp.c                       0x00000000   Number         0  ldexp_x.o ABSOLUTE
    ../mathlib/narrow.c                      0x00000000   Number         0  narrow.o ABSOLUTE
    ../mathlib/poly.c                        0x00000000   Number         0  poly.o ABSOLUTE
    ../mathlib/pow.c                         0x00000000   Number         0  pow.o ABSOLUTE
    ../mathlib/pow.c                         0x00000000   Number         0  pow_x.o ABSOLUTE
    ../mathlib/qnan.c                        0x00000000   Number         0  qnan.o ABSOLUTE
    ../mathlib/rred.c                        0x00000000   Number         0  rred.o ABSOLUTE
    ../mathlib/sin.c                         0x00000000   Number         0  sin_x.o ABSOLUTE
    ../mathlib/sin.c                         0x00000000   Number         0  sin.o ABSOLUTE
    ../mathlib/sin_i.c                       0x00000000   Number         0  sin_i.o ABSOLUTE
    ../mathlib/sin_i.c                       0x00000000   Number         0  sin_i_x.o ABSOLUTE
    ../mathlib/sqrt.c                        0x00000000   Number         0  sqrt_x.o ABSOLUTE
    ../mathlib/sqrt.c                        0x00000000   Number         0  sqrt.o ABSOLUTE
    ..\..\Libraries\SSD1306\src\SSD1306.cpp  0x00000000   Number         0  ssd1306.o ABSOLUTE
    ..\..\Libraries\mpu9250\src\mpu9250.cpp  0x00000000   Number         0  mpu9250.o ABSOLUTE
    ..\..\Libraries\stm32f407\periph_library\src\stm32f407_PWM.cpp 0x00000000   Number         0  stm32f407_pwm.o ABSOLUTE
    ..\..\Libraries\stm32f407\periph_library\src\stm32f407_SPI.cpp 0x00000000   Number         0  stm32f407_spi.o ABSOLUTE
    ..\..\Libraries\stm32f407\periph_library\src\stm32f407_UART.cpp 0x00000000   Number         0  stm32f407_uart.o ABSOLUTE
    ..\..\Libraries\stm32f407\periph_library\src\stm32f407_adc.cpp 0x00000000   Number         0  stm32f407_adc.o ABSOLUTE
    ..\..\Libraries\stm32f407\periph_library\src\stm32f407_pin.cpp 0x00000000   Number         0  stm32f407_pin.o ABSOLUTE
    ..\..\Libraries\stm32f407\periph_library\src\stm32f407_sysFunc.cpp 0x00000000   Number         0  stm32f407_sysfunc.o ABSOLUTE
    ..\\..\\Libraries\\SSD1306\\src\\SSD1306.cpp 0x00000000   Number         0  ssd1306.o ABSOLUTE
    ..\\..\\Libraries\\mpu9250\\src\\mpu9250.cpp 0x00000000   Number         0  mpu9250.o ABSOLUTE
    ..\\..\\Libraries\\stm32f407\\periph_library\\src\\stm32f407_PWM.cpp 0x00000000   Number         0  stm32f407_pwm.o ABSOLUTE
    ..\\..\\Libraries\\stm32f407\\periph_library\\src\\stm32f407_SPI.cpp 0x00000000   Number         0  stm32f407_spi.o ABSOLUTE
    ..\\..\\Libraries\\stm32f407\\periph_library\\src\\stm32f407_UART.cpp 0x00000000   Number         0  stm32f407_uart.o ABSOLUTE
    ..\\..\\Libraries\\stm32f407\\periph_library\\src\\stm32f407_adc.cpp 0x00000000   Number         0  stm32f407_adc.o ABSOLUTE
    ..\\..\\Libraries\\stm32f407\\periph_library\\src\\stm32f407_pin.cpp 0x00000000   Number         0  stm32f407_pin.o ABSOLUTE
    ..\\..\\Libraries\\stm32f407\\periph_library\\src\\stm32f407_sysFunc.cpp 0x00000000   Number         0  stm32f407_sysfunc.o ABSOLUTE
    CMSIS\\src\\system_stm32f4xx.c           0x00000000   Number         0  system_stm32f4xx.o ABSOLUTE
    CMSIS\src\system_stm32f4xx.c             0x00000000   Number         0  system_stm32f4xx.o ABSOLUTE
    code\\src\\main.cpp                      0x00000000   Number         0  main.o ABSOLUTE
    code\src\libs\FunctionalClass\FunctionalClass.cpp 0x00000000   Number         0  functionalclass.o ABSOLUTE
    code\src\main.cpp                        0x00000000   Number         0  main.o ABSOLUTE
    dc.s                                     0x00000000   Number         0  dc.o ABSOLUTE
    startup\startup_stm32f40xx.s             0x00000000   Number         0  startup_stm32f40xx.o ABSOLUTE
    RESET                                    0x08000000   Section      392  startup_stm32f40xx.o(RESET)
    !!!main                                  0x08000188   Section        8  __main.o(!!!main)
    !!!scatter                               0x08000190   Section       52  __scatter.o(!!!scatter)
    !!dclz77c                                0x080001c4   Section      100  __dclz77c.o(!!dclz77c)
    !!handler_zi                             0x08000228   Section       28  __scatter_zi.o(!!handler_zi)
    .ARM.Collect$$_printf_percent$$00000000  0x08000244   Section        0  _printf_percent.o(.ARM.Collect$$_printf_percent$$00000000)
    .ARM.Collect$$_printf_percent$$00000001  0x08000244   Section        6  _printf_n.o(.ARM.Collect$$_printf_percent$$00000001)
    .ARM.Collect$$_printf_percent$$00000002  0x0800024a   Section        6  _printf_p.o(.ARM.Collect$$_printf_percent$$00000002)
    .ARM.Collect$$_printf_percent$$00000003  0x08000250   Section        6  _printf_f.o(.ARM.Collect$$_printf_percent$$00000003)
    .ARM.Collect$$_printf_percent$$00000004  0x08000256   Section        6  _printf_e.o(.ARM.Collect$$_printf_percent$$00000004)
    .ARM.Collect$$_printf_percent$$00000005  0x0800025c   Section        6  _printf_g.o(.ARM.Collect$$_printf_percent$$00000005)
    .ARM.Collect$$_printf_percent$$00000006  0x08000262   Section        6  _printf_a.o(.ARM.Collect$$_printf_percent$$00000006)
    .ARM.Collect$$_printf_percent$$00000007  0x08000268   Section       10  _printf_ll.o(.ARM.Collect$$_printf_percent$$00000007)
    .ARM.Collect$$_printf_percent$$00000008  0x08000272   Section        6  _printf_i.o(.ARM.Collect$$_printf_percent$$00000008)
    .ARM.Collect$$_printf_percent$$00000009  0x08000278   Section        6  _printf_d.o(.ARM.Collect$$_printf_percent$$00000009)
    .ARM.Collect$$_printf_percent$$0000000A  0x0800027e   Section        6  _printf_u.o(.ARM.Collect$$_printf_percent$$0000000A)
    .ARM.Collect$$_printf_percent$$0000000B  0x08000284   Section        6  _printf_o.o(.ARM.Collect$$_printf_percent$$0000000B)
    .ARM.Collect$$_printf_percent$$0000000C  0x0800028a   Section        6  _printf_x.o(.ARM.Collect$$_printf_percent$$0000000C)
    .ARM.Collect$$_printf_percent$$0000000D  0x08000290   Section        6  _printf_lli.o(.ARM.Collect$$_printf_percent$$0000000D)
    .ARM.Collect$$_printf_percent$$0000000E  0x08000296   Section        6  _printf_lld.o(.ARM.Collect$$_printf_percent$$0000000E)
    .ARM.Collect$$_printf_percent$$0000000F  0x0800029c   Section        6  _printf_llu.o(.ARM.Collect$$_printf_percent$$0000000F)
    .ARM.Collect$$_printf_percent$$00000010  0x080002a2   Section        6  _printf_llo.o(.ARM.Collect$$_printf_percent$$00000010)
    .ARM.Collect$$_printf_percent$$00000011  0x080002a8   Section        6  _printf_llx.o(.ARM.Collect$$_printf_percent$$00000011)
    .ARM.Collect$$_printf_percent$$00000012  0x080002ae   Section       10  _printf_l.o(.ARM.Collect$$_printf_percent$$00000012)
    .ARM.Collect$$_printf_percent$$00000013  0x080002b8   Section        6  _printf_c.o(.ARM.Collect$$_printf_percent$$00000013)
    .ARM.Collect$$_printf_percent$$00000014  0x080002be   Section        6  _printf_s.o(.ARM.Collect$$_printf_percent$$00000014)
    .ARM.Collect$$_printf_percent$$00000015  0x080002c4   Section        6  _printf_lc.o(.ARM.Collect$$_printf_percent$$00000015)
    .ARM.Collect$$_printf_percent$$00000016  0x080002ca   Section        6  _printf_ls.o(.ARM.Collect$$_printf_percent$$00000016)
    .ARM.Collect$$_printf_percent$$00000017  0x080002d0   Section        4  _printf_percent_end.o(.ARM.Collect$$_printf_percent$$00000017)
    .ARM.Collect$$libinit$$00000000          0x080002d4   Section        2  libinit.o(.ARM.Collect$$libinit$$00000000)
    .ARM.Collect$$libinit$$00000001          0x080002d6   Section        4  libinit2.o(.ARM.Collect$$libinit$$00000001)
    .ARM.Collect$$libinit$$00000004          0x080002da   Section        0  libinit2.o(.ARM.Collect$$libinit$$00000004)
    .ARM.Collect$$libinit$$00000005          0x080002da   Section        8  libinit2.o(.ARM.Collect$$libinit$$00000005)
    .ARM.Collect$$libinit$$0000000A          0x080002e2   Section        0  libinit2.o(.ARM.Collect$$libinit$$0000000A)
    .ARM.Collect$$libinit$$0000000C          0x080002e2   Section        0  libinit2.o(.ARM.Collect$$libinit$$0000000C)
    .ARM.Collect$$libinit$$0000000E          0x080002e2   Section        0  libinit2.o(.ARM.Collect$$libinit$$0000000E)
    .ARM.Collect$$libinit$$0000000F          0x080002e2   Section        6  libinit2.o(.ARM.Collect$$libinit$$0000000F)
    .ARM.Collect$$libinit$$00000011          0x080002e8   Section        0  libinit2.o(.ARM.Collect$$libinit$$00000011)
    .ARM.Collect$$libinit$$00000012          0x080002e8   Section       12  libinit2.o(.ARM.Collect$$libinit$$00000012)
    .ARM.Collect$$libinit$$00000013          0x080002f4   Section        0  libinit2.o(.ARM.Collect$$libinit$$00000013)
    .ARM.Collect$$libinit$$00000015          0x080002f4   Section        0  libinit2.o(.ARM.Collect$$libinit$$00000015)
    .ARM.Collect$$libinit$$00000016          0x080002f4   Section       10  libinit2.o(.ARM.Collect$$libinit$$00000016)
    .ARM.Collect$$libinit$$00000017          0x080002fe   Section        0  libinit2.o(.ARM.Collect$$libinit$$00000017)
    .ARM.Collect$$libinit$$00000019          0x080002fe   Section        0  libinit2.o(.ARM.Collect$$libinit$$00000019)
    .ARM.Collect$$libinit$$0000001B          0x080002fe   Section        0  libinit2.o(.ARM.Collect$$libinit$$0000001B)
    .ARM.Collect$$libinit$$0000001D          0x080002fe   Section        0  libinit2.o(.ARM.Collect$$libinit$$0000001D)
    .ARM.Collect$$libinit$$0000001F          0x080002fe   Section        0  libinit2.o(.ARM.Collect$$libinit$$0000001F)
    .ARM.Collect$$libinit$$00000021          0x080002fe   Section        0  libinit2.o(.ARM.Collect$$libinit$$00000021)
    .ARM.Collect$$libinit$$00000023          0x080002fe   Section        0  libinit2.o(.ARM.Collect$$libinit$$00000023)
    .ARM.Collect$$libinit$$00000024          0x080002fe   Section        4  libinit2.o(.ARM.Collect$$libinit$$00000024)
    .ARM.Collect$$libinit$$00000025          0x08000302   Section        0  libinit2.o(.ARM.Collect$$libinit$$00000025)
    .ARM.Collect$$libinit$$0000002C          0x08000302   Section        0  libinit2.o(.ARM.Collect$$libinit$$0000002C)
    .ARM.Collect$$libinit$$0000002E          0x08000302   Section        0  libinit2.o(.ARM.Collect$$libinit$$0000002E)
    .ARM.Collect$$libinit$$00000030          0x08000302   Section        0  libinit2.o(.ARM.Collect$$libinit$$00000030)
    .ARM.Collect$$libinit$$00000031          0x08000302   Section        4  libinit2.o(.ARM.Collect$$libinit$$00000031)
    .ARM.Collect$$libinit$$00000032          0x08000306   Section        0  libinit2.o(.ARM.Collect$$libinit$$00000032)
    .ARM.Collect$$libinit$$00000033          0x08000306   Section        2  libinit2.o(.ARM.Collect$$libinit$$00000033)
    .ARM.Collect$$libshutdown$$00000000      0x08000308   Section        2  libshutdown.o(.ARM.Collect$$libshutdown$$00000000)
    .ARM.Collect$$libshutdown$$00000001      0x0800030a   Section        6  libshutdown2.o(.ARM.Collect$$libshutdown$$00000001)
    .ARM.Collect$$libshutdown$$00000002      0x08000310   Section        0  libshutdown2.o(.ARM.Collect$$libshutdown$$00000002)
    .ARM.Collect$$libshutdown$$00000003      0x08000310   Section        4  libshutdown2.o(.ARM.Collect$$libshutdown$$00000003)
    .ARM.Collect$$libshutdown$$00000004      0x08000314   Section        0  libshutdown2.o(.ARM.Collect$$libshutdown$$00000004)
    .ARM.Collect$$libshutdown$$00000007      0x08000314   Section        0  libshutdown2.o(.ARM.Collect$$libshutdown$$00000007)
    .ARM.Collect$$libshutdown$$0000000A      0x08000314   Section        0  libshutdown2.o(.ARM.Collect$$libshutdown$$0000000A)
    .ARM.Collect$$libshutdown$$0000000C      0x08000314   Section        0  libshutdown2.o(.ARM.Collect$$libshutdown$$0000000C)
    .ARM.Collect$$libshutdown$$0000000F      0x08000314   Section        0  libshutdown2.o(.ARM.Collect$$libshutdown$$0000000F)
    .ARM.Collect$$libshutdown$$00000010      0x08000314   Section        2  libshutdown2.o(.ARM.Collect$$libshutdown$$00000010)
    .ARM.Collect$$rtentry$$00000000          0x08000316   Section        0  __rtentry.o(.ARM.Collect$$rtentry$$00000000)
    .ARM.Collect$$rtentry$$00000002          0x08000316   Section        0  __rtentry2.o(.ARM.Collect$$rtentry$$00000002)
    .ARM.Collect$$rtentry$$00000004          0x08000316   Section        6  __rtentry4.o(.ARM.Collect$$rtentry$$00000004)
    .ARM.Collect$$rtentry$$00000009          0x0800031c   Section        0  __rtentry2.o(.ARM.Collect$$rtentry$$00000009)
    .ARM.Collect$$rtentry$$0000000A          0x0800031c   Section        4  __rtentry2.o(.ARM.Collect$$rtentry$$0000000A)
    .ARM.Collect$$rtentry$$0000000C          0x08000320   Section        0  __rtentry2.o(.ARM.Collect$$rtentry$$0000000C)
    .ARM.Collect$$rtentry$$0000000D          0x08000320   Section        8  __rtentry2.o(.ARM.Collect$$rtentry$$0000000D)
    .ARM.Collect$$rtexit$$00000000           0x08000328   Section        2  rtexit.o(.ARM.Collect$$rtexit$$00000000)
    .ARM.Collect$$rtexit$$00000002           0x0800032a   Section        0  rtexit2.o(.ARM.Collect$$rtexit$$00000002)
    .ARM.Collect$$rtexit$$00000003           0x0800032a   Section        4  rtexit2.o(.ARM.Collect$$rtexit$$00000003)
    .ARM.Collect$$rtexit$$00000004           0x0800032e   Section        6  rtexit2.o(.ARM.Collect$$rtexit$$00000004)
    .emb_text                                0x08000334   Section        0  maybetermalloc1.o(.emb_text)
    .text                                    0x08000334   Section       64  startup_stm32f40xx.o(.text)
    $v0                                      0x08000334   Number         0  startup_stm32f40xx.o(.text)
    .text                                    0x08000374   Section      238  lludivv7m.o(.text)
    .text                                    0x08000462   Section       72  llsdiv.o(.text)
    .text                                    0x080004aa   Section      100  rt_memcpy_w.o(.text)
    .text                                    0x0800050e   Section       68  rt_memclr.o(.text)
    .text                                    0x08000552   Section        0  heapauxi.o(.text)
    .text                                    0x08000558   Section        0  init_aeabi.o(.text)
    .text                                    0x0800057c   Section        8  rt_new_handler_addr_intlibspace.o(.text)
    .text                                    0x08000584   Section        0  h1_alloc.o(.text)
    .text                                    0x080005e2   Section        0  h1_free.o(.text)
    .text                                    0x08000630   Section        0  _rserrno.o(.text)
    .text                                    0x08000646   Section      138  rt_memcpy_v6.o(.text)
    .text                                    0x080006d0   Section      132  rt_memmove_v6.o(.text)
    .text                                    0x08000754   Section       78  rt_memclr_w.o(.text)
    .text                                    0x080007a2   Section        0  arm_newhandler_noexceptions.o(.text)
    .text                                    0x080007a8   Section        8  libspace.o(.text)
    .text                                    0x080007b0   Section        8  rt_heap_descriptor_intlibspace.o(.text)
    .text                                    0x080007b8   Section        8  rt_errno_addr_intlibspace.o(.text)
    .text                                    0x080007c0   Section        0  hguard.o(.text)
    .text                                    0x080007c4   Section        0  init_alloc.o(.text)
    .text                                    0x0800084e   Section        0  h1_init.o(.text)
    .text                                    0x0800085c   Section        0  fprintf.o(.text)
    .text                                    0x08000870   Section        0  vsnprintf.o(.text)
    .text                                    0x080008a4   Section        0  sscanf.o(.text)
    .text                                    0x080008e0   Section        0  abort.o(.text)
    .text                                    0x080008f6   Section        0  strcpy.o(.text)
    .text                                    0x0800093e   Section        0  strrchr.o(.text)
    .text                                    0x08000954   Section        0  strlen.o(.text)
    .text                                    0x08000992   Section        0  strcat.o(.text)
    .text                                    0x080009aa   Section      122  rt_memmove_w.o(.text)
    .text                                    0x08000a24   Section        0  aeabi_vec_delete_noexceptions.o(.text)
    .text                                    0x08000a32   Section        0  arm_exceptions_terminate.o(.text)
    .text                                    0x08000a4c   Section        0  arm_exceptions_globs.o(.text)
    [local to arm_exceptions_c]::__default_terminate_handler() 0x08000a4d   Thumb Code     6  arm_exceptions_globs.o(.text)
    .text                                    0x08000a9c   Section        0  sys_exit.o(.text)
    .text                                    0x08000aa8   Section       74  sys_stackheap_outer.o(.text)
    .text                                    0x08000af4   Section       16  rt_ctype_table.o(.text)
    .text                                    0x08000b04   Section        8  rt_eh_globals_addr_intlibspace.o(.text)
    .text                                    0x08000b0c   Section        0  h1_extend.o(.text)
    .text                                    0x08000b40   Section        0  _printf_pad.o(.text)
    .text                                    0x08000b8e   Section        0  _printf_truncate.o(.text)
    .text                                    0x08000bb2   Section        0  _printf_str.o(.text)
    .text                                    0x08000c04   Section        0  _printf_dec.o(.text)
    .text                                    0x08000c7c   Section        0  _printf_charcount.o(.text)
    .text                                    0x08000ca4   Section        0  _printf_char_common.o(.text)
    _printf_input_char                       0x08000ca5   Thumb Code    10  _printf_char_common.o(.text)
    .text                                    0x08000cd4   Section        0  _sputc.o(.text)
    .text                                    0x08000cde   Section        0  _snputc.o(.text)
    .text                                    0x08000cf0   Section        0  _printf_char_file.o(.text)
    .text                                    0x08000d14   Section        0  _printf_wctomb.o(.text)
    .text                                    0x08000dd0   Section        0  _printf_longlong_dec.o(.text)
    .text                                    0x08000e4c   Section        0  _printf_oct_int_ll.o(.text)
    _printf_longlong_oct_internal            0x08000e4d   Thumb Code     0  _printf_oct_int_ll.o(.text)
    .text                                    0x08000ebc   Section        0  _printf_hex_int_ll_ptr.o(.text)
    _printf_hex_common                       0x08000ebd   Thumb Code     0  _printf_hex_int_ll_ptr.o(.text)
    .text                                    0x08000f50   Section        0  __printf_flags_ss_wp.o(.text)
    .text                                    0x080010d8   Section        0  _scanf_longlong.o(.text)
    .text                                    0x0800122e   Section        0  _scanf_int.o(.text)
    .text                                    0x0800137a   Section        0  _scanf_str.o(.text)
    .text                                    0x0800145c   Section        0  scanf_char.o(.text)
    _scanf_char_input                        0x0800145d   Thumb Code    12  scanf_char.o(.text)
    .text                                    0x08001488   Section        0  _sgetc.o(.text)
    .text                                    0x080014c8   Section        0  _scanf_mbtowc.o(.text)
    .text                                    0x080015dc   Section        0  _scanf_wctomb.o(.text)
    .text                                    0x080016c4   Section        0  _scanf_wstr.o(.text)
    .text                                    0x08001794   Section        0  initio.o(.text)
    .text                                    0x080018cc   Section        0  locale.o(.text)
    .text                                    0x080018dc   Section        0  exit.o(.text)
    .text                                    0x080018ee   Section        0  aeabi_atexit.o(.text)
    .text                                    0x0800191c   Section        0  defsig_abrt_outer.o(.text)
    .text                                    0x0800192a   Section        0  defsig_rtmem_outer.o(.text)
    .text                                    0x08001938   Section        8  memcpy.o(.text)
    .text                                    0x08001940   Section      128  strcmpv7m.o(.text)
    .text                                    0x080019c0   Section        0  arm_exceptions_mem.o(.text)
    .text                                    0x080019fc   Section        0  sys_io.o(.text)
    .text                                    0x08001a62   Section        2  use_no_semi.o(.text)
    .text                                    0x08001a64   Section        0  indicate_semi.o(.text)
    .text                                    0x08001a64   Section        8  rt_locale_intlibspace.o(.text)
    .text                                    0x08001a6c   Section        8  rt_ddtor_pointer_addr_intlibspace.o(.text)
    .text                                    0x08001a74   Section      138  lludiv10.o(.text)
    .text                                    0x08001afe   Section        0  isspace.o(.text)
    .text                                    0x08001b10   Section        0  _printf_intcommon.o(.text)
    .text                                    0x08001bc2   Section        0  _printf_fp_dec.o(.text)
    _fp_digits                               0x08001bc5   Thumb Code   432  _printf_fp_dec.o(.text)
    .text                                    0x08001fe0   Section        0  _printf_fp_hex.o(.text)
    .text                                    0x080022dc   Section        0  _printf_char.o(.text)
    .text                                    0x08002308   Section        0  _printf_wchar.o(.text)
    .text                                    0x08002334   Section        0  _chval.o(.text)
    .text                                    0x08002350   Section        0  _scanf.o(.text)
    .text                                    0x080026c4   Section        0  scanf_fp.o(.text)
    _fp_value                                0x080026c5   Thumb Code   588  scanf_fp.o(.text)
    .text                                    0x08002bbc   Section        0  _scanf_wcharmap.o(.text)
    .text                                    0x08002bda   Section        0  ferror.o(.text)
    .text                                    0x08002be2   Section        0  setvbuf.o(.text)
    .text                                    0x08002c28   Section        0  fopen.o(.text)
    _freopen_locked                          0x08002c29   Thumb Code     0  fopen.o(.text)
    .text                                    0x08002d14   Section        0  fclose.o(.text)
    .text                                    0x08002d60   Section        0  locale_r.o(.text)
    _locale_name                             0x08002d61   Thumb Code   154  locale_r.o(.text)
    _set_locale_mixed                        0x08002e17   Thumb Code    98  locale_r.o(.text)
    _set_locale_byname                       0x08002e79   Thumb Code   152  locale_r.o(.text)
    .text                                    0x08002f18   Section        0  _mbrtowc.o(.text)
    .text                                    0x08002f54   Section        0  _wcrtomb.o(.text)
    .text                                    0x08002f94   Section        0  cxa_finalize.o(.text)
    .text                                    0x08002fd6   Section        0  defsig_exit.o(.text)
    .text                                    0x08002fe0   Section        0  defsig_abrt_inner.o(.text)
    .text                                    0x08003010   Section        0  defsig_rtred_outer.o(.text)
    .text                                    0x08003020   Section        0  defsig_rtmem_inner.o(.text)
    .text                                    0x08003070   Section        0  arm_rethrow_noexceptions.o(.text)
    .text                                    0x08003072   Section        0  aeabi_vec_dtor_noexceptions.o(.text)
    .text                                    0x08003094   Section        0  _printf_fp_infnan.o(.text)
    .text                                    0x08003114   Section        0  bigflt0.o(.text)
    .text                                    0x080031f8   Section        0  flsbuf.o(.text)
    .text                                    0x080033d0   Section        0  fseek.o(.text)
    .text                                    0x080034c8   Section        0  stdio.o(.text)
    .text                                    0x080035b8   Section        0  defsig_general.o(.text)
    .text                                    0x080035ec   Section        0  defsig_rtred_inner.o(.text)
    .text                                    0x08003620   Section        0  sys_wrch.o(.text)
    .text                                    0x08003630   Section        0  scanf_hexfp.o(.text)
    .text                                    0x08003950   Section        0  scanf_infnan.o(.text)
    .text                                    0x08003a84   Section        0  ftell.o(.text)
    .text                                    0x08003ac6   Section        0  ARM_vec_cleanup_noexceptions.o(.text)
    .text                                    0x08003ae2   Section       38  llshl.o(.text)
    CL$$btod_d2e                             0x08003b08   Section       62  btod.o(CL$$btod_d2e)
    CL$$btod_d2e_denorm_low                  0x08003b46   Section       70  btod.o(CL$$btod_d2e_denorm_low)
    CL$$btod_d2e_norm_op1                    0x08003b8c   Section       96  btod.o(CL$$btod_d2e_norm_op1)
    CL$$btod_div_common                      0x08003bec   Section      824  btod.o(CL$$btod_div_common)
    CL$$btod_e2d                             0x08003f24   Section      132  btod.o(CL$$btod_e2d)
    CL$$btod_e2e                             0x08003fa8   Section      220  btod.o(CL$$btod_e2e)
    CL$$btod_ediv                            0x08004084   Section       42  btod.o(CL$$btod_ediv)
    CL$$btod_edivd                           0x080040ae   Section       42  btod.o(CL$$btod_edivd)
    CL$$btod_emul                            0x080040d8   Section       42  btod.o(CL$$btod_emul)
    CL$$btod_emuld                           0x08004102   Section       42  btod.o(CL$$btod_emuld)
    CL$$btod_mult_common                     0x0800412c   Section      580  btod.o(CL$$btod_mult_common)
    i.<Func5>                                0x08004370   Section        0  locale.o(i.<Func5>)
    <Func5>                                  0x08004371   Thumb Code    20  locale.o(i.<Func5>)
    i.SPI1_IRQHandler                        0x08004384   Section        0  stm32f407_spi.o(i.SPI1_IRQHandler)
    i.SPI2_IRQHandler                        0x0800438a   Section        0  stm32f407_spi.o(i.SPI2_IRQHandler)
    i.SPI3_IRQHandler                        0x08004390   Section        0  stm32f407_spi.o(i.SPI3_IRQHandler)
    i.SystemInit                             0x08004398   Section        0  system_stm32f4xx.o(i.SystemInit)
    i.TIM7_IRQHandler                        0x080043f4   Section        0  stm32f407_sysfunc.o(i.TIM7_IRQHandler)
    i.UART4_IRQHandler                       0x08004418   Section        0  stm32f407_uart.o(i.UART4_IRQHandler)
    i.UART5_IRQHandler                       0x0800441e   Section        0  stm32f407_uart.o(i.UART5_IRQHandler)
    i.USART1_IRQHandler                      0x08004424   Section        0  stm32f407_uart.o(i.USART1_IRQHandler)
    i.USART2_IRQHandler                      0x0800442a   Section        0  stm32f407_uart.o(i.USART2_IRQHandler)
    i.USART3_IRQHandler                      0x08004430   Section        0  stm32f407_uart.o(i.USART3_IRQHandler)
    i.USART6_IRQHandler                      0x08004436   Section        0  stm32f407_uart.o(i.USART6_IRQHandler)
    i._Z10drawStringR7SSD1306Pcjj            0x0800443c   Section        0  main.o(i._Z10drawStringR7SSD1306Pcjj)
    i._Z11SetSysClockv                       0x08004470   Section        0  system_stm32f4xx.o(i._Z11SetSysClockv)
    SetSysClock()                            0x08004471   Thumb Code   168  system_stm32f4xx.o(i._Z11SetSysClockv)
    i._Z11delayMicrosj                       0x08004528   Section        0  stm32f407_sysfunc.o(i._Z11delayMicrosj)
    i._Z11tryTransmitj                       0x08004540   Section        0  stm32f407_uart.o(i._Z11tryTransmitj)
    i._Z12clb_imuCalibv                      0x080045d4   Section        0  main.o(i._Z12clb_imuCalibv)
    i._Z12clb_imuSetupv                      0x080045e4   Section        0  main.o(i._Z12clb_imuSetupv)
    i._Z12setupScreensv                      0x080045f0   Section        0  main.o(i._Z12setupScreensv)
    i._Z12writeStrUARTjPc                    0x08004a3c   Section        0  stm32f407_uart.o(i._Z12writeStrUARTjPc)
    i._Z13clb_doNothingv                     0x08004a5c   Section        0  main.o(i._Z13clb_doNothingv)
    i._Z13symbolToIndexc                     0x08004a6c   Section        0  main.o(i._Z13symbolToIndexc)
    i._Z14NVIC_EnableIRQ4IRQn                0x08004a70   Section        0  stm32f407_spi.o(i._Z14NVIC_EnableIRQ4IRQn)
    NVIC_EnableIRQ(IRQn)                     0x08004a71   Thumb Code    22  stm32f407_spi.o(i._Z14NVIC_EnableIRQ4IRQn)
    i._Z14NVIC_EnableIRQ4IRQn                0x08004a86   Section        0  stm32f407_uart.o(i._Z14NVIC_EnableIRQ4IRQn)
    NVIC_EnableIRQ(IRQn)                     0x08004a87   Thumb Code    22  stm32f407_uart.o(i._Z14NVIC_EnableIRQ4IRQn)
    i._Z15clb_dribblerOffv                   0x08004a9c   Section        0  main.o(i._Z15clb_dribblerOffv)
    i._Z16clb_dribblerInOnv                  0x08004aa8   Section        0  main.o(i._Z16clb_dribblerInOnv)
    i._Z16clb_kickStraightv                  0x08004ab8   Section        0  main.o(i._Z16clb_kickStraightv)
    i._Z16clb_screenToGamev                  0x08004ac8   Section        0  main.o(i._Z16clb_screenToGamev)
    i._Z16clb_screenToMainv                  0x08004b24   Section        0  main.o(i._Z16clb_screenToMainv)
    i._Z17clb_dribblerOutOnv                 0x08004b50   Section        0  main.o(i._Z17clb_dribblerOutOnv)
    i._Z17clb_screenToEmptyv                 0x08004b5c   Section        0  main.o(i._Z17clb_screenToEmptyv)
    i._Z18clb_endLightsCalibv                0x08004b6c   Section        0  main.o(i._Z18clb_endLightsCalibv)
    i._Z18clb_screenToKickerv                0x08004b78   Section        0  main.o(i._Z18clb_screenToKickerv)
    i._Z19SPIInterruptHandlerj               0x08004b90   Section        0  stm32f407_spi.o(i._Z19SPIInterruptHandlerj)
    i._Z19clb_toBatteryScreenv               0x08004bd0   Section        0  main.o(i._Z19clb_toBatteryScreenv)
    i._Z19clb_turnOnBackLightv               0x08004be4   Section        0  main.o(i._Z19clb_turnOnBackLightv)
    i._Z20UARTInterruptHandlerj              0x08004bf0   Section        0  stm32f407_uart.o(i._Z20UARTInterruptHandlerj)
    i._Z20clb_beginLightsCalibv              0x08004c88   Section        0  main.o(i._Z20clb_beginLightsCalibv)
    i._Z20clb_screenToDribblerv              0x08004c94   Section        0  main.o(i._Z20clb_screenToDribblerv)
    i._Z20clb_turnOffBackLightv              0x08004cac   Section        0  main.o(i._Z20clb_turnOffBackLightv)
    i._Z21clb_screenToDebugDatav             0x08004cb8   Section        0  main.o(i._Z21clb_screenToDebugDatav)
    i._Z24clb_screenToCalibrationsv          0x08004cdc   Section        0  main.o(i._Z24clb_screenToCalibrationsv)
    i._Z35clb_screenToLightSensorsCalibrationv 0x08004cf4   Section        0  main.o(i._Z35clb_screenToLightSensorsCalibrationv)
    i._Z5delayj                              0x08004d0c   Section        0  stm32f407_sysfunc.o(i._Z5delayj)
    i._Z6microsv                             0x08004d24   Section        0  stm32f407_sysfunc.o(i._Z6microsv)
    i._Z6millisv                             0x08004d44   Section        0  stm32f407_sysfunc.o(i._Z6millisv)
    i._Z6setPinP12GPIO_TypeDeftb             0x08004d50   Section        0  main.o(i._Z6setPinP12GPIO_TypeDeftb)
    i._Z6setPintb                            0x08004d68   Section        0  main.o(i._Z6setPintb)
    i._Z7catgetsPN4__rw8__rw_catEiiPKc       0x08004db0   Section        0  rwcats.o(i._Z7catgetsPN4__rw8__rw_catEiiPKc)
    i._Z7catopenPKci                         0x08004dd0   Section        0  rwcats.o(i._Z7catopenPKci)
    i._Z7initPinP12GPIO_TypeDefthhh          0x08004df4   Section        0  stm32f407_pin.o(i._Z7initPinP12GPIO_TypeDefthhh)
    i._Z7initPinthhh                         0x08004f80   Section        0  main.o(i._Z7initPinthhh)
    i._Z7initRCCv                            0x08004ff4   Section        0  stm32f407_sysfunc.o(i._Z7initRCCv)
    i._Z7initSPIjbhtiiii                     0x080050d4   Section        0  stm32f407_spi.o(i._Z7initSPIjbhtiiii)
    i._Z7readPinP12GPIO_TypeDeft             0x0800530c   Section        0  main.o(i._Z7readPinP12GPIO_TypeDeft)
    i._Z8drawCharR7SSD1306cjj                0x08005320   Section        0  main.o(i._Z8drawCharR7SSD1306cjj)
    i._Z8initUARTjjhfhj                      0x080053f4   Section        0  stm32f407_uart.o(i._Z8initUARTjjhfhj)
    i._Z8sysStartv                           0x08005780   Section        0  stm32f407_sysfunc.o(i._Z8sysStartv)
    i._Z8writeSPIjt                          0x080057f0   Section        0  stm32f407_spi.o(i._Z8writeSPIjt)
    i._Z9clb_kick1v                          0x08005828   Section        0  main.o(i._Z9clb_kick1v)
    i._Z9clb_kick2v                          0x08005838   Section        0  main.o(i._Z9clb_kick2v)
    i._Z9writeUARTjc                         0x08005848   Section        0  stm32f407_uart.o(i._Z9writeUARTjc)
    i._ZN10BallSensor4initEP6PL_ADCtt        0x0800586c   Section        0  main.o(i._ZN10BallSensor4initEP6PL_ADCtt)
    i._ZN10BallSensor6turnOnEv               0x080058b4   Section        0  main.o(i._ZN10BallSensor6turnOnEv)
    i._ZN10BallSensor6updateEv               0x080058c6   Section        0  main.o(i._ZN10BallSensor6updateEv)
    i._ZN10BallSensor8getValueEv             0x080058f6   Section        0  main.o(i._ZN10BallSensor8getValueEv)
    i._ZN11LineSensors13turnOnSensorsEv      0x080058fa   Section        0  main.o(i._ZN11LineSensors13turnOnSensorsEv)
    i._ZN11LineSensors14turnOffSensorsEv     0x08005900   Section        0  main.o(i._ZN11LineSensors14turnOffSensorsEv)
    i._ZN11LineSensors18endLineCalibrationEv 0x08005906   Section        0  main.o(i._ZN11LineSensors18endLineCalibrationEv)
    i._ZN11LineSensors20beginLineCalibrationEv 0x0800590c   Section        0  main.o(i._ZN11LineSensors20beginLineCalibrationEv)
    i._ZN11LineSensors4initEjt               0x08005912   Section        0  main.o(i._ZN11LineSensors4initEjt)
    i._ZN11LineSensors7getLineEv             0x08005936   Section        0  main.o(i._ZN11LineSensors7getLineEv)
    i._ZN12CameraObjectC1Ev                  0x0800593c   Section        0  main.o(i._ZN12CameraObjectC1Ev)
    i._ZN12KickerModule4initEtttt            0x08005968   Section        0  main.o(i._ZN12KickerModule4initEtttt)
    i._ZN12KickerModule4kickEbb              0x080059d6   Section        0  main.o(i._ZN12KickerModule4kickEbb)
    i._ZN12MotorDrivers11setDribblerEi       0x08005a58   Section        0  main.o(i._ZN12MotorDrivers11setDribblerEi)
    i._ZN12MotorDrivers12enableMotorsEv      0x08005a60   Section        0  main.o(i._ZN12MotorDrivers12enableMotorsEv)
    i._ZN12MotorDrivers13disableMotorsEv     0x08005a7c   Section        0  main.o(i._ZN12MotorDrivers13disableMotorsEv)
    i._ZN12MotorDrivers4initEjhjhjhjhjh      0x08005a98   Section        0  main.o(i._ZN12MotorDrivers4initEjhjhjhjhjh)
    i._ZN12MotorDrivers8setMotorEii          0x08005b28   Section        0  main.o(i._ZN12MotorDrivers8setMotorEii)
    i._ZN37_INTERNAL_15_rwstdexcept_cpp_8697b68a4__rw13__rw_vfmatstrEPcjPKcSt9__va_list 0x08005b52   Section        0  rwstdexcept.o(i._ZN37_INTERNAL_15_rwstdexcept_cpp_8697b68a4__rw13__rw_vfmatstrEPcjPKcSt9__va_list)
